---
triple:          'arm64-apple-darwin'
binary-path:     '/Users/scott/repos/sable/test'
relocations:
  - { offsetInCU: 0x50, offset: 0x50, size: 0x8, addend: 0x0, symName: __ZN5boost9unordered6detail15prime_fmod_sizeIvE11inv_sizes32E, symObjAddr: 0x33A28, symBinAddr: 0x100035988, symSize: 0x0 }
  - { offsetInCU: 0x1B6A, offset: 0x1B6A, size: 0x8, addend: 0x0, symName: __ZN5boost9unordered6detail16reset_first_bitsEm, symObjAddr: 0x19390, symBinAddr: 0x10001A2A0, symSize: 0x28 }
  - { offsetInCU: 0x1B96, offset: 0x1B96, size: 0x8, addend: 0x0, symName: __ZN5boost9unordered6detail7launderIKNS1_10compressedINS_4hashI4PairEENSt3__18equal_toIS5_EEEEEEPT_SD_, symObjAddr: 0x197B8, symBinAddr: 0x10001A6C8, symSize: 0x14 }
  - { offsetInCU: 0x1C36, offset: 0x1C36, size: 0x8, addend: 0x0, symName: __ZN5boost9unordered6detail11narrow_castIjmEET_T0_, symObjAddr: 0x19A4C, symBinAddr: 0x10001A95C, symSize: 0x18 }
  - { offsetInCU: 0x1C79, offset: 0x1C79, size: 0x8, addend: 0x0, symName: __ZN5boost9unordered6detail4func23construct_node_from_keyI4PairjNSt3__19allocatorINS1_4nodeINS5_4pairIKS4_jEEPvEEEERS9_EENS_17allocator_pointerIT1_E4typeEPNS8_IKT_T0_EERSG_OT2_, symObjAddr: 0x19F14, symBinAddr: 0x10001AE24, symSize: 0x30 }
  - { offsetInCU: 0x1CE5, offset: 0x1CE5, size: 0x8, addend: 0x0, symName: __ZN5boost9unordered6detail4func19construct_node_pairINSt3__19allocatorINS1_4nodeINS4_4pairIK4PairjEEPvEEEERS9_EENS_17allocator_pointerIT_E4typeERSG_OT0_, symObjAddr: 0x1A108, symBinAddr: 0x10001B018, symSize: 0xCC }
  - { offsetInCU: 0x1D5E, offset: 0x1D5E, size: 0x8, addend: 0x0, symName: __ZN5boost9unordered6detail4func7destroyINS1_4nodeINSt3__14pairIK4PairjEEPvEEEEvPT_, symObjAddr: 0x1AA20, symBinAddr: 0x10001B930, symSize: 0x24 }
  - { offsetInCU: 0x1D91, offset: 0x1D91, size: 0x8, addend: 0x0, symName: __ZN5boost9unordered6detail4func7destroyINS1_10compressedINS_4hashI4PairEENSt3__18equal_toIS6_EEEEEEvPT_, symObjAddr: 0x1CA7C, symBinAddr: 0x10001D98C, symSize: 0x10 }
  - { offsetInCU: 0x1DC4, offset: 0x1DC4, size: 0x8, addend: 0x0, symName: __ZN5boost9unordered6detail4func23construct_node_from_keyI4PairjNSt3__19allocatorINS1_4nodeINS5_4pairIKS4_jEEPvEEEES4_EENS_17allocator_pointerIT1_E4typeEPNS8_IKT_T0_EERSF_OT2_, symObjAddr: 0x1CFC0, symBinAddr: 0x10001DED0, symSize: 0x30 }
  - { offsetInCU: 0x1E30, offset: 0x1E30, size: 0x8, addend: 0x0, symName: __ZN5boost9unordered6detail4func19construct_node_pairINSt3__19allocatorINS1_4nodeINS4_4pairIK4PairjEEPvEEEES8_EENS_17allocator_pointerIT_E4typeERSF_OT0_, symObjAddr: 0x1CFF0, symBinAddr: 0x10001DF00, symSize: 0xCC }
  - { offsetInCU: 0x1EA9, offset: 0x1EA9, size: 0x8, addend: 0x0, symName: __ZN5boost9unordered6detail4func14construct_nodeINSt3__19allocatorINS1_4nodeINS4_4pairIK4PairjEEPvEEEERKSA_EENS_17allocator_pointerIT_E4typeERSH_OT0_, symObjAddr: 0x27184, symBinAddr: 0x100028094, symSize: 0xA4 }
  - { offsetInCU: 0x2064, offset: 0x2064, size: 0x8, addend: 0x0, symName: __ZN5boost9unordered6detail7set_bitEm, symObjAddr: 0x1BA90, symBinAddr: 0x10001C9A0, symSize: 0x1C }
  - { offsetInCU: 0x2090, offset: 0x2090, size: 0x8, addend: 0x0, symName: __ZN5boost9unordered6detail9reset_bitEm, symObjAddr: 0x1BE74, symBinAddr: 0x10001CD84, symSize: 0x20 }
  - { offsetInCU: 0x20BC, offset: 0x20BC, size: 0x8, addend: 0x0, symName: __ZN5boost9unordered6detail14double_to_sizeEd, symObjAddr: 0x1C10C, symBinAddr: 0x10001D01C, symSize: 0x60 }
  - { offsetInCU: 0x2C2E, offset: 0x2C2E, size: 0x8, addend: 0x0, symName: __ZN5boost6tuples6detail5cnullEv, symObjAddr: 0x7D94, symBinAddr: 0x100008CA4, symSize: 0x4 }
  - { offsetInCU: 0x3095, offset: 0x3095, size: 0x8, addend: 0x0, symName: __ZN5boost6tuples3getILm0EjNS0_4consIjNS0_9null_typeEEEEENS0_13access_traitsINS0_7elementIXT_ENS2_IT0_T1_EEE4typeEE10const_typeERKS9_, symObjAddr: 0x18BC4, symBinAddr: 0x100019AD4, symSize: 0x24 }
  - { offsetInCU: 0x30DD, offset: 0x30DD, size: 0x8, addend: 0x0, symName: __ZN5boost6tuples3getILm1EjNS0_4consIjNS0_9null_typeEEEEENS0_13access_traitsINS0_7elementIXT_ENS2_IT0_T1_EEE4typeEE10const_typeERKS9_, symObjAddr: 0x18BFC, symBinAddr: 0x100019B0C, symSize: 0x24 }
  - { offsetInCU: 0x391F, offset: 0x391F, size: 0x8, addend: 0x0, symName: __ZN5boost12hash_combineIjEEvRmRKT_, symObjAddr: 0x1E4, symBinAddr: 0x1000010F4, symSize: 0x58 }
  - { offsetInCU: 0x3966, offset: 0x3966, size: 0x8, addend: 0x0, symName: __ZN5boost11hash_detail8hash_mixEm, symObjAddr: 0x18C48, symBinAddr: 0x100019B58, symSize: 0x24 }
  - { offsetInCU: 0x3A3B, offset: 0x3A3B, size: 0x8, addend: 0x0, symName: __ZN5boost10hash_valueIjEENSt3__19enable_ifIXsr11hash_detail11is_integralIT_EE5valueEmE4typeES3_, symObjAddr: 0x18D08, symBinAddr: 0x100019C18, symSize: 0x24 }
  - { offsetInCU: 0x3A75, offset: 0x3A75, size: 0x8, addend: 0x0, symName: __ZN5boost4core11countr_zeroImEEiT_, symObjAddr: 0x1936C, symBinAddr: 0x10001A27C, symSize: 0x24 }
  - { offsetInCU: 0x3AB1, offset: 0x3AB1, size: 0x8, addend: 0x0, symName: __ZN5boost4core6detail11countr_implEm, symObjAddr: 0x193B8, symBinAddr: 0x10001A2C8, symSize: 0x48 }
  - { offsetInCU: 0x3AE1, offset: 0x3AE1, size: 0x8, addend: 0x0, symName: __ZN5boost10to_addressINS_9unordered6detail6bucketINS2_4nodeINSt3__14pairIK4PairjEEPvEESA_EEEEPT_SE_, symObjAddr: 0x19400, symBinAddr: 0x10001A310, symSize: 0x14 }
  - { offsetInCU: 0x3C3B, offset: 0x3C3B, size: 0x8, addend: 0x0, symName: __ZN5boost19allocator_constructINSt3__19allocatorINS1_4pairIK4PairjEEEES6_JRKNS1_21piecewise_construct_tENS1_5tupleIJRS5_EEENSB_IJEEEEEENS1_9enable_ifIXsr6detail19alloc_has_constructIT_T0_DpT1_EE5valueEvE4typeERSG_PSH_DpOSI_, symObjAddr: 0x1A2BC, symBinAddr: 0x10001B1CC, symSize: 0x44 }
  - { offsetInCU: 0x3CCC, offset: 0x3CCC, size: 0x8, addend: 0x0, symName: __ZN5boost10to_addressINS_9unordered6detail4nodeINSt3__14pairIK4PairjEEPvEEEEPT_SC_, symObjAddr: 0x1A444, symBinAddr: 0x10001B354, symSize: 0x14 }
  - { offsetInCU: 0x3D01, offset: 0x3D01, size: 0x8, addend: 0x0, symName: __ZN5boost18allocator_allocateINSt3__19allocatorINS_9unordered6detail4nodeINS1_4pairIK4PairjEEPvEEEEEENS_17allocator_pointerIT_E4typeERSE_NS_19allocator_size_typeISE_E4typeE, symObjAddr: 0x1A484, symBinAddr: 0x10001B394, symSize: 0x2C }
  - { offsetInCU: 0x3D47, offset: 0x3D47, size: 0x8, addend: 0x0, symName: __ZN5boost20allocator_deallocateINSt3__19allocatorINS_9unordered6detail4nodeINS1_4pairIK4PairjEEPvEEEEEEvRT_NS_17allocator_pointerISD_E4typeENS_19allocator_size_typeISD_E4typeE, symObjAddr: 0x1AB14, symBinAddr: 0x10001BA24, symSize: 0x34 }
  - { offsetInCU: 0x3D98, offset: 0x3D98, size: 0x8, addend: 0x0, symName: __ZN5boost18allocator_allocateINSt3__19allocatorINS_9unordered6detail6bucketINS4_4nodeINS1_4pairIK4PairjEEPvEESB_EEEEEENS_17allocator_pointerIT_E4typeERSG_NS_19allocator_size_typeISG_E4typeE, symObjAddr: 0x1B998, symBinAddr: 0x10001C8A8, symSize: 0x2C }
  - { offsetInCU: 0x3DDE, offset: 0x3DDE, size: 0x8, addend: 0x0, symName: __ZN5boost18allocator_allocateINSt3__19allocatorINS_9unordered6detail12bucket_groupINS4_6bucketINS4_4nodeINS1_4pairIK4PairjEEPvEESC_EEEEEEEENS_17allocator_pointerIT_E4typeERSI_NS_19allocator_size_typeISI_E4typeE, symObjAddr: 0x1B9C4, symBinAddr: 0x10001C8D4, symSize: 0x2C }
  - { offsetInCU: 0x3E24, offset: 0x3E24, size: 0x8, addend: 0x0, symName: __ZN5boost10to_addressINS_9unordered6detail12bucket_groupINS2_6bucketINS2_4nodeINSt3__14pairIK4PairjEEPvEESB_EEEEEEPT_SG_, symObjAddr: 0x1BA1C, symBinAddr: 0x10001C92C, symSize: 0x14 }
  - { offsetInCU: 0x3E59, offset: 0x3E59, size: 0x8, addend: 0x0, symName: __ZN5boost20allocator_deallocateINSt3__19allocatorINS_9unordered6detail6bucketINS4_4nodeINS1_4pairIK4PairjEEPvEESB_EEEEEEvRT_NS_17allocator_pointerISF_E4typeENS_19allocator_size_typeISF_E4typeE, symObjAddr: 0x1BA5C, symBinAddr: 0x10001C96C, symSize: 0x34 }
  - { offsetInCU: 0x3EAA, offset: 0x3EAA, size: 0x8, addend: 0x0, symName: __ZN5boost17allocator_destroyINSt3__19allocatorINS1_4pairIK4PairjEEEES6_EENS_6detail8alloc_ifIXsr6detail17alloc_has_destroyIT_T0_EE5valueEvE4typeERSA_PSB_, symObjAddr: 0x1BE34, symBinAddr: 0x10001CD44, symSize: 0x2C }
  - { offsetInCU: 0x3EF9, offset: 0x3EF9, size: 0x8, addend: 0x0, symName: __ZN5boost20allocator_deallocateINSt3__19allocatorINS_9unordered6detail12bucket_groupINS4_6bucketINS4_4nodeINS1_4pairIK4PairjEEPvEESC_EEEEEEEEvRT_NS_17allocator_pointerISH_E4typeENS_19allocator_size_typeISH_E4typeE, symObjAddr: 0x1C084, symBinAddr: 0x10001CF94, symSize: 0x34 }
  - { offsetInCU: 0x3F4A, offset: 0x3F4A, size: 0x8, addend: 0x0, symName: __ZN5boost19allocator_constructINSt3__19allocatorINS1_4pairIK4PairjEEEES6_JRKNS1_21piecewise_construct_tENS1_5tupleIJOS4_EEENSB_IJEEEEEENS1_9enable_ifIXsr6detail19alloc_has_constructIT_T0_DpT1_EE5valueEvE4typeERSG_PSH_DpOSI_, symObjAddr: 0x1D0BC, symBinAddr: 0x10001DFCC, symSize: 0x44 }
  - { offsetInCU: 0x411E, offset: 0x411E, size: 0x8, addend: 0x0, symName: __ZN5boost47allocator_select_on_container_copy_constructionINSt3__19allocatorINS1_4pairIK4PairjEEEEEENS_6detail8alloc_ifIXntsr6detail15alloc_has_socccIT_EE5valueESA_E4typeERKSA_, symObjAddr: 0x26DA0, symBinAddr: 0x100027CB0, symSize: 0x10 }
  - { offsetInCU: 0x4155, offset: 0x4155, size: 0x8, addend: 0x0, symName: __ZN5boost19allocator_constructINSt3__19allocatorINS1_4pairIK4PairjEEEES6_JRKS6_EEENS1_9enable_ifIXsr6detail19alloc_has_constructIT_T0_DpT1_EE5valueEvE4typeERSB_PSC_DpOSD_, symObjAddr: 0x27228, symBinAddr: 0x100028138, symSize: 0x34 }
  - { offsetInCU: 0x42D7, offset: 0x42D7, size: 0x8, addend: 0x0, symName: __ZN5boost9unordered6detail15prime_fmod_sizeIvE5sizesE, symObjAddr: 0x33B10, symBinAddr: 0x100035A70, symSize: 0x0 }
  - { offsetInCU: 0x42EE, offset: 0x42EE, size: 0x8, addend: 0x0, symName: __ZN5boost9unordered6detail15prime_fmod_sizeIvE9positionsE, symObjAddr: 0x333F0, symBinAddr: 0x1000394C0, symSize: 0x0 }
  - { offsetInCU: 0x4322, offset: 0x4322, size: 0x8, addend: 0x0, symName: __ZNSt3__1L19piecewise_constructE, symObjAddr: 0x33C40, symBinAddr: 0x100035BA0, symSize: 0x0 }
  - { offsetInCU: 0xE2EA, offset: 0xE2EA, size: 0x8, addend: 0x0, symName: '__ZNSt3__110__function10__not_nullB7v160006IZ15kcobuchi_expandNS_10shared_ptrIN4spot9twa_graphEEEjbE3$_0EEbRKT_', symObjAddr: 0x1D64C, symBinAddr: 0x10001E55C, symSize: 0x18 }
  - { offsetInCU: 0xE31B, offset: 0xE31B, size: 0x8, addend: 0x0, symName: '__ZNSt3__110__function10__not_nullB7v160006IZ15kcobuchi_expandNS_10shared_ptrIN4spot9twa_graphEEEjbE3$_1EEbRKT_', symObjAddr: 0x20588, symBinAddr: 0x100021498, symSize: 0x18 }
  - { offsetInCU: 0xE34C, offset: 0xE34C, size: 0x8, addend: 0x0, symName: '__ZNSt3__110__function10__not_nullB7v160006IZ21complete_coBuchi_hereNS_10shared_ptrIN4spot9twa_graphEEEE3$_2EEbRKT_', symObjAddr: 0x28110, symBinAddr: 0x100029020, symSize: 0x18 }
  - { offsetInCU: 0xE37D, offset: 0xE37D, size: 0x8, addend: 0x0, symName: '__ZNSt3__110__function10__not_nullB7v160006IZ21prefix_hits_acceptingNS_10shared_ptrIN4spot9twa_graphEEENS2_INS3_8twa_wordEEEbE3$_3EEbRKT_', symObjAddr: 0x2F7AC, symBinAddr: 0x1000306BC, symSize: 0x18 }
  - { offsetInCU: 0x34E0E, offset: 0x34E0E, size: 0x8, addend: 0x0, symName: __ZNSt3__17advanceB7v160006IPN4spot8acc_cond8acc_wordEmmvEEvRT_T0_, symObjAddr: 0x11778, symBinAddr: 0x100012688, symSize: 0x50 }
  - { offsetInCU: 0x35DCE, offset: 0x35DCE, size: 0x8, addend: 0x0, symName: __ZNSt3__124__put_character_sequenceB7v160006IcNS_11char_traitsIcEEEERNS_13basic_ostreamIT_T0_EES7_PKS4_m, symObjAddr: 0x17EF4, symBinAddr: 0x100018E04, symSize: 0x1EC }
  - { offsetInCU: 0x3B220, offset: 0x3B220, size: 0x8, addend: 0x0, symName: __ZNSt3__17advanceB7v160006INS_11__wrap_iterIPjEEllvEEvRT_T0_, symObjAddr: 0x2529C, symBinAddr: 0x1000261AC, symSize: 0x50 }
  - { offsetInCU: 0x3F404, offset: 0x3F404, size: 0x8, addend: 0x0, symName: __ZNSt3__17advanceB7v160006INS_21__tree_const_iteratorINS_12__value_typeIN4spot7formulaEiEEPNS_11__tree_nodeIS5_PvEElEEllvEEvRT_T0_, symObjAddr: 0x2CC54, symBinAddr: 0x10002DB64, symSize: 0x50 }
  - { offsetInCU: 0x416DF, offset: 0x416DF, size: 0x8, addend: 0x0, symName: __ZNSt3__1lsB7v160006INS_11char_traitsIcEEEERNS_13basic_ostreamIcT_EES6_c, symObjAddr: 0x38, symBinAddr: 0x100000F48, symSize: 0x34 }
  - { offsetInCU: 0x41725, offset: 0x41725, size: 0x8, addend: 0x0, symName: __ZNSt3__1lsB7v160006IcNS_11char_traitsIcEENS_9allocatorIcEEEERNS_13basic_ostreamIT_T0_EES9_RKNS_12basic_stringIS6_S7_T1_EE, symObjAddr: 0x6C, symBinAddr: 0x100000F7C, symSize: 0x4C }
  - { offsetInCU: 0x4177D, offset: 0x4177D, size: 0x8, addend: 0x0, symName: __ZNSt3__13getB7v160006ILm0EK4PairjEERNS_13tuple_elementIXT_ENS_4pairIT0_T1_EEE4typeERS7_, symObjAddr: 0xF88, symBinAddr: 0x100001E98, symSize: 0x24 }
  - { offsetInCU: 0x417C7, offset: 0x417C7, size: 0x8, addend: 0x0, symName: __ZNSt3__13getB7v160006ILm1EK4PairjEERNS_13tuple_elementIXT_ENS_4pairIT0_T1_EEE4typeERS7_, symObjAddr: 0xFAC, symBinAddr: 0x100001EBC, symSize: 0x24 }
  - { offsetInCU: 0x41811, offset: 0x41811, size: 0x8, addend: 0x0, symName: __ZNSt3__1lsB7v160006INS_11char_traitsIcEEEERNS_13basic_ostreamIcT_EES6_PKc, symObjAddr: 0xFD0, symBinAddr: 0x100001EE0, symSize: 0x48 }
  - { offsetInCU: 0x41857, offset: 0x41857, size: 0x8, addend: 0x0, symName: __ZNSt3__14endlB7v160006IcNS_11char_traitsIcEEEERNS_13basic_ostreamIT_T0_EES7_, symObjAddr: 0x1044, symBinAddr: 0x100001F54, symSize: 0x58 }
  - { offsetInCU: 0x41B73, offset: 0x41B73, size: 0x8, addend: 0x0, symName: __ZNSt3__1neB7v160006IPcEEbRKNS_11__wrap_iterIT_EES6_, symObjAddr: 0x3540, symBinAddr: 0x100004450, symSize: 0x34 }
  - { offsetInCU: 0x424BB, offset: 0x424BB, size: 0x8, addend: 0x0, symName: __ZNSt3__1neB7v160006ERKNS_15__list_iteratorI3bddPvEES5_, symObjAddr: 0x3BD8, symBinAddr: 0x100004AE8, symSize: 0x34 }
  - { offsetInCU: 0x42503, offset: 0x42503, size: 0x8, addend: 0x0, symName: __ZNSt3__1neB7v160006INS_11__wrap_iterIPjEES3_EEbRKNS_16reverse_iteratorIT_EERKNS4_IT0_EE, symObjAddr: 0x4200, symBinAddr: 0x100005110, symSize: 0x54 }
  - { offsetInCU: 0x42DC1, offset: 0x42DC1, size: 0x8, addend: 0x0, symName: __ZNSt3__1plB7v160006IcNS_11char_traitsIcEENS_9allocatorIcEEEENS_12basic_stringIT_T0_T1_EEOS9_PKS6_, symObjAddr: 0x4924, symBinAddr: 0x100005834, symSize: 0x40 }
  - { offsetInCU: 0x42E24, offset: 0x42E24, size: 0x8, addend: 0x0, symName: __ZNSt3__112__to_addressB7v160006IN4spot8internal12edge_storageIjjjNS2_11boxed_labelINS1_19twa_graph_edge_dataELb0EEEEEEEPT_S9_, symObjAddr: 0x537C, symBinAddr: 0x10000628C, symSize: 0x14 }
  - { offsetInCU: 0x42E59, offset: 0x42E59, size: 0x8, addend: 0x0, symName: __ZNSt3__13maxB7v160006ImEERKT_S3_S3_, symObjAddr: 0x591C, symBinAddr: 0x10000682C, symSize: 0x2C }
  - { offsetInCU: 0x42E9C, offset: 0x42E9C, size: 0x8, addend: 0x0, symName: __ZNSt3__13minB7v160006ImEERKT_S3_S3_, symObjAddr: 0x5948, symBinAddr: 0x100006858, symSize: 0x2C }
  - { offsetInCU: 0x430C9, offset: 0x430C9, size: 0x8, addend: 0x0, symName: __ZNSt3__13minB7v160006ImNS_6__lessImmEEEERKT_S5_S5_T0_, symObjAddr: 0x59E0, symBinAddr: 0x1000068F0, symSize: 0x54 }
  - { offsetInCU: 0x4315F, offset: 0x4315F, size: 0x8, addend: 0x0, symName: __ZNSt3__120__throw_length_errorB7v160006EPKc, symObjAddr: 0x5AC0, symBinAddr: 0x1000069D0, symSize: 0x64 }
  - { offsetInCU: 0x43187, offset: 0x43187, size: 0x8, addend: 0x0, symName: __ZNSt3__13maxB7v160006ImNS_6__lessImmEEEERKT_S5_S5_T0_, symObjAddr: 0x5C04, symBinAddr: 0x100006B14, symSize: 0x54 }
  - { offsetInCU: 0x431E1, offset: 0x431E1, size: 0x8, addend: 0x0, symName: __ZNSt3__119__allocate_at_leastB7v160006INS_9allocatorIN4spot8internal12edge_storageIjjjNS3_11boxed_labelINS2_19twa_graph_edge_dataELb0EEEEEEEEENS_19__allocation_resultINS_16allocator_traitsIT_E7pointerEEERSC_m, symObjAddr: 0x5D74, symBinAddr: 0x100006C84, symSize: 0x40 }
  - { offsetInCU: 0x43224, offset: 0x43224, size: 0x8, addend: 0x0, symName: __ZNSt3__117__libcpp_allocateB7v160006Emm, symObjAddr: 0x5F18, symBinAddr: 0x100006E28, symSize: 0x60 }
  - { offsetInCU: 0x4327F, offset: 0x4327F, size: 0x8, addend: 0x0, symName: __ZNSt3__124__is_overaligned_for_newB7v160006Em, symObjAddr: 0x5F78, symBinAddr: 0x100006E88, symSize: 0x20 }
  - { offsetInCU: 0x432AD, offset: 0x432AD, size: 0x8, addend: 0x0, symName: __ZNSt3__121__libcpp_operator_newB7v160006IJmSt11align_val_tEEEPvDpT_, symObjAddr: 0x5F98, symBinAddr: 0x100006EA8, symSize: 0x2C }
  - { offsetInCU: 0x432FA, offset: 0x432FA, size: 0x8, addend: 0x0, symName: __ZNSt3__121__libcpp_operator_newB7v160006IJmEEEPvDpT_, symObjAddr: 0x5FC4, symBinAddr: 0x100006ED4, symSize: 0x24 }
  - { offsetInCU: 0x43333, offset: 0x43333, size: 0x8, addend: 0x0, symName: __ZNSt3__142__uninitialized_allocator_move_if_noexceptB7v160006INS_9allocatorIN4spot8internal12edge_storageIjjjNS3_11boxed_labelINS2_19twa_graph_edge_dataELb0EEEEEEENS_16reverse_iteratorIPS8_EESC_SC_EET2_RT_T0_T1_SD_, symObjAddr: 0x6120, symBinAddr: 0x100007030, symSize: 0x12C }
  - { offsetInCU: 0x433D3, offset: 0x433D3, size: 0x8, addend: 0x0, symName: __ZNSt3__14swapB7v160006IPN4spot8internal12edge_storageIjjjNS2_11boxed_labelINS1_19twa_graph_edge_dataELb0EEEEEEENS_9enable_ifIXaasr21is_move_constructibleIT_EE5valuesr18is_move_assignableISA_EE5valueEvE4typeERSA_SD_, symObjAddr: 0x6298, symBinAddr: 0x1000071A8, symSize: 0x3C }
  - { offsetInCU: 0x43426, offset: 0x43426, size: 0x8, addend: 0x0, symName: __ZNSt3__125__debug_db_invalidate_allB7v160006INS_6vectorIN4spot8internal12edge_storageIjjjNS3_11boxed_labelINS2_19twa_graph_edge_dataELb0EEEEENS_9allocatorIS8_EEEEEEvPT_, symObjAddr: 0x639C, symBinAddr: 0x1000072AC, symSize: 0x10 }
  - { offsetInCU: 0x43457, offset: 0x43457, size: 0x8, addend: 0x0, symName: __ZNSt3__122__make_exception_guardB7v160006INS_29_AllocatorDestroyRangeReverseINS_9allocatorIN4spot8internal12edge_storageIjjjNS4_11boxed_labelINS3_19twa_graph_edge_dataELb0EEEEEEENS_16reverse_iteratorIPS9_EEEEEENS_28__exception_guard_exceptionsIT_EESG_, symObjAddr: 0x63F4, symBinAddr: 0x100007304, symSize: 0x4C }
  - { offsetInCU: 0x4348D, offset: 0x4348D, size: 0x8, addend: 0x0, symName: __ZNSt3__1neB7v160006IPN4spot8internal12edge_storageIjjjNS2_11boxed_labelINS1_19twa_graph_edge_dataELb0EEEEES8_EEbRKNS_16reverse_iteratorIT_EERKNS9_IT0_EE, symObjAddr: 0x6484, symBinAddr: 0x100007394, symSize: 0x48 }
  - { offsetInCU: 0x434D9, offset: 0x434D9, size: 0x8, addend: 0x0, symName: __ZNSt3__112__to_addressB7v160006INS_16reverse_iteratorIPN4spot8internal12edge_storageIjjjNS3_11boxed_labelINS2_19twa_graph_edge_dataELb0EEEEEEEvEENS_5decayIDTclsr19__to_address_helperIT_EE6__callclsr3stdE7declvalIRKSC_EEEEE4typeESE_, symObjAddr: 0x6500, symBinAddr: 0x100007410, symSize: 0x24 }
  - { offsetInCU: 0x43538, offset: 0x43538, size: 0x8, addend: 0x0, symName: __ZNSt3__119__allocator_destroyB7v160006INS_9allocatorIN4spot8internal12edge_storageIjjjNS3_11boxed_labelINS2_19twa_graph_edge_dataELb0EEEEEEENS_16reverse_iteratorINSA_IPS8_EEEESD_EEvRT_T0_T1_, symObjAddr: 0x6930, symBinAddr: 0x100007840, symSize: 0x70 }
  - { offsetInCU: 0x4359D, offset: 0x4359D, size: 0x8, addend: 0x0, symName: __ZNSt3__1neB7v160006INS_16reverse_iteratorIPN4spot8internal12edge_storageIjjjNS3_11boxed_labelINS2_19twa_graph_edge_dataELb0EEEEEEESA_EEbRKNS1_IT_EERKNS1_IT0_EE, symObjAddr: 0x69DC, symBinAddr: 0x1000078EC, symSize: 0x60 }
  - { offsetInCU: 0x435E9, offset: 0x435E9, size: 0x8, addend: 0x0, symName: __ZNSt3__112__to_addressB7v160006INS_16reverse_iteratorINS1_IPN4spot8internal12edge_storageIjjjNS3_11boxed_labelINS2_19twa_graph_edge_dataELb0EEEEEEEEEvEENS_5decayIDTclsr19__to_address_helperIT_EE6__callclsr3stdE7declvalIRKSD_EEEEE4typeESF_, symObjAddr: 0x6A68, symBinAddr: 0x100007978, symSize: 0x24 }
  - { offsetInCU: 0x43648, offset: 0x43648, size: 0x8, addend: 0x0, symName: __ZNSt3__119__libcpp_deallocateB7v160006EPvmm, symObjAddr: 0x6E24, symBinAddr: 0x100007D34, symSize: 0x60 }
  - { offsetInCU: 0x436AE, offset: 0x436AE, size: 0x8, addend: 0x0, symName: __ZNSt3__127__do_deallocate_handle_sizeB7v160006IJSt11align_val_tEEEvPvmDpT_, symObjAddr: 0x6E84, symBinAddr: 0x100007D94, symSize: 0x30 }
  - { offsetInCU: 0x43701, offset: 0x43701, size: 0x8, addend: 0x0, symName: __ZNSt3__127__do_deallocate_handle_sizeB7v160006IJEEEvPvmDpT_, symObjAddr: 0x6EB4, symBinAddr: 0x100007DC4, symSize: 0x28 }
  - { offsetInCU: 0x4373F, offset: 0x4373F, size: 0x8, addend: 0x0, symName: __ZNSt3__124__libcpp_operator_deleteB7v160006IJPvSt11align_val_tEEEvDpT_, symObjAddr: 0x6EDC, symBinAddr: 0x100007DEC, symSize: 0x2C }
  - { offsetInCU: 0x43788, offset: 0x43788, size: 0x8, addend: 0x0, symName: __ZNSt3__124__libcpp_operator_deleteB7v160006IJPvEEEvDpT_, symObjAddr: 0x6F08, symBinAddr: 0x100007E18, symSize: 0x24 }
  - { offsetInCU: 0x437BD, offset: 0x437BD, size: 0x8, addend: 0x0, symName: __ZNSt3__112__to_addressB7v160006IjEEPT_S2_, symObjAddr: 0x7B54, symBinAddr: 0x100008A64, symSize: 0x14 }
  - { offsetInCU: 0x4386C, offset: 0x4386C, size: 0x8, addend: 0x0, symName: __ZNSt3__112__to_addressB7v160006IN4spot8internal15distate_storageIjNS2_11boxed_labelINS1_15twa_graph_stateELb0EEEEEEEPT_S9_, symObjAddr: 0x82AC, symBinAddr: 0x1000091BC, symSize: 0x14 }
  - { offsetInCU: 0x438A1, offset: 0x438A1, size: 0x8, addend: 0x0, symName: __ZNSt3__119__allocate_at_leastB7v160006INS_9allocatorIN4spot8internal15distate_storageIjNS3_11boxed_labelINS2_15twa_graph_stateELb0EEEEEEEEENS_19__allocation_resultINS_16allocator_traitsIT_E7pointerEEERSC_m, symObjAddr: 0x8CD0, symBinAddr: 0x100009BE0, symSize: 0x40 }
  - { offsetInCU: 0x438E4, offset: 0x438E4, size: 0x8, addend: 0x0, symName: __ZNSt3__142__uninitialized_allocator_move_if_noexceptB7v160006INS_9allocatorIN4spot8internal15distate_storageIjNS3_11boxed_labelINS2_15twa_graph_stateELb0EEEEEEENS_16reverse_iteratorIPS8_EESC_SC_EET2_RT_T0_T1_SD_, symObjAddr: 0x8F58, symBinAddr: 0x100009E68, symSize: 0x12C }
  - { offsetInCU: 0x43984, offset: 0x43984, size: 0x8, addend: 0x0, symName: __ZNSt3__14swapB7v160006IPN4spot8internal15distate_storageIjNS2_11boxed_labelINS1_15twa_graph_stateELb0EEEEEEENS_9enable_ifIXaasr21is_move_constructibleIT_EE5valuesr18is_move_assignableISA_EE5valueEvE4typeERSA_SD_, symObjAddr: 0x90D0, symBinAddr: 0x100009FE0, symSize: 0x3C }
  - { offsetInCU: 0x439D7, offset: 0x439D7, size: 0x8, addend: 0x0, symName: __ZNSt3__125__debug_db_invalidate_allB7v160006INS_6vectorIN4spot8internal15distate_storageIjNS3_11boxed_labelINS2_15twa_graph_stateELb0EEEEENS_9allocatorIS8_EEEEEEvPT_, symObjAddr: 0x91B8, symBinAddr: 0x10000A0C8, symSize: 0x10 }
  - { offsetInCU: 0x43A08, offset: 0x43A08, size: 0x8, addend: 0x0, symName: __ZNSt3__122__make_exception_guardB7v160006INS_29_AllocatorDestroyRangeReverseINS_9allocatorIN4spot8internal15distate_storageIjNS4_11boxed_labelINS3_15twa_graph_stateELb0EEEEEEENS_16reverse_iteratorIPS9_EEEEEENS_28__exception_guard_exceptionsIT_EESG_, symObjAddr: 0x9210, symBinAddr: 0x10000A120, symSize: 0x4C }
  - { offsetInCU: 0x43A3E, offset: 0x43A3E, size: 0x8, addend: 0x0, symName: __ZNSt3__1neB7v160006IPN4spot8internal15distate_storageIjNS2_11boxed_labelINS1_15twa_graph_stateELb0EEEEES8_EEbRKNS_16reverse_iteratorIT_EERKNS9_IT0_EE, symObjAddr: 0x92A0, symBinAddr: 0x10000A1B0, symSize: 0x48 }
  - { offsetInCU: 0x43A8A, offset: 0x43A8A, size: 0x8, addend: 0x0, symName: __ZNSt3__112__to_addressB7v160006INS_16reverse_iteratorIPN4spot8internal15distate_storageIjNS3_11boxed_labelINS2_15twa_graph_stateELb0EEEEEEEvEENS_5decayIDTclsr19__to_address_helperIT_EE6__callclsr3stdE7declvalIRKSC_EEEEE4typeESE_, symObjAddr: 0x931C, symBinAddr: 0x10000A22C, symSize: 0x24 }
  - { offsetInCU: 0x43AE9, offset: 0x43AE9, size: 0x8, addend: 0x0, symName: __ZNSt3__119__allocator_destroyB7v160006INS_9allocatorIN4spot8internal15distate_storageIjNS3_11boxed_labelINS2_15twa_graph_stateELb0EEEEEEENS_16reverse_iteratorINSA_IPS8_EEEESD_EEvRT_T0_T1_, symObjAddr: 0x971C, symBinAddr: 0x10000A62C, symSize: 0x70 }
  - { offsetInCU: 0x43B4E, offset: 0x43B4E, size: 0x8, addend: 0x0, symName: __ZNSt3__1neB7v160006INS_16reverse_iteratorIPN4spot8internal15distate_storageIjNS3_11boxed_labelINS2_15twa_graph_stateELb0EEEEEEESA_EEbRKNS1_IT_EERKNS1_IT0_EE, symObjAddr: 0x97C8, symBinAddr: 0x10000A6D8, symSize: 0x60 }
  - { offsetInCU: 0x43B9A, offset: 0x43B9A, size: 0x8, addend: 0x0, symName: __ZNSt3__112__to_addressB7v160006INS_16reverse_iteratorINS1_IPN4spot8internal15distate_storageIjNS3_11boxed_labelINS2_15twa_graph_stateELb0EEEEEEEEEvEENS_5decayIDTclsr19__to_address_helperIT_EE6__callclsr3stdE7declvalIRKSD_EEEEE4typeESF_, symObjAddr: 0x9854, symBinAddr: 0x10000A764, symSize: 0x24 }
  - { offsetInCU: 0x43C2E, offset: 0x43C2E, size: 0x8, addend: 0x0, symName: __ZNSt3__122__make_exception_guardB7v160006INS_6vectorIN4spot8acc_cond8acc_wordENS_9allocatorIS4_EEE16__destroy_vectorEEENS_28__exception_guard_exceptionsIT_EESA_, symObjAddr: 0xA2CC, symBinAddr: 0x10000B1DC, symSize: 0x40 }
  - { offsetInCU: 0x43C64, offset: 0x43C64, size: 0x8, addend: 0x0, symName: __ZNSt3__119__debug_db_insert_cB7v160006INS_6vectorIN4spot8acc_cond8acc_wordENS_9allocatorIS4_EEEEEEvPT_, symObjAddr: 0xA340, symBinAddr: 0x10000B250, symSize: 0x10 }
  - { offsetInCU: 0x43C95, offset: 0x43C95, size: 0x8, addend: 0x0, symName: __ZNSt3__119__allocate_at_leastB7v160006INS_9allocatorIN4spot8acc_cond8acc_wordEEEEENS_19__allocation_resultINS_16allocator_traitsIT_E7pointerEEERS8_m, symObjAddr: 0xA69C, symBinAddr: 0x10000B5AC, symSize: 0x40 }
  - { offsetInCU: 0x43CD8, offset: 0x43CD8, size: 0x8, addend: 0x0, symName: __ZNSt3__112__to_addressB7v160006IN4spot8acc_cond8acc_wordEEEPT_S5_, symObjAddr: 0xA960, symBinAddr: 0x10000B870, symSize: 0x14 }
  - { offsetInCU: 0x43D0D, offset: 0x43D0D, size: 0x8, addend: 0x0, symName: __ZNSt3__130__uninitialized_allocator_copyB7v160006INS_9allocatorIN4spot8acc_cond8acc_wordEEEPS4_S6_S6_EET2_RT_T0_T1_S7_, symObjAddr: 0xAA10, symBinAddr: 0x10000B920, symSize: 0xF4 }
  - { offsetInCU: 0x43DAB, offset: 0x43DAB, size: 0x8, addend: 0x0, symName: __ZNSt3__122__make_exception_guardB7v160006INS_29_AllocatorDestroyRangeReverseINS_9allocatorIN4spot8acc_cond8acc_wordEEEPS5_EEEENS_28__exception_guard_exceptionsIT_EESA_, symObjAddr: 0xAB74, symBinAddr: 0x10000BA84, symSize: 0x4C }
  - { offsetInCU: 0x43DE1, offset: 0x43DE1, size: 0x8, addend: 0x0, symName: __ZNSt3__119__allocator_destroyB7v160006INS_9allocatorIN4spot8acc_cond8acc_wordEEENS_16reverse_iteratorIPS4_EES8_EEvRT_T0_T1_, symObjAddr: 0xADFC, symBinAddr: 0x10000BD0C, symSize: 0x70 }
  - { offsetInCU: 0x43E44, offset: 0x43E44, size: 0x8, addend: 0x0, symName: __ZNSt3__1neB7v160006IPN4spot8acc_cond8acc_wordES4_EEbRKNS_16reverse_iteratorIT_EERKNS5_IT0_EE, symObjAddr: 0xAEA0, symBinAddr: 0x10000BDB0, symSize: 0x48 }
  - { offsetInCU: 0x43E90, offset: 0x43E90, size: 0x8, addend: 0x0, symName: __ZNSt3__112__to_addressB7v160006INS_16reverse_iteratorIPN4spot8acc_cond8acc_wordEEEvEENS_5decayIDTclsr19__to_address_helperIT_EE6__callclsr3stdE7declvalIRKS8_EEEEE4typeESA_, symObjAddr: 0xAF14, symBinAddr: 0x10000BE24, symSize: 0x24 }
  - { offsetInCU: 0x43EF0, offset: 0x43EF0, size: 0x8, addend: 0x0, symName: __ZNSt3__118__debug_db_erase_cB7v160006INS_6vectorIN4spot8acc_cond8acc_wordENS_9allocatorIS4_EEEEEEvPT_, symObjAddr: 0xB1F4, symBinAddr: 0x10000C104, symSize: 0x10 }
  - { offsetInCU: 0x43F21, offset: 0x43F21, size: 0x8, addend: 0x0, symName: __ZNSt3__111make_sharedB7v160006IN4spot9twa_graphEJRKNS_10shared_ptrINS1_8bdd_dictEEEEvEENS3_IT_EEDpOT0_, symObjAddr: 0xB878, symBinAddr: 0x10000C788, symSize: 0x40 }
  - { offsetInCU: 0x43F64, offset: 0x43F64, size: 0x8, addend: 0x0, symName: __ZNSt3__115allocate_sharedB7v160006IN4spot9twa_graphENS_9allocatorIS2_EEJRKNS_10shared_ptrINS1_8bdd_dictEEEEvEENS5_IT_EERKT0_DpOT1_, symObjAddr: 0xB8B8, symBinAddr: 0x10000C7C8, symSize: 0x98 }
  - { offsetInCU: 0x44273, offset: 0x44273, size: 0x8, addend: 0x0, symName: __ZNSt3__119__debug_db_insert_cB7v160006INS_6vectorIN4spot8internal15distate_storageIjNS3_11boxed_labelINS2_15twa_graph_stateELb0EEEEENS_9allocatorIS8_EEEEEEvPT_, symObjAddr: 0xC7B0, symBinAddr: 0x10000D6C0, symSize: 0x10 }
  - { offsetInCU: 0x442A5, offset: 0x442A5, size: 0x8, addend: 0x0, symName: __ZNSt3__119__debug_db_insert_cB7v160006INS_6vectorIN4spot8internal12edge_storageIjjjNS3_11boxed_labelINS2_19twa_graph_edge_dataELb0EEEEENS_9allocatorIS8_EEEEEEvPT_, symObjAddr: 0xC900, symBinAddr: 0x10000D810, symSize: 0x10 }
  - { offsetInCU: 0x442D7, offset: 0x442D7, size: 0x8, addend: 0x0, symName: __ZNSt3__118__debug_db_erase_cB7v160006INS_6vectorIN4spot8internal12edge_storageIjjjNS3_11boxed_labelINS2_19twa_graph_edge_dataELb0EEEEENS_9allocatorIS8_EEEEEEvPT_, symObjAddr: 0xD198, symBinAddr: 0x10000E0A8, symSize: 0x10 }
  - { offsetInCU: 0x44309, offset: 0x44309, size: 0x8, addend: 0x0, symName: __ZNSt3__118__debug_db_erase_cB7v160006INS_6vectorIN4spot8internal15distate_storageIjNS3_11boxed_labelINS2_15twa_graph_stateELb0EEEEENS_9allocatorIS8_EEEEEEvPT_, symObjAddr: 0xD304, symBinAddr: 0x10000E214, symSize: 0x10 }
  - { offsetInCU: 0x44391, offset: 0x44391, size: 0x8, addend: 0x0, symName: __ZNSt3__121__libcpp_relaxed_loadB7v160006IlEET_PKS1_, symObjAddr: 0xDDC8, symBinAddr: 0x10000ECD8, symSize: 0x20 }
  - { offsetInCU: 0x443C6, offset: 0x443C6, size: 0x8, addend: 0x0, symName: __ZNSt3__134__libcpp_atomic_refcount_incrementB7v160006IlEET_RS1_, symObjAddr: 0xDEA4, symBinAddr: 0x10000EDB4, symSize: 0x30 }
  - { offsetInCU: 0x4441F, offset: 0x4441F, size: 0x8, addend: 0x0, symName: __ZNSt3__14swapB7v160006IPN4spot3twaEEENS_9enable_ifIXaasr21is_move_constructibleIT_EE5valuesr18is_move_assignableIS5_EE5valueEvE4typeERS5_S8_, symObjAddr: 0xE01C, symBinAddr: 0x10000EF2C, symSize: 0x3C }
  - { offsetInCU: 0x44471, offset: 0x44471, size: 0x8, addend: 0x0, symName: __ZNSt3__14swapB7v160006IPNS_19__shared_weak_countEEENS_9enable_ifIXaasr21is_move_constructibleIT_EE5valuesr18is_move_assignableIS4_EE5valueEvE4typeERS4_S7_, symObjAddr: 0xE058, symBinAddr: 0x10000EF68, symSize: 0x3C }
  - { offsetInCU: 0x444C3, offset: 0x444C3, size: 0x8, addend: 0x0, symName: __ZNSt3__134__libcpp_atomic_refcount_decrementB7v160006IlEET_RS1_, symObjAddr: 0xE1F4, symBinAddr: 0x10000F104, symSize: 0x30 }
  - { offsetInCU: 0x444F8, offset: 0x444F8, size: 0x8, addend: 0x0, symName: __ZNSt3__1neB7v160006IPKN4spot7formulaEEEbRKNS_11__wrap_iterIT_EES9_, symObjAddr: 0xE3B4, symBinAddr: 0x10000F2C4, symSize: 0x34 }
  - { offsetInCU: 0x4453B, offset: 0x4453B, size: 0x8, addend: 0x0, symName: __ZNSt3__1eqB7v160006IPKN4spot7formulaEEEbRKNS_11__wrap_iterIT_EES9_, symObjAddr: 0xE614, symBinAddr: 0x10000F524, symSize: 0x48 }
  - { offsetInCU: 0x4457E, offset: 0x4457E, size: 0x8, addend: 0x0, symName: __ZNSt3__112__to_addressB7v160006IN4spot7formulaEEEPT_S4_, symObjAddr: 0xE9C0, symBinAddr: 0x10000F8D0, symSize: 0x14 }
  - { offsetInCU: 0x445B3, offset: 0x445B3, size: 0x8, addend: 0x0, symName: __ZNSt3__119__allocate_at_leastB7v160006INS_9allocatorIN4spot7formulaEEEEENS_19__allocation_resultINS_16allocator_traitsIT_E7pointerEEERS7_m, symObjAddr: 0xEFF4, symBinAddr: 0x10000FF04, symSize: 0x40 }
  - { offsetInCU: 0x445F6, offset: 0x445F6, size: 0x8, addend: 0x0, symName: __ZNSt3__142__uninitialized_allocator_move_if_noexceptB7v160006INS_9allocatorIN4spot7formulaEEENS_16reverse_iteratorIPS3_EES7_S7_EET2_RT_T0_T1_S8_, symObjAddr: 0xF27C, symBinAddr: 0x10001018C, symSize: 0x12C }
  - { offsetInCU: 0x44696, offset: 0x44696, size: 0x8, addend: 0x0, symName: __ZNSt3__14swapB7v160006IPN4spot7formulaEEENS_9enable_ifIXaasr21is_move_constructibleIT_EE5valuesr18is_move_assignableIS5_EE5valueEvE4typeERS5_S8_, symObjAddr: 0xF3F4, symBinAddr: 0x100010304, symSize: 0x3C }
  - { offsetInCU: 0x446E9, offset: 0x446E9, size: 0x8, addend: 0x0, symName: __ZNSt3__125__debug_db_invalidate_allB7v160006INS_6vectorIN4spot7formulaENS_9allocatorIS3_EEEEEEvPT_, symObjAddr: 0xF4DC, symBinAddr: 0x1000103EC, symSize: 0x10 }
  - { offsetInCU: 0x4471A, offset: 0x4471A, size: 0x8, addend: 0x0, symName: __ZNSt3__122__make_exception_guardB7v160006INS_29_AllocatorDestroyRangeReverseINS_9allocatorIN4spot7formulaEEENS_16reverse_iteratorIPS4_EEEEEENS_28__exception_guard_exceptionsIT_EESB_, symObjAddr: 0xF534, symBinAddr: 0x100010444, symSize: 0x4C }
  - { offsetInCU: 0x44750, offset: 0x44750, size: 0x8, addend: 0x0, symName: __ZNSt3__1neB7v160006IPN4spot7formulaES3_EEbRKNS_16reverse_iteratorIT_EERKNS4_IT0_EE, symObjAddr: 0xF5C4, symBinAddr: 0x1000104D4, symSize: 0x48 }
  - { offsetInCU: 0x4479C, offset: 0x4479C, size: 0x8, addend: 0x0, symName: __ZNSt3__112__to_addressB7v160006INS_16reverse_iteratorIPN4spot7formulaEEEvEENS_5decayIDTclsr19__to_address_helperIT_EE6__callclsr3stdE7declvalIRKS7_EEEEE4typeES9_, symObjAddr: 0xF640, symBinAddr: 0x100010550, symSize: 0x24 }
  - { offsetInCU: 0x447FB, offset: 0x447FB, size: 0x8, addend: 0x0, symName: __ZNSt3__119__allocator_destroyB7v160006INS_9allocatorIN4spot7formulaEEENS_16reverse_iteratorINS5_IPS3_EEEES8_EEvRT_T0_T1_, symObjAddr: 0xF980, symBinAddr: 0x100010890, symSize: 0x70 }
  - { offsetInCU: 0x44860, offset: 0x44860, size: 0x8, addend: 0x0, symName: __ZNSt3__1neB7v160006INS_16reverse_iteratorIPN4spot7formulaEEES5_EEbRKNS1_IT_EERKNS1_IT0_EE, symObjAddr: 0xFA2C, symBinAddr: 0x10001093C, symSize: 0x60 }
  - { offsetInCU: 0x448AC, offset: 0x448AC, size: 0x8, addend: 0x0, symName: __ZNSt3__112__to_addressB7v160006INS_16reverse_iteratorINS1_IPN4spot7formulaEEEEEvEENS_5decayIDTclsr19__to_address_helperIT_EE6__callclsr3stdE7declvalIRKS8_EEEEE4typeESA_, symObjAddr: 0xFAB8, symBinAddr: 0x1000109C8, symSize: 0x24 }
  - { offsetInCU: 0x4490B, offset: 0x4490B, size: 0x8, addend: 0x0, symName: __ZNSt3__142__uninitialized_allocator_move_if_noexceptB7v160006INS_9allocatorIN4spot8acc_cond8acc_wordEEENS_16reverse_iteratorIPS4_EES8_S4_vEET1_RT_T0_SC_S9_, symObjAddr: 0x10B44, symBinAddr: 0x100011A54, symSize: 0x78 }
  - { offsetInCU: 0x44988, offset: 0x44988, size: 0x8, addend: 0x0, symName: __ZNSt3__14swapB7v160006IPN4spot8acc_cond8acc_wordEEENS_9enable_ifIXaasr21is_move_constructibleIT_EE5valuesr18is_move_assignableIS6_EE5valueEvE4typeERS6_S9_, symObjAddr: 0x10BBC, symBinAddr: 0x100011ACC, symSize: 0x3C }
  - { offsetInCU: 0x449DB, offset: 0x449DB, size: 0x8, addend: 0x0, symName: __ZNSt3__125__debug_db_invalidate_allB7v160006INS_6vectorIN4spot8acc_cond8acc_wordENS_9allocatorIS4_EEEEEEvPT_, symObjAddr: 0x10BF8, symBinAddr: 0x100011B08, symSize: 0x10 }
  - { offsetInCU: 0x44A0C, offset: 0x44A0C, size: 0x8, addend: 0x0, symName: __ZNSt3__14moveB7v160006INS_16reverse_iteratorIPN4spot8acc_cond8acc_wordEEES6_EET0_T_S8_S7_, symObjAddr: 0x10C08, symBinAddr: 0x100011B18, symSize: 0x78 }
  - { offsetInCU: 0x44A66, offset: 0x44A66, size: 0x8, addend: 0x0, symName: __ZNSt3__16__moveB7v160006INS_17_ClassicAlgPolicyENS_16reverse_iteratorIPN4spot8acc_cond8acc_wordEEES7_S7_EENS_4pairIT0_T2_EES9_T1_SA_, symObjAddr: 0x10C80, symBinAddr: 0x100011B90, symSize: 0x64 }
  - { offsetInCU: 0x44AD2, offset: 0x44AD2, size: 0x8, addend: 0x0, symName: __ZNSt3__123__dispatch_copy_or_moveB7v160006INS_17_ClassicAlgPolicyENS_11__move_loopIS1_EENS_14__move_trivialENS_16reverse_iteratorIPN4spot8acc_cond8acc_wordEEESA_SA_EENS_4pairIT2_T4_EESC_T3_SD_, symObjAddr: 0x10CE4, symBinAddr: 0x100011BF4, symSize: 0x64 }
  - { offsetInCU: 0x44B50, offset: 0x44B50, size: 0x8, addend: 0x0, symName: __ZNSt3__121__unwrap_and_dispatchB7v160006INS_10__overloadINS_11__move_loopINS_17_ClassicAlgPolicyEEENS_14__move_trivialEEENS_16reverse_iteratorIPN4spot8acc_cond8acc_wordEEESC_SC_Li0EEENS_4pairIT0_T2_EESE_T1_SF_, symObjAddr: 0x10D48, symBinAddr: 0x100011C58, symSize: 0x12C }
  - { offsetInCU: 0x44BE2, offset: 0x44BE2, size: 0x8, addend: 0x0, symName: __ZNSt3__114__unwrap_rangeB7v160006INS_16reverse_iteratorIPN4spot8acc_cond8acc_wordEEES6_EENS_4pairIT0_S8_EET_SA_, symObjAddr: 0x10E74, symBinAddr: 0x100011D84, symSize: 0x84 }
  - { offsetInCU: 0x44D9C, offset: 0x44D9C, size: 0x8, addend: 0x0, symName: __ZNSt3__113__unwrap_iterB7v160006INS_16reverse_iteratorIPN4spot8acc_cond8acc_wordEEENS_18__unwrap_iter_implIS6_Lb0EEELi0EEEDTclsrT0_8__unwrapclsr3stdE7declvalIT_EEEESA_, symObjAddr: 0x10F98, symBinAddr: 0x100011EA8, symSize: 0x44 }
  - { offsetInCU: 0x44DE0, offset: 0x44DE0, size: 0x8, addend: 0x0, symName: __ZNSt3__19make_pairB7v160006INS_16reverse_iteratorIPN4spot8acc_cond8acc_wordEEES6_EENS_4pairINS_18__unwrap_ref_decayIT_E4typeENS8_IT0_E4typeEEEOS9_OSC_, symObjAddr: 0x10FDC, symBinAddr: 0x100011EEC, symSize: 0x38 }
  - { offsetInCU: 0x44E2F, offset: 0x44E2F, size: 0x8, addend: 0x0, symName: __ZNSt3__114__rewrap_rangeB7v160006INS_16reverse_iteratorIPN4spot8acc_cond8acc_wordEEES6_EET_S7_T0_, symObjAddr: 0x11014, symBinAddr: 0x100011F24, symSize: 0x5C }
  - { offsetInCU: 0x44E7B, offset: 0x44E7B, size: 0x8, addend: 0x0, symName: __ZNSt3__113__rewrap_iterB7v160006INS_16reverse_iteratorIPN4spot8acc_cond8acc_wordEEES6_NS_18__unwrap_iter_implIS6_Lb0EEEEET_S9_T0_, symObjAddr: 0x11070, symBinAddr: 0x100011F80, symSize: 0x74 }
  - { offsetInCU: 0x44FB5, offset: 0x44FB5, size: 0x8, addend: 0x0, symName: __ZNSt3__18distanceB7v160006IPN4spot8acc_cond8acc_wordEEENS_15iterator_traitsIT_E15difference_typeES6_S6_, symObjAddr: 0x1174C, symBinAddr: 0x10001265C, symSize: 0x2C }
  - { offsetInCU: 0x44FF8, offset: 0x44FF8, size: 0x8, addend: 0x0, symName: __ZNSt3__14copyB7v160006IPN4spot8acc_cond8acc_wordES4_EET0_T_S6_S5_, symObjAddr: 0x117C8, symBinAddr: 0x1000126D8, symSize: 0x40 }
  - { offsetInCU: 0x45052, offset: 0x45052, size: 0x8, addend: 0x0, symName: __ZNSt3__110__distanceB7v160006IPN4spot8acc_cond8acc_wordEEENS_15iterator_traitsIT_E15difference_typeES6_S6_NS_26random_access_iterator_tagE, symObjAddr: 0x11894, symBinAddr: 0x1000127A4, symSize: 0x28 }
  - { offsetInCU: 0x4509F, offset: 0x4509F, size: 0x8, addend: 0x0, symName: __ZNSt3__121__convert_to_integralB7v160006Em, symObjAddr: 0x118BC, symBinAddr: 0x1000127CC, symSize: 0x14 }
  - { offsetInCU: 0x450CC, offset: 0x450CC, size: 0x8, addend: 0x0, symName: __ZNSt3__19__advanceB7v160006IPN4spot8acc_cond8acc_wordEEEvRT_NS_15iterator_traitsIS5_E15difference_typeENS_26random_access_iterator_tagE, symObjAddr: 0x118D0, symBinAddr: 0x1000127E0, symSize: 0x28 }
  - { offsetInCU: 0x45115, offset: 0x45115, size: 0x8, addend: 0x0, symName: __ZNSt3__16__copyB7v160006INS_17_ClassicAlgPolicyEPN4spot8acc_cond8acc_wordES5_S5_EENS_4pairIT0_T2_EES7_T1_S8_, symObjAddr: 0x118F8, symBinAddr: 0x100012808, symSize: 0x44 }
  - { offsetInCU: 0x45181, offset: 0x45181, size: 0x8, addend: 0x0, symName: __ZNSt3__123__dispatch_copy_or_moveB7v160006INS_17_ClassicAlgPolicyENS_11__copy_loopIS1_EENS_14__copy_trivialEPN4spot8acc_cond8acc_wordES8_S8_EENS_4pairIT2_T4_EESA_T3_SB_, symObjAddr: 0x1193C, symBinAddr: 0x10001284C, symSize: 0x44 }
  - { offsetInCU: 0x451FF, offset: 0x451FF, size: 0x8, addend: 0x0, symName: __ZNSt3__121__unwrap_and_dispatchB7v160006INS_10__overloadINS_11__copy_loopINS_17_ClassicAlgPolicyEEENS_14__copy_trivialEEEPN4spot8acc_cond8acc_wordESA_SA_Li0EEENS_4pairIT0_T2_EESC_T1_SD_, symObjAddr: 0x11980, symBinAddr: 0x100012890, symSize: 0xB4 }
  - { offsetInCU: 0x4528F, offset: 0x4528F, size: 0x8, addend: 0x0, symName: __ZNSt3__114__unwrap_rangeB7v160006IPN4spot8acc_cond8acc_wordES4_EENS_4pairIT0_S6_EET_S8_, symObjAddr: 0x11A34, symBinAddr: 0x100012944, symSize: 0x60 }
  - { offsetInCU: 0x45460, offset: 0x45460, size: 0x8, addend: 0x0, symName: __ZNSt3__113__unwrap_iterB7v160006IPN4spot8acc_cond8acc_wordENS_18__unwrap_iter_implIS4_Lb1EEELi0EEEDTclsrT0_8__unwrapclsr3stdE7declvalIT_EEEES8_, symObjAddr: 0x11ADC, symBinAddr: 0x1000129EC, symSize: 0x24 }
  - { offsetInCU: 0x454A4, offset: 0x454A4, size: 0x8, addend: 0x0, symName: __ZNSt3__19make_pairB7v160006IPN4spot8acc_cond8acc_wordES4_EENS_4pairINS_18__unwrap_ref_decayIT_E4typeENS6_IT0_E4typeEEEOS7_OSA_, symObjAddr: 0x11B00, symBinAddr: 0x100012A10, symSize: 0x38 }
  - { offsetInCU: 0x454F3, offset: 0x454F3, size: 0x8, addend: 0x0, symName: __ZNSt3__114__rewrap_rangeB7v160006IPN4spot8acc_cond8acc_wordES4_EET_S5_T0_, symObjAddr: 0x11B38, symBinAddr: 0x100012A48, symSize: 0x2C }
  - { offsetInCU: 0x4553F, offset: 0x4553F, size: 0x8, addend: 0x0, symName: __ZNSt3__113__rewrap_iterB7v160006IPN4spot8acc_cond8acc_wordES4_NS_18__unwrap_iter_implIS4_Lb1EEEEET_S7_T0_, symObjAddr: 0x11B64, symBinAddr: 0x100012A74, symSize: 0x3C }
  - { offsetInCU: 0x45594, offset: 0x45594, size: 0x8, addend: 0x0, symName: __ZNSt3__119__copy_trivial_implB7v160006IN4spot8acc_cond8acc_wordES3_EENS_4pairIPT_PT0_EES6_S6_S8_, symObjAddr: 0x11BA0, symBinAddr: 0x100012AB0, symSize: 0x84 }
  - { offsetInCU: 0x455FD, offset: 0x455FD, size: 0x8, addend: 0x0, symName: __ZNSt3__19make_pairB7v160006IRPN4spot8acc_cond8acc_wordES4_EENS_4pairINS_18__unwrap_ref_decayIT_E4typeENS7_IT0_E4typeEEEOS8_OSB_, symObjAddr: 0x11C24, symBinAddr: 0x100012B34, symSize: 0x38 }
  - { offsetInCU: 0x4569F, offset: 0x4569F, size: 0x8, addend: 0x0, symName: __ZNSt3__111make_sharedB7v160006IN4spot9twa_graphEJRKNS_10shared_ptrIS2_EERNS1_3twa8prop_setEEvEENS3_IT_EEDpOT0_, symObjAddr: 0x11F34, symBinAddr: 0x100012E44, symSize: 0x48 }
  - { offsetInCU: 0x456F6, offset: 0x456F6, size: 0x8, addend: 0x0, symName: __ZNSt3__115allocate_sharedB7v160006IN4spot9twa_graphENS_9allocatorIS2_EEJRKNS_10shared_ptrIS2_EERNS1_3twa8prop_setEEvEENS5_IT_EERKT0_DpOT1_, symObjAddr: 0x11F7C, symBinAddr: 0x100012E8C, symSize: 0xA0 }
  - { offsetInCU: 0x45783, offset: 0x45783, size: 0x8, addend: 0x0, symName: __ZNSt3__122__make_exception_guardB7v160006INS_6vectorIN4spot8internal15distate_storageIjNS3_11boxed_labelINS2_15twa_graph_stateELb0EEEEENS_9allocatorIS8_EEE16__destroy_vectorEEENS_28__exception_guard_exceptionsIT_EESE_, symObjAddr: 0x129B8, symBinAddr: 0x1000138C8, symSize: 0x40 }
  - { offsetInCU: 0x457B8, offset: 0x457B8, size: 0x8, addend: 0x0, symName: __ZNSt3__130__uninitialized_allocator_copyB7v160006INS_9allocatorIN4spot8internal15distate_storageIjNS3_11boxed_labelINS2_15twa_graph_stateELb0EEEEEEEPS8_SA_SA_EET2_RT_T0_T1_SB_, symObjAddr: 0x12C2C, symBinAddr: 0x100013B3C, symSize: 0xF4 }
  - { offsetInCU: 0x45856, offset: 0x45856, size: 0x8, addend: 0x0, symName: __ZNSt3__122__make_exception_guardB7v160006INS_29_AllocatorDestroyRangeReverseINS_9allocatorIN4spot8internal15distate_storageIjNS4_11boxed_labelINS3_15twa_graph_stateELb0EEEEEEEPS9_EEEENS_28__exception_guard_exceptionsIT_EESE_, symObjAddr: 0x12D20, symBinAddr: 0x100013C30, symSize: 0x4C }
  - { offsetInCU: 0x4588C, offset: 0x4588C, size: 0x8, addend: 0x0, symName: __ZNSt3__119__allocator_destroyB7v160006INS_9allocatorIN4spot8internal15distate_storageIjNS3_11boxed_labelINS2_15twa_graph_stateELb0EEEEEEENS_16reverse_iteratorIPS8_EESC_EEvRT_T0_T1_, symObjAddr: 0x13088, symBinAddr: 0x100013F98, symSize: 0x70 }
  - { offsetInCU: 0x458EF, offset: 0x458EF, size: 0x8, addend: 0x0, symName: __ZNSt3__122__make_exception_guardB7v160006INS_6vectorIN4spot8internal12edge_storageIjjjNS3_11boxed_labelINS2_19twa_graph_edge_dataELb0EEEEENS_9allocatorIS8_EEE16__destroy_vectorEEENS_28__exception_guard_exceptionsIT_EESE_, symObjAddr: 0x132A4, symBinAddr: 0x1000141B4, symSize: 0x40 }
  - { offsetInCU: 0x45924, offset: 0x45924, size: 0x8, addend: 0x0, symName: __ZNSt3__130__uninitialized_allocator_copyB7v160006INS_9allocatorIN4spot8internal12edge_storageIjjjNS3_11boxed_labelINS2_19twa_graph_edge_dataELb0EEEEEEEPS8_SA_SA_EET2_RT_T0_T1_SB_, symObjAddr: 0x13520, symBinAddr: 0x100014430, symSize: 0xF4 }
  - { offsetInCU: 0x459C2, offset: 0x459C2, size: 0x8, addend: 0x0, symName: __ZNSt3__122__make_exception_guardB7v160006INS_29_AllocatorDestroyRangeReverseINS_9allocatorIN4spot8internal12edge_storageIjjjNS4_11boxed_labelINS3_19twa_graph_edge_dataELb0EEEEEEEPS9_EEEENS_28__exception_guard_exceptionsIT_EESE_, symObjAddr: 0x13614, symBinAddr: 0x100014524, symSize: 0x4C }
  - { offsetInCU: 0x459F8, offset: 0x459F8, size: 0x8, addend: 0x0, symName: __ZNSt3__119__allocator_destroyB7v160006INS_9allocatorIN4spot8internal12edge_storageIjjjNS3_11boxed_labelINS2_19twa_graph_edge_dataELb0EEEEEEENS_16reverse_iteratorIPS8_EESC_EEvRT_T0_T1_, symObjAddr: 0x138A4, symBinAddr: 0x1000147B4, symSize: 0x70 }
  - { offsetInCU: 0x45A5B, offset: 0x45A5B, size: 0x8, addend: 0x0, symName: __ZNSt3__122__make_exception_guardB7v160006INS_6vectorIjNS_9allocatorIjEEE16__destroy_vectorEEENS_28__exception_guard_exceptionsIT_EES7_, symObjAddr: 0x13AEC, symBinAddr: 0x1000149FC, symSize: 0x40 }
  - { offsetInCU: 0x45A91, offset: 0x45A91, size: 0x8, addend: 0x0, symName: __ZNSt3__119__debug_db_insert_cB7v160006INS_6vectorIjNS_9allocatorIjEEEEEEvPT_, symObjAddr: 0x13B60, symBinAddr: 0x100014A70, symSize: 0x10 }
  - { offsetInCU: 0x45AC2, offset: 0x45AC2, size: 0x8, addend: 0x0, symName: __ZNSt3__119__allocate_at_leastB7v160006INS_9allocatorIjEEEENS_19__allocation_resultINS_16allocator_traitsIT_E7pointerEEERS5_m, symObjAddr: 0x13EBC, symBinAddr: 0x100014DCC, symSize: 0x40 }
  - { offsetInCU: 0x45B05, offset: 0x45B05, size: 0x8, addend: 0x0, symName: __ZNSt3__130__uninitialized_allocator_copyB7v160006INS_9allocatorIjEEPjS3_S3_EET2_RT_T0_T1_S4_, symObjAddr: 0x141F4, symBinAddr: 0x100015104, symSize: 0xF4 }
  - { offsetInCU: 0x45BA3, offset: 0x45BA3, size: 0x8, addend: 0x0, symName: __ZNSt3__122__make_exception_guardB7v160006INS_29_AllocatorDestroyRangeReverseINS_9allocatorIjEEPjEEEENS_28__exception_guard_exceptionsIT_EES7_, symObjAddr: 0x14358, symBinAddr: 0x100015268, symSize: 0x4C }
  - { offsetInCU: 0x45BD9, offset: 0x45BD9, size: 0x8, addend: 0x0, symName: __ZNSt3__119__allocator_destroyB7v160006INS_9allocatorIjEENS_16reverse_iteratorIPjEES5_EEvRT_T0_T1_, symObjAddr: 0x145E0, symBinAddr: 0x1000154F0, symSize: 0x70 }
  - { offsetInCU: 0x45C3C, offset: 0x45C3C, size: 0x8, addend: 0x0, symName: __ZNSt3__1neB7v160006IPjS1_EEbRKNS_16reverse_iteratorIT_EERKNS2_IT0_EE, symObjAddr: 0x14684, symBinAddr: 0x100015594, symSize: 0x48 }
  - { offsetInCU: 0x45C88, offset: 0x45C88, size: 0x8, addend: 0x0, symName: __ZNSt3__112__to_addressB7v160006INS_16reverse_iteratorIPjEEvEENS_5decayIDTclsr19__to_address_helperIT_EE6__callclsr3stdE7declvalIRKS5_EEEEE4typeES7_, symObjAddr: 0x146F8, symBinAddr: 0x100015608, symSize: 0x24 }
  - { offsetInCU: 0x45CE8, offset: 0x45CE8, size: 0x8, addend: 0x0, symName: __ZNSt3__118__debug_db_erase_cB7v160006INS_6vectorIjNS_9allocatorIjEEEEEEvPT_, symObjAddr: 0x149D8, symBinAddr: 0x1000158E8, symSize: 0x10 }
  - { offsetInCU: 0x45D19, offset: 0x45D19, size: 0x8, addend: 0x0, symName: __ZNSt3__111make_sharedB7v160006IN4spot8twa_wordEJRKNS_10shared_ptrINS1_8bdd_dictEEEEvEENS3_IT_EEDpOT0_, symObjAddr: 0x15728, symBinAddr: 0x100016638, symSize: 0x40 }
  - { offsetInCU: 0x45D5C, offset: 0x45D5C, size: 0x8, addend: 0x0, symName: __ZNSt3__115allocate_sharedB7v160006IN4spot8twa_wordENS_9allocatorIS2_EEJRKNS_10shared_ptrINS1_8bdd_dictEEEEvEENS5_IT_EERKT0_DpOT1_, symObjAddr: 0x15768, symBinAddr: 0x100016678, symSize: 0x98 }
  - { offsetInCU: 0x4609D, offset: 0x4609D, size: 0x8, addend: 0x0, symName: __ZNSt3__1eqB7v160006IPcEEbRKNS_11__wrap_iterIT_EES6_, symObjAddr: 0x160A4, symBinAddr: 0x100016FB4, symSize: 0x48 }
  - { offsetInCU: 0x460E0, offset: 0x460E0, size: 0x8, addend: 0x0, symName: __ZNSt3__1neB7v160006IPjEEbRKNS_11__wrap_iterIT_EES6_, symObjAddr: 0x16458, symBinAddr: 0x100017368, symSize: 0x34 }
  - { offsetInCU: 0x46123, offset: 0x46123, size: 0x8, addend: 0x0, symName: __ZNSt3__1eqB7v160006IPjEEbRKNS_11__wrap_iterIT_EES6_, symObjAddr: 0x164AC, symBinAddr: 0x1000173BC, symSize: 0x48 }
  - { offsetInCU: 0x46167, offset: 0x46167, size: 0x8, addend: 0x0, symName: __ZNSt3__118__debug_db_erase_cB7v160006INS_10__list_impI3bddNS_9allocatorIS2_EEEEEEvPT_, symObjAddr: 0x16698, symBinAddr: 0x1000175A8, symSize: 0x10 }
  - { offsetInCU: 0x46199, offset: 0x46199, size: 0x8, addend: 0x0, symName: __ZNSt3__125__debug_db_invalidate_allB7v160006INS_10__list_impI3bddNS_9allocatorIS2_EEEEEEvPT_, symObjAddr: 0x1682C, symBinAddr: 0x10001773C, symSize: 0x10 }
  - { offsetInCU: 0x461FD, offset: 0x461FD, size: 0x8, addend: 0x0, symName: __ZNSt3__111make_sharedB7v160006IN4spot8bdd_dictEJEvEENS_10shared_ptrIT_EEDpOT0_, symObjAddr: 0x16A68, symBinAddr: 0x100017978, symSize: 0x38 }
  - { offsetInCU: 0x4622B, offset: 0x4622B, size: 0x8, addend: 0x0, symName: __ZNSt3__115allocate_sharedB7v160006IN4spot8bdd_dictENS_9allocatorIS2_EEJEvEENS_10shared_ptrIT_EERKT0_DpOT1_, symObjAddr: 0x16AA0, symBinAddr: 0x1000179B0, symSize: 0x90 }
  - { offsetInCU: 0x46557, offset: 0x46557, size: 0x8, addend: 0x0, symName: __ZNSt3__112__to_addressB7v160006IKcEEPT_S3_, symObjAddr: 0x175B4, symBinAddr: 0x1000184C4, symSize: 0x14 }
  - { offsetInCU: 0x465C0, offset: 0x465C0, size: 0x8, addend: 0x0, symName: __ZNSt3__120__throw_out_of_rangeB7v160006EPKc, symObjAddr: 0x17924, symBinAddr: 0x100018834, symSize: 0x64 }
  - { offsetInCU: 0x4661D, offset: 0x4661D, size: 0x8, addend: 0x0, symName: __ZNSt3__17launderB7v160006IKNS_4pairIKN4spot7formulaEiEEEEPT_S8_, symObjAddr: 0x17D78, symBinAddr: 0x100018C88, symSize: 0x24 }
  - { offsetInCU: 0x46654, offset: 0x46654, size: 0x8, addend: 0x0, symName: __ZNSt3__19__launderB7v160006IKNS_4pairIKN4spot7formulaEiEEEEPT_S8_, symObjAddr: 0x17D9C, symBinAddr: 0x100018CAC, symSize: 0x14 }
  - { offsetInCU: 0x4668B, offset: 0x4668B, size: 0x8, addend: 0x0, symName: __ZNSt3__17launderB7v160006INS_4pairIKN4spot7formulaEiEEEEPT_S7_, symObjAddr: 0x17E68, symBinAddr: 0x100018D78, symSize: 0x24 }
  - { offsetInCU: 0x466C2, offset: 0x466C2, size: 0x8, addend: 0x0, symName: __ZNSt3__19__launderB7v160006INS_4pairIKN4spot7formulaEiEEEEPT_S7_, symObjAddr: 0x17E8C, symBinAddr: 0x100018D9C, symSize: 0x14 }
  - { offsetInCU: 0x466F9, offset: 0x466F9, size: 0x8, addend: 0x0, symName: __ZNSt3__116__pad_and_outputB7v160006IcNS_11char_traitsIcEEEENS_19ostreambuf_iteratorIT_T0_EES6_PKS4_S8_S8_RNS_8ios_baseES4_, symObjAddr: 0x18130, symBinAddr: 0x100019040, symSize: 0x240 }
  - { offsetInCU: 0x467CA, offset: 0x467CA, size: 0x8, addend: 0x0, symName: __ZNSt3__119__debug_db_insert_cB7v160006INS_12basic_stringIcNS_11char_traitsIcEENS_9allocatorIcEEEEEEvPT_, symObjAddr: 0x185E4, symBinAddr: 0x1000194F4, symSize: 0x10 }
  - { offsetInCU: 0x467FB, offset: 0x467FB, size: 0x8, addend: 0x0, symName: __ZNSt3__112__to_addressB7v160006IcEEPT_S2_, symObjAddr: 0x186B0, symBinAddr: 0x1000195C0, symSize: 0x14 }
  - { offsetInCU: 0x46863, offset: 0x46863, size: 0x8, addend: 0x0, symName: __ZNSt3__19use_facetB7v160006INS_5ctypeIcEEEERKT_RKNS_6localeE, symObjAddr: 0x188F8, symBinAddr: 0x100019808, symSize: 0x2C }
  - { offsetInCU: 0x46D32, offset: 0x46D32, size: 0x8, addend: 0x0, symName: __ZNSt3__118__constexpr_strlenB7v160006EPKc, symObjAddr: 0x18990, symBinAddr: 0x1000198A0, symSize: 0x24 }
  - { offsetInCU: 0x46D5E, offset: 0x46D5E, size: 0x8, addend: 0x0, symName: __ZNSt3__116forward_as_tupleB7v160006IJRK4PairEEENS_5tupleIJDpOT_EEES7_, symObjAddr: 0x1A328, symBinAddr: 0x10001B238, symSize: 0x2C }
  - { offsetInCU: 0x46D97, offset: 0x46D97, size: 0x8, addend: 0x0, symName: __ZNSt3__116forward_as_tupleB7v160006IJEEENS_5tupleIJDpOT_EEES4_, symObjAddr: 0x1A354, symBinAddr: 0x10001B264, symSize: 0x4 }
  - { offsetInCU: 0x46E7D, offset: 0x46E7D, size: 0x8, addend: 0x0, symName: __ZNSt3__13getB7v160006ILm0EJRK4PairEEERNS_13tuple_elementIXT_ENS_5tupleIJDpT0_EEEE4typeERS8_, symObjAddr: 0x1A70C, symBinAddr: 0x10001B61C, symSize: 0x24 }
  - { offsetInCU: 0x46FEB, offset: 0x46FEB, size: 0x8, addend: 0x0, symName: __ZNSt3__1eqB7v160006IN5boost9unordered6detail4nodeINS_4pairIK4PairjEEPvEESA_EEbRKNS_9allocatorIT_EERKNSB_IT0_EE, symObjAddr: 0x1BEE0, symBinAddr: 0x10001CDF0, symSize: 0x1C }
  - { offsetInCU: 0x47032, offset: 0x47032, size: 0x8, addend: 0x0, symName: __ZNSt3__116forward_as_tupleB7v160006IJ4PairEEENS_5tupleIJDpOT_EEES5_, symObjAddr: 0x1D100, symBinAddr: 0x10001E010, symSize: 0x2C }
  - { offsetInCU: 0x4706B, offset: 0x4706B, size: 0x8, addend: 0x0, symName: __ZNSt3__13getB7v160006ILm0EJO4PairEEERNS_13tuple_elementIXT_ENS_5tupleIJDpT0_EEEE4typeERS7_, symObjAddr: 0x1D230, symBinAddr: 0x10001E140, symSize: 0x24 }
  - { offsetInCU: 0x47728, offset: 0x47728, size: 0x8, addend: 0x0, symName: '__ZNSt3__116forward_as_tupleB7v160006IJZ15kcobuchi_expandNS_10shared_ptrIN4spot9twa_graphEEEjbE3$_0EEENS_5tupleIJDpOT_EEES9_', symObjAddr: 0x1DE88, symBinAddr: 0x10001ED98, symSize: 0x2C }
  - { offsetInCU: 0x47762, offset: 0x47762, size: 0x8, addend: 0x0, symName: '__ZNSt3__116forward_as_tupleB7v160006IJNS_9allocatorIZ15kcobuchi_expandNS_10shared_ptrIN4spot9twa_graphEEEjbE3$_0EEEEENS_5tupleIJDpOT_EEESB_', symObjAddr: 0x1DEB4, symBinAddr: 0x10001EDC4, symSize: 0x2C }
  - { offsetInCU: 0x477C6, offset: 0x477C6, size: 0x8, addend: 0x0, symName: '__ZNSt3__13getB7v160006ILm0EJOZ15kcobuchi_expandNS_10shared_ptrIN4spot9twa_graphEEEjbE3$_0EEERNS_13tuple_elementIXT_ENS_5tupleIJDpT0_EEEE4typeERSB_', symObjAddr: 0x1E1D0, symBinAddr: 0x10001F0E0, symSize: 0x24 }
  - { offsetInCU: 0x47809, offset: 0x47809, size: 0x8, addend: 0x0, symName: '__ZNSt3__13getB7v160006ILm0EJONS_9allocatorIZ15kcobuchi_expandNS_10shared_ptrIN4spot9twa_graphEEEjbE3$_0EEEEERNS_13tuple_elementIXT_ENS_5tupleIJDpT0_EEEE4typeERSD_', symObjAddr: 0x1E20C, symBinAddr: 0x10001F11C, symSize: 0x24 }
  - { offsetInCU: 0x479E4, offset: 0x479E4, size: 0x8, addend: 0x0, symName: '__ZNSt3__116forward_as_tupleB7v160006IJRKZ15kcobuchi_expandNS_10shared_ptrIN4spot9twa_graphEEEjbE3$_0EEENS_5tupleIJDpOT_EEESB_', symObjAddr: 0x1E608, symBinAddr: 0x10001F518, symSize: 0x2C }
  - { offsetInCU: 0x47A33, offset: 0x47A33, size: 0x8, addend: 0x0, symName: '__ZNSt3__13getB7v160006ILm0EJRKZ15kcobuchi_expandNS_10shared_ptrIN4spot9twa_graphEEEjbE3$_0EEERNS_13tuple_elementIXT_ENS_5tupleIJDpT0_EEEE4typeERSC_', symObjAddr: 0x1E7FC, symBinAddr: 0x10001F70C, symSize: 0x24 }
  - { offsetInCU: 0x47A76, offset: 0x47A76, size: 0x8, addend: 0x0, symName: '__ZNSt3__116forward_as_tupleB7v160006IJRKNS_9allocatorIZ15kcobuchi_expandNS_10shared_ptrIN4spot9twa_graphEEEjbE3$_0EEEEENS_5tupleIJDpOT_EEESD_', symObjAddr: 0x1EB5C, symBinAddr: 0x10001FA6C, symSize: 0x2C }
  - { offsetInCU: 0x47AC5, offset: 0x47AC5, size: 0x8, addend: 0x0, symName: '__ZNSt3__13getB7v160006ILm0EJRKNS_9allocatorIZ15kcobuchi_expandNS_10shared_ptrIN4spot9twa_graphEEEjbE3$_0EEEEERNS_13tuple_elementIXT_ENS_5tupleIJDpT0_EEEE4typeERSE_', symObjAddr: 0x1ED40, symBinAddr: 0x10001FC50, symSize: 0x24 }
  - { offsetInCU: 0x47B44, offset: 0x47B44, size: 0x8, addend: 0x0, symName: '__ZNSt3__18__invokeB7v160006IRZ15kcobuchi_expandNS_10shared_ptrIN4spot9twa_graphEEEjbE3$_0JEEEDTclclsr3stdE7declvalIT_EEspclsr3stdE7declvalIT0_EEEEOS7_DpOS8_', symObjAddr: 0x1EDFC, symBinAddr: 0x10001FD0C, symSize: 0x24 }
  - { offsetInCU: 0x47B80, offset: 0x47B80, size: 0x8, addend: 0x0, symName: __ZNSt3__142__uninitialized_allocator_move_if_noexceptB7v160006INS_9allocatorIjEENS_16reverse_iteratorIPjEES5_jvEET1_RT_T0_S9_S6_, symObjAddr: 0x1F934, symBinAddr: 0x100020844, symSize: 0x78 }
  - { offsetInCU: 0x47BFD, offset: 0x47BFD, size: 0x8, addend: 0x0, symName: __ZNSt3__14swapB7v160006IPjEENS_9enable_ifIXaasr21is_move_constructibleIT_EE5valuesr18is_move_assignableIS3_EE5valueEvE4typeERS3_S6_, symObjAddr: 0x1F9AC, symBinAddr: 0x1000208BC, symSize: 0x3C }
  - { offsetInCU: 0x47C50, offset: 0x47C50, size: 0x8, addend: 0x0, symName: __ZNSt3__125__debug_db_invalidate_allB7v160006INS_6vectorIjNS_9allocatorIjEEEEEEvPT_, symObjAddr: 0x1F9E8, symBinAddr: 0x1000208F8, symSize: 0x10 }
  - { offsetInCU: 0x47C81, offset: 0x47C81, size: 0x8, addend: 0x0, symName: __ZNSt3__14moveB7v160006INS_16reverse_iteratorIPjEES3_EET0_T_S5_S4_, symObjAddr: 0x1F9F8, symBinAddr: 0x100020908, symSize: 0x78 }
  - { offsetInCU: 0x47CDB, offset: 0x47CDB, size: 0x8, addend: 0x0, symName: __ZNSt3__16__moveB7v160006INS_17_ClassicAlgPolicyENS_16reverse_iteratorIPjEES4_S4_EENS_4pairIT0_T2_EES6_T1_S7_, symObjAddr: 0x1FA70, symBinAddr: 0x100020980, symSize: 0x64 }
  - { offsetInCU: 0x47D47, offset: 0x47D47, size: 0x8, addend: 0x0, symName: __ZNSt3__123__dispatch_copy_or_moveB7v160006INS_17_ClassicAlgPolicyENS_11__move_loopIS1_EENS_14__move_trivialENS_16reverse_iteratorIPjEES7_S7_EENS_4pairIT2_T4_EES9_T3_SA_, symObjAddr: 0x1FAD4, symBinAddr: 0x1000209E4, symSize: 0x64 }
  - { offsetInCU: 0x47DC5, offset: 0x47DC5, size: 0x8, addend: 0x0, symName: __ZNSt3__121__unwrap_and_dispatchB7v160006INS_10__overloadINS_11__move_loopINS_17_ClassicAlgPolicyEEENS_14__move_trivialEEENS_16reverse_iteratorIPjEES9_S9_Li0EEENS_4pairIT0_T2_EESB_T1_SC_, symObjAddr: 0x1FB38, symBinAddr: 0x100020A48, symSize: 0x12C }
  - { offsetInCU: 0x47E57, offset: 0x47E57, size: 0x8, addend: 0x0, symName: __ZNSt3__114__unwrap_rangeB7v160006INS_16reverse_iteratorIPjEES3_EENS_4pairIT0_S5_EET_S7_, symObjAddr: 0x1FC64, symBinAddr: 0x100020B74, symSize: 0x84 }
  - { offsetInCU: 0x47F77, offset: 0x47F77, size: 0x8, addend: 0x0, symName: __ZNSt3__113__unwrap_iterB7v160006INS_16reverse_iteratorIPjEENS_18__unwrap_iter_implIS3_Lb0EEELi0EEEDTclsrT0_8__unwrapclsr3stdE7declvalIT_EEEES7_, symObjAddr: 0x1FD88, symBinAddr: 0x100020C98, symSize: 0x44 }
  - { offsetInCU: 0x47FBB, offset: 0x47FBB, size: 0x8, addend: 0x0, symName: __ZNSt3__19make_pairB7v160006INS_16reverse_iteratorIPjEES3_EENS_4pairINS_18__unwrap_ref_decayIT_E4typeENS5_IT0_E4typeEEEOS6_OS9_, symObjAddr: 0x1FDCC, symBinAddr: 0x100020CDC, symSize: 0x38 }
  - { offsetInCU: 0x4800A, offset: 0x4800A, size: 0x8, addend: 0x0, symName: __ZNSt3__114__rewrap_rangeB7v160006INS_16reverse_iteratorIPjEES3_EET_S4_T0_, symObjAddr: 0x1FE04, symBinAddr: 0x100020D14, symSize: 0x5C }
  - { offsetInCU: 0x48056, offset: 0x48056, size: 0x8, addend: 0x0, symName: __ZNSt3__113__rewrap_iterB7v160006INS_16reverse_iteratorIPjEES3_NS_18__unwrap_iter_implIS3_Lb0EEEEET_S6_T0_, symObjAddr: 0x1FE60, symBinAddr: 0x100020D70, symSize: 0x74 }
  - { offsetInCU: 0x48118, offset: 0x48118, size: 0x8, addend: 0x0, symName: __ZNSt3__125__throw_bad_function_callB7v160006Ev, symObjAddr: 0x20214, symBinAddr: 0x100021124, symSize: 0x38 }
  - { offsetInCU: 0x487CD, offset: 0x487CD, size: 0x8, addend: 0x0, symName: '__ZNSt3__116forward_as_tupleB7v160006IJZ15kcobuchi_expandNS_10shared_ptrIN4spot9twa_graphEEEjbE3$_1EEENS_5tupleIJDpOT_EEES9_', symObjAddr: 0x20DDC, symBinAddr: 0x100021CEC, symSize: 0x2C }
  - { offsetInCU: 0x48807, offset: 0x48807, size: 0x8, addend: 0x0, symName: '__ZNSt3__116forward_as_tupleB7v160006IJNS_9allocatorIZ15kcobuchi_expandNS_10shared_ptrIN4spot9twa_graphEEEjbE3$_1EEEEENS_5tupleIJDpOT_EEESB_', symObjAddr: 0x20E08, symBinAddr: 0x100021D18, symSize: 0x2C }
  - { offsetInCU: 0x4886B, offset: 0x4886B, size: 0x8, addend: 0x0, symName: '__ZNSt3__13getB7v160006ILm0EJOZ15kcobuchi_expandNS_10shared_ptrIN4spot9twa_graphEEEjbE3$_1EEERNS_13tuple_elementIXT_ENS_5tupleIJDpT0_EEEE4typeERSB_', symObjAddr: 0x21124, symBinAddr: 0x100022034, symSize: 0x24 }
  - { offsetInCU: 0x488AE, offset: 0x488AE, size: 0x8, addend: 0x0, symName: '__ZNSt3__13getB7v160006ILm0EJONS_9allocatorIZ15kcobuchi_expandNS_10shared_ptrIN4spot9twa_graphEEEjbE3$_1EEEEERNS_13tuple_elementIXT_ENS_5tupleIJDpT0_EEEE4typeERSD_', symObjAddr: 0x21160, symBinAddr: 0x100022070, symSize: 0x24 }
  - { offsetInCU: 0x48A89, offset: 0x48A89, size: 0x8, addend: 0x0, symName: '__ZNSt3__116forward_as_tupleB7v160006IJRKZ15kcobuchi_expandNS_10shared_ptrIN4spot9twa_graphEEEjbE3$_1EEENS_5tupleIJDpOT_EEESB_', symObjAddr: 0x2155C, symBinAddr: 0x10002246C, symSize: 0x2C }
  - { offsetInCU: 0x48AD8, offset: 0x48AD8, size: 0x8, addend: 0x0, symName: '__ZNSt3__13getB7v160006ILm0EJRKZ15kcobuchi_expandNS_10shared_ptrIN4spot9twa_graphEEEjbE3$_1EEERNS_13tuple_elementIXT_ENS_5tupleIJDpT0_EEEE4typeERSC_', symObjAddr: 0x21750, symBinAddr: 0x100022660, symSize: 0x24 }
  - { offsetInCU: 0x48B1B, offset: 0x48B1B, size: 0x8, addend: 0x0, symName: '__ZNSt3__116forward_as_tupleB7v160006IJRKNS_9allocatorIZ15kcobuchi_expandNS_10shared_ptrIN4spot9twa_graphEEEjbE3$_1EEEEENS_5tupleIJDpOT_EEESD_', symObjAddr: 0x21AB0, symBinAddr: 0x1000229C0, symSize: 0x2C }
  - { offsetInCU: 0x48B6A, offset: 0x48B6A, size: 0x8, addend: 0x0, symName: '__ZNSt3__13getB7v160006ILm0EJRKNS_9allocatorIZ15kcobuchi_expandNS_10shared_ptrIN4spot9twa_graphEEEjbE3$_1EEEEERNS_13tuple_elementIXT_ENS_5tupleIJDpT0_EEEE4typeERSE_', symObjAddr: 0x21C94, symBinAddr: 0x100022BA4, symSize: 0x24 }
  - { offsetInCU: 0x48C27, offset: 0x48C27, size: 0x8, addend: 0x0, symName: '__ZNSt3__18__invokeB7v160006IRZ15kcobuchi_expandNS_10shared_ptrIN4spot9twa_graphEEEjbE3$_1JjjjEEEDTclclsr3stdE7declvalIT_EEspclsr3stdE7declvalIT0_EEEEOS7_DpOS8_', symObjAddr: 0x21D80, symBinAddr: 0x100022C90, symSize: 0x48 }
  - { offsetInCU: 0x48C9C, offset: 0x48C9C, size: 0x8, addend: 0x0, symName: __ZNSt3__13getB7v160006ILm0EJbjEEEOKNS_13tuple_elementIXT_ENS_5tupleIJDpT0_EEEE4typeEOKS5_, symObjAddr: 0x2278C, symBinAddr: 0x10002369C, symSize: 0x24 }
  - { offsetInCU: 0x48CE4, offset: 0x48CE4, size: 0x8, addend: 0x0, symName: __ZNSt3__13getB7v160006ILm1EJbjEEEOKNS_13tuple_elementIXT_ENS_5tupleIJDpT0_EEEE4typeEOKS5_, symObjAddr: 0x227B0, symBinAddr: 0x1000236C0, symSize: 0x28 }
  - { offsetInCU: 0x48D2C, offset: 0x48D2C, size: 0x8, addend: 0x0, symName: __ZNSt3__1neB7v160006IPNS_5tupleIJjjEEEEEbRKNS_11__wrap_iterIT_EES8_, symObjAddr: 0x22A14, symBinAddr: 0x100023924, symSize: 0x34 }
  - { offsetInCU: 0x48D6F, offset: 0x48D6F, size: 0x8, addend: 0x0, symName: __ZNSt3__13getB7v160006ILm0EJjjEEEONS_13tuple_elementIXT_ENS_5tupleIJDpT0_EEEE4typeEOS5_, symObjAddr: 0x22A60, symBinAddr: 0x100023970, symSize: 0x24 }
  - { offsetInCU: 0x48DB7, offset: 0x48DB7, size: 0x8, addend: 0x0, symName: __ZNSt3__13getB7v160006ILm1EJjjEEEONS_13tuple_elementIXT_ENS_5tupleIJDpT0_EEEE4typeEOS5_, symObjAddr: 0x22A84, symBinAddr: 0x100023994, symSize: 0x28 }
  - { offsetInCU: 0x48E00, offset: 0x48E00, size: 0x8, addend: 0x0, symName: __ZNSt3__119__debug_db_insert_cB7v160006INS_6vectorINS_5tupleIJjjEEENS_9allocatorIS3_EEEEEEvPT_, symObjAddr: 0x22B8C, symBinAddr: 0x100023A9C, symSize: 0x10 }
  - { offsetInCU: 0x48E31, offset: 0x48E31, size: 0x8, addend: 0x0, symName: __ZNSt3__112__to_addressB7v160006INS_5tupleIJjjEEEEEPT_S4_, symObjAddr: 0x22F3C, symBinAddr: 0x100023E4C, symSize: 0x14 }
  - { offsetInCU: 0x48E66, offset: 0x48E66, size: 0x8, addend: 0x0, symName: __ZNSt3__119__allocate_at_leastB7v160006INS_9allocatorINS_5tupleIJjjEEEEEEENS_19__allocation_resultINS_16allocator_traitsIT_E7pointerEEERS7_m, symObjAddr: 0x23568, symBinAddr: 0x100024478, symSize: 0x40 }
  - { offsetInCU: 0x48EA9, offset: 0x48EA9, size: 0x8, addend: 0x0, symName: __ZNSt3__142__uninitialized_allocator_move_if_noexceptB7v160006INS_9allocatorINS_5tupleIJjjEEEEENS_16reverse_iteratorIPS3_EES7_S7_EET2_RT_T0_T1_S8_, symObjAddr: 0x237D4, symBinAddr: 0x1000246E4, symSize: 0x12C }
  - { offsetInCU: 0x48F49, offset: 0x48F49, size: 0x8, addend: 0x0, symName: __ZNSt3__14swapB7v160006IPNS_5tupleIJjjEEEEENS_9enable_ifIXaasr21is_move_constructibleIT_EE5valuesr18is_move_assignableIS5_EE5valueEvE4typeERS5_S8_, symObjAddr: 0x2394C, symBinAddr: 0x10002485C, symSize: 0x3C }
  - { offsetInCU: 0x48F9C, offset: 0x48F9C, size: 0x8, addend: 0x0, symName: __ZNSt3__125__debug_db_invalidate_allB7v160006INS_6vectorINS_5tupleIJjjEEENS_9allocatorIS3_EEEEEEvPT_, symObjAddr: 0x23A34, symBinAddr: 0x100024944, symSize: 0x10 }
  - { offsetInCU: 0x48FCD, offset: 0x48FCD, size: 0x8, addend: 0x0, symName: __ZNSt3__122__make_exception_guardB7v160006INS_29_AllocatorDestroyRangeReverseINS_9allocatorINS_5tupleIJjjEEEEENS_16reverse_iteratorIPS4_EEEEEENS_28__exception_guard_exceptionsIT_EESB_, symObjAddr: 0x23A8C, symBinAddr: 0x10002499C, symSize: 0x4C }
  - { offsetInCU: 0x49003, offset: 0x49003, size: 0x8, addend: 0x0, symName: __ZNSt3__1neB7v160006IPNS_5tupleIJjjEEES3_EEbRKNS_16reverse_iteratorIT_EERKNS4_IT0_EE, symObjAddr: 0x23B1C, symBinAddr: 0x100024A2C, symSize: 0x48 }
  - { offsetInCU: 0x4904F, offset: 0x4904F, size: 0x8, addend: 0x0, symName: __ZNSt3__112__to_addressB7v160006INS_16reverse_iteratorIPNS_5tupleIJjjEEEEEvEENS_5decayIDTclsr19__to_address_helperIT_EE6__callclsr3stdE7declvalIRKS7_EEEEE4typeES9_, symObjAddr: 0x23B64, symBinAddr: 0x100024A74, symSize: 0x24 }
  - { offsetInCU: 0x490AE, offset: 0x490AE, size: 0x8, addend: 0x0, symName: __ZNSt3__119__allocator_destroyB7v160006INS_9allocatorINS_5tupleIJjjEEEEENS_16reverse_iteratorINS5_IPS3_EEEES8_EEvRT_T0_T1_, symObjAddr: 0x23E14, symBinAddr: 0x100024D24, symSize: 0x70 }
  - { offsetInCU: 0x49113, offset: 0x49113, size: 0x8, addend: 0x0, symName: __ZNSt3__1neB7v160006INS_16reverse_iteratorIPNS_5tupleIJjjEEEEES5_EEbRKNS1_IT_EERKNS1_IT0_EE, symObjAddr: 0x23EC0, symBinAddr: 0x100024DD0, symSize: 0x60 }
  - { offsetInCU: 0x4915F, offset: 0x4915F, size: 0x8, addend: 0x0, symName: __ZNSt3__112__to_addressB7v160006INS_16reverse_iteratorINS1_IPNS_5tupleIJjjEEEEEEEvEENS_5decayIDTclsr19__to_address_helperIT_EE6__callclsr3stdE7declvalIRKS8_EEEEE4typeESA_, symObjAddr: 0x23F4C, symBinAddr: 0x100024E5C, symSize: 0x24 }
  - { offsetInCU: 0x491D8, offset: 0x491D8, size: 0x8, addend: 0x0, symName: __ZNSt3__18distanceB7v160006INS_11__wrap_iterIPjEEEENS_15iterator_traitsIT_E15difference_typeES5_S5_, symObjAddr: 0x24928, symBinAddr: 0x100025838, symSize: 0x3C }
  - { offsetInCU: 0x49239, offset: 0x49239, size: 0x8, addend: 0x0, symName: __ZNSt3__110__distanceB7v160006INS_11__wrap_iterIPjEEEENS_15iterator_traitsIT_E15difference_typeES5_S5_NS_26random_access_iterator_tagE, symObjAddr: 0x24D9C, symBinAddr: 0x100025CAC, symSize: 0x30 }
  - { offsetInCU: 0x49286, offset: 0x49286, size: 0x8, addend: 0x0, symName: __ZNSt3__1miB7v160006IPjS1_EEDTmicldtfp_4baseEcldtfp0_4baseEERKNS_11__wrap_iterIT_EERKNS3_IT0_EE, symObjAddr: 0x24DCC, symBinAddr: 0x100025CDC, symSize: 0x48 }
  - { offsetInCU: 0x492D2, offset: 0x492D2, size: 0x8, addend: 0x0, symName: __ZNSt3__130__uninitialized_allocator_copyB7v160006INS_9allocatorIjEENS_11__wrap_iterIPjEES5_S4_EET2_RT_T0_T1_S6_, symObjAddr: 0x24FD4, symBinAddr: 0x100025EE4, symSize: 0xF8 }
  - { offsetInCU: 0x49370, offset: 0x49370, size: 0x8, addend: 0x0, symName: __ZNSt3__1miB7v160006IPKjPjEEDTmicldtfp_4baseEcldtfp0_4baseEERKNS_11__wrap_iterIT_EERKNS5_IT0_EE, symObjAddr: 0x25254, symBinAddr: 0x100026164, symSize: 0x48 }
  - { offsetInCU: 0x493BC, offset: 0x493BC, size: 0x8, addend: 0x0, symName: __ZNSt3__14copyB7v160006INS_11__wrap_iterIPjEES2_EET0_T_S5_S4_, symObjAddr: 0x25418, symBinAddr: 0x100026328, symSize: 0x50 }
  - { offsetInCU: 0x49416, offset: 0x49416, size: 0x8, addend: 0x0, symName: __ZNSt3__121__convert_to_integralB7v160006El, symObjAddr: 0x256F8, symBinAddr: 0x100026608, symSize: 0x14 }
  - { offsetInCU: 0x49443, offset: 0x49443, size: 0x8, addend: 0x0, symName: __ZNSt3__19__advanceB7v160006INS_11__wrap_iterIPjEEEEvRT_NS_15iterator_traitsIS4_E15difference_typeENS_26random_access_iterator_tagE, symObjAddr: 0x2570C, symBinAddr: 0x10002661C, symSize: 0x2C }
  - { offsetInCU: 0x4948C, offset: 0x4948C, size: 0x8, addend: 0x0, symName: __ZNSt3__113move_backwardB7v160006IPjS1_EET0_T_S3_S2_, symObjAddr: 0x25760, symBinAddr: 0x100026670, symSize: 0x40 }
  - { offsetInCU: 0x494E6, offset: 0x494E6, size: 0x8, addend: 0x0, symName: __ZNSt3__115__move_backwardB7v160006INS_17_ClassicAlgPolicyEPjS2_S2_EENS_4pairIT0_T2_EES4_T1_S5_, symObjAddr: 0x257A0, symBinAddr: 0x1000266B0, symSize: 0x44 }
  - { offsetInCU: 0x49552, offset: 0x49552, size: 0x8, addend: 0x0, symName: __ZNSt3__123__dispatch_copy_or_moveB7v160006INS_17_ClassicAlgPolicyENS_20__move_backward_loopIS1_EENS_23__move_backward_trivialEPjS5_S5_EENS_4pairIT2_T4_EES7_T3_S8_, symObjAddr: 0x257E4, symBinAddr: 0x1000266F4, symSize: 0x44 }
  - { offsetInCU: 0x495D0, offset: 0x495D0, size: 0x8, addend: 0x0, symName: __ZNSt3__121__unwrap_and_dispatchB7v160006INS_10__overloadINS_20__move_backward_loopINS_17_ClassicAlgPolicyEEENS_23__move_backward_trivialEEEPjS7_S7_Li0EEENS_4pairIT0_T2_EES9_T1_SA_, symObjAddr: 0x25828, symBinAddr: 0x100026738, symSize: 0xB4 }
  - { offsetInCU: 0x49660, offset: 0x49660, size: 0x8, addend: 0x0, symName: __ZNSt3__114__unwrap_rangeB7v160006IPjS1_EENS_4pairIT0_S3_EET_S5_, symObjAddr: 0x258DC, symBinAddr: 0x1000267EC, symSize: 0x60 }
  - { offsetInCU: 0x49824, offset: 0x49824, size: 0x8, addend: 0x0, symName: __ZNSt3__113__unwrap_iterB7v160006IPjNS_18__unwrap_iter_implIS1_Lb1EEELi0EEEDTclsrT0_8__unwrapclsr3stdE7declvalIT_EEEES5_, symObjAddr: 0x25984, symBinAddr: 0x100026894, symSize: 0x24 }
  - { offsetInCU: 0x49868, offset: 0x49868, size: 0x8, addend: 0x0, symName: __ZNSt3__19make_pairB7v160006IPjS1_EENS_4pairINS_18__unwrap_ref_decayIT_E4typeENS3_IT0_E4typeEEEOS4_OS7_, symObjAddr: 0x259A8, symBinAddr: 0x1000268B8, symSize: 0x38 }
  - { offsetInCU: 0x498B7, offset: 0x498B7, size: 0x8, addend: 0x0, symName: __ZNSt3__114__rewrap_rangeB7v160006IPjS1_EET_S2_T0_, symObjAddr: 0x259E0, symBinAddr: 0x1000268F0, symSize: 0x2C }
  - { offsetInCU: 0x49903, offset: 0x49903, size: 0x8, addend: 0x0, symName: __ZNSt3__113__rewrap_iterB7v160006IPjS1_NS_18__unwrap_iter_implIS1_Lb1EEEEET_S4_T0_, symObjAddr: 0x25A0C, symBinAddr: 0x10002691C, symSize: 0x3C }
  - { offsetInCU: 0x49958, offset: 0x49958, size: 0x8, addend: 0x0, symName: __ZNSt3__128__copy_backward_trivial_implB7v160006IjjEENS_4pairIPT_PT0_EES3_S3_S5_, symObjAddr: 0x25A48, symBinAddr: 0x100026958, symSize: 0x94 }
  - { offsetInCU: 0x499C1, offset: 0x499C1, size: 0x8, addend: 0x0, symName: __ZNSt3__19make_pairB7v160006IRPjS2_EENS_4pairINS_18__unwrap_ref_decayIT_E4typeENS4_IT0_E4typeEEEOS5_OS8_, symObjAddr: 0x25ADC, symBinAddr: 0x1000269EC, symSize: 0x38 }
  - { offsetInCU: 0x49A63, offset: 0x49A63, size: 0x8, addend: 0x0, symName: __ZNSt3__16__copyB7v160006INS_17_ClassicAlgPolicyENS_11__wrap_iterIPjEES4_S3_EENS_4pairIT0_T2_EES6_T1_S7_, symObjAddr: 0x25C68, symBinAddr: 0x100026B78, symSize: 0x54 }
  - { offsetInCU: 0x49ACF, offset: 0x49ACF, size: 0x8, addend: 0x0, symName: __ZNSt3__123__dispatch_copy_or_moveB7v160006INS_17_ClassicAlgPolicyENS_11__copy_loopIS1_EENS_14__copy_trivialENS_11__wrap_iterIPjEES7_S6_EENS_4pairIT2_T4_EES9_T3_SA_, symObjAddr: 0x25CBC, symBinAddr: 0x100026BCC, symSize: 0x54 }
  - { offsetInCU: 0x49B4D, offset: 0x49B4D, size: 0x8, addend: 0x0, symName: __ZNSt3__121__unwrap_and_dispatchB7v160006INS_10__overloadINS_11__copy_loopINS_17_ClassicAlgPolicyEEENS_14__copy_trivialEEENS_11__wrap_iterIPjEES9_S8_Li0EEENS_4pairIT0_T2_EESB_T1_SC_, symObjAddr: 0x25D10, symBinAddr: 0x100026C20, symSize: 0xCC }
  - { offsetInCU: 0x49BDD, offset: 0x49BDD, size: 0x8, addend: 0x0, symName: __ZNSt3__114__unwrap_rangeB7v160006INS_11__wrap_iterIPjEES2_EENS_4pairIT0_S5_EET_S7_, symObjAddr: 0x25DDC, symBinAddr: 0x100026CEC, symSize: 0x70 }
  - { offsetInCU: 0x49C29, offset: 0x49C29, size: 0x8, addend: 0x0, symName: __ZNSt3__19make_pairB7v160006INS_11__wrap_iterIPjEES2_EENS_4pairINS_18__unwrap_ref_decayIT_E4typeENS5_IT0_E4typeEEEOS6_OS9_, symObjAddr: 0x25E94, symBinAddr: 0x100026DA4, symSize: 0x38 }
  - { offsetInCU: 0x49C78, offset: 0x49C78, size: 0x8, addend: 0x0, symName: __ZNSt3__114__rewrap_rangeB7v160006INS_11__wrap_iterIPjEES2_EET_S4_T0_, symObjAddr: 0x25ECC, symBinAddr: 0x100026DDC, symSize: 0x3C }
  - { offsetInCU: 0x49CC4, offset: 0x49CC4, size: 0x8, addend: 0x0, symName: __ZNSt3__113__unwrap_iterB7v160006INS_11__wrap_iterIPjEENS_18__unwrap_iter_implIS3_Lb1EEELi0EEEDTclsrT0_8__unwrapclsr3stdE7declvalIT_EEEES7_, symObjAddr: 0x25F08, symBinAddr: 0x100026E18, symSize: 0x2C }
  - { offsetInCU: 0x49D5B, offset: 0x49D5B, size: 0x8, addend: 0x0, symName: __ZNSt3__112__to_addressB7v160006INS_11__wrap_iterIPjEEvEENS_5decayIDTclsr19__to_address_helperIT_EE6__callclsr3stdE7declvalIRKS5_EEEEE4typeES7_, symObjAddr: 0x25F5C, symBinAddr: 0x100026E6C, symSize: 0x24 }
  - { offsetInCU: 0x49E3A, offset: 0x49E3A, size: 0x8, addend: 0x0, symName: __ZNSt3__119__copy_trivial_implB7v160006IjjEENS_4pairIPT_PT0_EES3_S3_S5_, symObjAddr: 0x25FDC, symBinAddr: 0x100026EEC, symSize: 0x84 }
  - { offsetInCU: 0x49EA3, offset: 0x49EA3, size: 0x8, addend: 0x0, symName: __ZNSt3__19make_pairB7v160006IRPjS1_EENS_4pairINS_18__unwrap_ref_decayIT_E4typeENS4_IT0_E4typeEEEOS5_OS8_, symObjAddr: 0x26060, symBinAddr: 0x100026F70, symSize: 0x38 }
  - { offsetInCU: 0x49FC6, offset: 0x49FC6, size: 0x8, addend: 0x0, symName: __ZNSt3__113__rewrap_iterB7v160006INS_11__wrap_iterIPjEES2_NS_18__unwrap_iter_implIS3_Lb1EEEEET_S6_T0_, symObjAddr: 0x26178, symBinAddr: 0x100027088, symSize: 0x4C }
  - { offsetInCU: 0x4A01B, offset: 0x4A01B, size: 0x8, addend: 0x0, symName: __ZNSt3__142__uninitialized_allocator_move_if_noexceptB7v160006INS_9allocatorIjEEPjS3_jvEET1_RT_T0_S7_S4_, symObjAddr: 0x26328, symBinAddr: 0x100027238, symSize: 0x38 }
  - { offsetInCU: 0x4A097, offset: 0x4A097, size: 0x8, addend: 0x0, symName: __ZNSt3__14moveB7v160006IPjS1_EET0_T_S3_S2_, symObjAddr: 0x26360, symBinAddr: 0x100027270, symSize: 0x40 }
  - { offsetInCU: 0x4A0F1, offset: 0x4A0F1, size: 0x8, addend: 0x0, symName: __ZNSt3__16__moveB7v160006INS_17_ClassicAlgPolicyEPjS2_S2_EENS_4pairIT0_T2_EES4_T1_S5_, symObjAddr: 0x263A0, symBinAddr: 0x1000272B0, symSize: 0x44 }
  - { offsetInCU: 0x4A15D, offset: 0x4A15D, size: 0x8, addend: 0x0, symName: __ZNSt3__123__dispatch_copy_or_moveB7v160006INS_17_ClassicAlgPolicyENS_11__move_loopIS1_EENS_14__move_trivialEPjS5_S5_EENS_4pairIT2_T4_EES7_T3_S8_, symObjAddr: 0x263E4, symBinAddr: 0x1000272F4, symSize: 0x44 }
  - { offsetInCU: 0x4A1DB, offset: 0x4A1DB, size: 0x8, addend: 0x0, symName: __ZNSt3__121__unwrap_and_dispatchB7v160006INS_10__overloadINS_11__move_loopINS_17_ClassicAlgPolicyEEENS_14__move_trivialEEEPjS7_S7_Li0EEENS_4pairIT0_T2_EES9_T1_SA_, symObjAddr: 0x26428, symBinAddr: 0x100027338, symSize: 0xB4 }
  - { offsetInCU: 0x4A2B1, offset: 0x4A2B1, size: 0x8, addend: 0x0, symName: __ZNSt3__1eqB7v160006IPNS_5tupleIJjjEEEEEbRKNS_11__wrap_iterIT_EES8_, symObjAddr: 0x26658, symBinAddr: 0x100027568, symSize: 0x48 }
  - { offsetInCU: 0x4A2F5, offset: 0x4A2F5, size: 0x8, addend: 0x0, symName: __ZNSt3__118__debug_db_erase_cB7v160006INS_6vectorINS_5tupleIJjjEEENS_9allocatorIS3_EEEEEEvPT_, symObjAddr: 0x26814, symBinAddr: 0x100027724, symSize: 0x10 }
  - { offsetInCU: 0x4A327, offset: 0x4A327, size: 0x8, addend: 0x0, symName: __ZNSt3__119__debug_db_insert_cB7v160006INS_13unordered_setIjNS_4hashIjEENS_8equal_toIjEENS_9allocatorIjEEEEEEvPT_, symObjAddr: 0x27368, symBinAddr: 0x100028278, symSize: 0x10 }
  - { offsetInCU: 0x4A359, offset: 0x4A359, size: 0x8, addend: 0x0, symName: __ZNSt3__118__debug_db_erase_cB7v160006INS_12__hash_tableIjNS_4hashIjEENS_8equal_toIjEENS_9allocatorIjEEEEEEvPT_, symObjAddr: 0x27A90, symBinAddr: 0x1000289A0, symSize: 0x10 }
  - { offsetInCU: 0x4AA22, offset: 0x4AA22, size: 0x8, addend: 0x0, symName: '__ZNSt3__116forward_as_tupleB7v160006IJZ21complete_coBuchi_hereNS_10shared_ptrIN4spot9twa_graphEEEE3$_2EEENS_5tupleIJDpOT_EEES9_', symObjAddr: 0x28954, symBinAddr: 0x100029864, symSize: 0x2C }
  - { offsetInCU: 0x4AA5C, offset: 0x4AA5C, size: 0x8, addend: 0x0, symName: '__ZNSt3__116forward_as_tupleB7v160006IJNS_9allocatorIZ21complete_coBuchi_hereNS_10shared_ptrIN4spot9twa_graphEEEE3$_2EEEEENS_5tupleIJDpOT_EEESB_', symObjAddr: 0x28980, symBinAddr: 0x100029890, symSize: 0x2C }
  - { offsetInCU: 0x4AAC0, offset: 0x4AAC0, size: 0x8, addend: 0x0, symName: '__ZNSt3__13getB7v160006ILm0EJOZ21complete_coBuchi_hereNS_10shared_ptrIN4spot9twa_graphEEEE3$_2EEERNS_13tuple_elementIXT_ENS_5tupleIJDpT0_EEEE4typeERSB_', symObjAddr: 0x28C9C, symBinAddr: 0x100029BAC, symSize: 0x24 }
  - { offsetInCU: 0x4AB03, offset: 0x4AB03, size: 0x8, addend: 0x0, symName: '__ZNSt3__13getB7v160006ILm0EJONS_9allocatorIZ21complete_coBuchi_hereNS_10shared_ptrIN4spot9twa_graphEEEE3$_2EEEEERNS_13tuple_elementIXT_ENS_5tupleIJDpT0_EEEE4typeERSD_', symObjAddr: 0x28CD8, symBinAddr: 0x100029BE8, symSize: 0x24 }
  - { offsetInCU: 0x4ACDE, offset: 0x4ACDE, size: 0x8, addend: 0x0, symName: '__ZNSt3__116forward_as_tupleB7v160006IJRKZ21complete_coBuchi_hereNS_10shared_ptrIN4spot9twa_graphEEEE3$_2EEENS_5tupleIJDpOT_EEESB_', symObjAddr: 0x290D4, symBinAddr: 0x100029FE4, symSize: 0x2C }
  - { offsetInCU: 0x4AD2D, offset: 0x4AD2D, size: 0x8, addend: 0x0, symName: '__ZNSt3__13getB7v160006ILm0EJRKZ21complete_coBuchi_hereNS_10shared_ptrIN4spot9twa_graphEEEE3$_2EEERNS_13tuple_elementIXT_ENS_5tupleIJDpT0_EEEE4typeERSC_', symObjAddr: 0x292C8, symBinAddr: 0x10002A1D8, symSize: 0x24 }
  - { offsetInCU: 0x4AD70, offset: 0x4AD70, size: 0x8, addend: 0x0, symName: '__ZNSt3__116forward_as_tupleB7v160006IJRKNS_9allocatorIZ21complete_coBuchi_hereNS_10shared_ptrIN4spot9twa_graphEEEE3$_2EEEEENS_5tupleIJDpOT_EEESD_', symObjAddr: 0x29628, symBinAddr: 0x10002A538, symSize: 0x2C }
  - { offsetInCU: 0x4ADBF, offset: 0x4ADBF, size: 0x8, addend: 0x0, symName: '__ZNSt3__13getB7v160006ILm0EJRKNS_9allocatorIZ21complete_coBuchi_hereNS_10shared_ptrIN4spot9twa_graphEEEE3$_2EEEEERNS_13tuple_elementIXT_ENS_5tupleIJDpT0_EEEE4typeERSE_', symObjAddr: 0x2980C, symBinAddr: 0x10002A71C, symSize: 0x24 }
  - { offsetInCU: 0x4AE02, offset: 0x4AE02, size: 0x8, addend: 0x0, symName: '__ZNSt3__18__invokeB7v160006IRZ21complete_coBuchi_hereNS_10shared_ptrIN4spot9twa_graphEEEE3$_2JjEEEDTclclsr3stdE7declvalIT_EEspclsr3stdE7declvalIT0_EEEEOS7_DpOS8_', symObjAddr: 0x298D8, symBinAddr: 0x10002A7E8, symSize: 0x30 }
  - { offsetInCU: 0x4AE4F, offset: 0x4AE4F, size: 0x8, addend: 0x0, symName: __ZNSt3__1neB7v160006ERKNS_21__hash_const_iteratorIPNS_11__hash_nodeIjPvEEEES7_, symObjAddr: 0x29D50, symBinAddr: 0x10002AC60, symSize: 0x34 }
  - { offsetInCU: 0x4AE8C, offset: 0x4AE8C, size: 0x8, addend: 0x0, symName: __ZNSt3__1eqB7v160006ERKNS_21__hash_const_iteratorIPNS_11__hash_nodeIjPvEEEES7_, symObjAddr: 0x29F74, symBinAddr: 0x10002AE84, symSize: 0x30 }
  - { offsetInCU: 0x4AEC9, offset: 0x4AEC9, size: 0x8, addend: 0x0, symName: __ZNSt3__116__constrain_hashB7v160006Emm, symObjAddr: 0x2A010, symBinAddr: 0x10002AF20, symSize: 0x98 }
  - { offsetInCU: 0x4AF03, offset: 0x4AF03, size: 0x8, addend: 0x0, symName: __ZNSt3__116__is_hash_power2B7v160006Em, symObjAddr: 0x2AA34, symBinAddr: 0x10002B944, symSize: 0x50 }
  - { offsetInCU: 0x4AF4D, offset: 0x4AF4D, size: 0x8, addend: 0x0, symName: __ZNSt3__116__next_hash_pow2B7v160006Em, symObjAddr: 0x2B434, symBinAddr: 0x10002C344, symSize: 0x6C }
  - { offsetInCU: 0x4AF7A, offset: 0x4AF7A, size: 0x8, addend: 0x0, symName: __ZNSt3__125__debug_db_invalidate_allB7v160006INS_12__hash_tableIjNS_4hashIjEENS_8equal_toIjEENS_9allocatorIjEEEEEEvPT_, symObjAddr: 0x2B4A0, symBinAddr: 0x10002C3B0, symSize: 0x10 }
  - { offsetInCU: 0x4AFAB, offset: 0x4AFAB, size: 0x8, addend: 0x0, symName: __ZNSt3__112__libcpp_clzB7v160006Em, symObjAddr: 0x2B608, symBinAddr: 0x10002C518, symSize: 0x1C }
  - { offsetInCU: 0x4AFD7, offset: 0x4AFD7, size: 0x8, addend: 0x0, symName: __ZNSt3__1neB7v160006ERKNS_20__map_const_iteratorINS_21__tree_const_iteratorINS_12__value_typeIN4spot7formulaEiEEPNS_11__tree_nodeIS5_PvEElEEEESD_, symObjAddr: 0x2C050, symBinAddr: 0x10002CF60, symSize: 0x30 }
  - { offsetInCU: 0x4B014, offset: 0x4B014, size: 0x8, addend: 0x0, symName: __ZNSt3__1neB7v160006ERKNS_21__tree_const_iteratorINS_12__value_typeIN4spot7formulaEiEEPNS_11__tree_nodeIS4_PvEElEESB_, symObjAddr: 0x2C158, symBinAddr: 0x10002D068, symSize: 0x34 }
  - { offsetInCU: 0x4B051, offset: 0x4B051, size: 0x8, addend: 0x0, symName: __ZNSt3__1eqB7v160006ERKNS_21__tree_const_iteratorINS_12__value_typeIN4spot7formulaEiEEPNS_11__tree_nodeIS4_PvEElEESB_, symObjAddr: 0x2C18C, symBinAddr: 0x10002D09C, symSize: 0x30 }
  - { offsetInCU: 0x4B0B2, offset: 0x4B0B2, size: 0x8, addend: 0x0, symName: __ZNSt3__14nextB7v160006INS_21__tree_const_iteratorINS_12__value_typeIN4spot7formulaEiEEPNS_11__tree_nodeIS5_PvEElEEEENS_9enable_ifIXsr25__is_cpp17_input_iteratorIT_EE5valueESC_E4typeESC_NS_15iterator_traitsISC_E15difference_typeE, symObjAddr: 0x2CA50, symBinAddr: 0x10002D960, symSize: 0x50 }
  - { offsetInCU: 0x4B0F5, offset: 0x4B0F5, size: 0x8, addend: 0x0, symName: __ZNSt3__116__tree_prev_iterB7v160006IPNS_16__tree_node_baseIPvEEPNS_15__tree_end_nodeIS4_EEEET_T0_, symObjAddr: 0x2CB2C, symBinAddr: 0x10002DA3C, symSize: 0xA4 }
  - { offsetInCU: 0x4B142, offset: 0x4B142, size: 0x8, addend: 0x0, symName: __ZNSt3__110__tree_maxB7v160006IPNS_16__tree_node_baseIPvEEEET_S5_, symObjAddr: 0x2CBD0, symBinAddr: 0x10002DAE0, symSize: 0x40 }
  - { offsetInCU: 0x4B177, offset: 0x4B177, size: 0x8, addend: 0x0, symName: __ZNSt3__120__tree_is_left_childB7v160006IPNS_16__tree_node_baseIPvEEEEbT_, symObjAddr: 0x2CC10, symBinAddr: 0x10002DB20, symSize: 0x2C }
  - { offsetInCU: 0x4B1AD, offset: 0x4B1AD, size: 0x8, addend: 0x0, symName: __ZNSt3__19__advanceB7v160006INS_21__tree_const_iteratorINS_12__value_typeIN4spot7formulaEiEEPNS_11__tree_nodeIS5_PvEElEEEEvRT_NS_15iterator_traitsISB_E15difference_typeENS_26bidirectional_iterator_tagE, symObjAddr: 0x2CCA4, symBinAddr: 0x10002DBB4, symSize: 0xA4 }
  - { offsetInCU: 0x4B1F6, offset: 0x4B1F6, size: 0x8, addend: 0x0, symName: __ZNSt3__116__tree_next_iterB7v160006IPNS_15__tree_end_nodeIPNS_16__tree_node_baseIPvEEEES5_EET_T0_, symObjAddr: 0x2CD80, symBinAddr: 0x10002DC90, symSize: 0x80 }
  - { offsetInCU: 0x4B234, offset: 0x4B234, size: 0x8, addend: 0x0, symName: __ZNSt3__110__tree_minB7v160006IPNS_16__tree_node_baseIPvEEEET_S5_, symObjAddr: 0x2CE00, symBinAddr: 0x10002DD10, symSize: 0x40 }
  - { offsetInCU: 0x4B287, offset: 0x4B287, size: 0x8, addend: 0x0, symName: __ZNSt3__127__tree_balance_after_insertB7v160006IPNS_16__tree_node_baseIPvEEEEvT_S5_, symObjAddr: 0x2D2F0, symBinAddr: 0x10002E200, symSize: 0x27C }
  - { offsetInCU: 0x4B305, offset: 0x4B305, size: 0x8, addend: 0x0, symName: __ZNSt3__118__tree_left_rotateB7v160006IPNS_16__tree_node_baseIPvEEEEvT_, symObjAddr: 0x2D594, symBinAddr: 0x10002E4A4, symSize: 0xD8 }
  - { offsetInCU: 0x4B347, offset: 0x4B347, size: 0x8, addend: 0x0, symName: __ZNSt3__119__tree_right_rotateB7v160006IPNS_16__tree_node_baseIPvEEEEvT_, symObjAddr: 0x2D66C, symBinAddr: 0x10002E57C, symSize: 0xCC }
  - { offsetInCU: 0x4B3BC, offset: 0x4B3BC, size: 0x8, addend: 0x0, symName: __ZNSt3__18distanceB7v160006IPKcEENS_15iterator_traitsIT_E15difference_typeES4_S4_, symObjAddr: 0x2DF24, symBinAddr: 0x10002EE34, symSize: 0x2C }
  - { offsetInCU: 0x4B3FF, offset: 0x4B3FF, size: 0x8, addend: 0x0, symName: __ZNSt3__119__allocate_at_leastB7v160006INS_9allocatorIcEEEENS_19__allocation_resultINS_16allocator_traitsIT_E7pointerEEERS5_m, symObjAddr: 0x2E0B0, symBinAddr: 0x10002EFC0, symSize: 0x40 }
  - { offsetInCU: 0x4B442, offset: 0x4B442, size: 0x8, addend: 0x0, symName: __ZNSt3__110__distanceB7v160006IPKcEENS_15iterator_traitsIT_E15difference_typeES4_S4_NS_26random_access_iterator_tagE, symObjAddr: 0x2E2B0, symBinAddr: 0x10002F1C0, symSize: 0x20 }
  - { offsetInCU: 0x4B4AD, offset: 0x4B4AD, size: 0x8, addend: 0x0, symName: __ZNSt3__1eqB7v160006ERKNS_15__list_iteratorI3bddPvEES5_, symObjAddr: 0x2EF00, symBinAddr: 0x10002FE10, symSize: 0x30 }
  - { offsetInCU: 0x4B4EB, offset: 0x4B4EB, size: 0x8, addend: 0x0, symName: __ZNSt3__119__debug_db_insert_cB7v160006INS_4listI3bddNS_9allocatorIS2_EEEEEEvPT_, symObjAddr: 0x2F0A4, symBinAddr: 0x10002FFB4, symSize: 0x10 }
  - { offsetInCU: 0x4B51C, offset: 0x4B51C, size: 0x8, addend: 0x0, symName: __ZNSt3__1neB7v160006ERKNS_21__list_const_iteratorI3bddPvEES5_, symObjAddr: 0x2F10C, symBinAddr: 0x10003001C, symSize: 0x34 }
  - { offsetInCU: 0x4B559, offset: 0x4B559, size: 0x8, addend: 0x0, symName: __ZNSt3__1eqB7v160006ERKNS_21__list_const_iteratorI3bddPvEES5_, symObjAddr: 0x2F48C, symBinAddr: 0x10003039C, symSize: 0x30 }
  - { offsetInCU: 0x4BBFB, offset: 0x4BBFB, size: 0x8, addend: 0x0, symName: '__ZNSt3__116forward_as_tupleB7v160006IJZ21prefix_hits_acceptingNS_10shared_ptrIN4spot9twa_graphEEENS1_INS2_8twa_wordEEEbE3$_3EEENS_5tupleIJDpOT_EEESB_', symObjAddr: 0x2FFFC, symBinAddr: 0x100030F0C, symSize: 0x2C }
  - { offsetInCU: 0x4BC35, offset: 0x4BC35, size: 0x8, addend: 0x0, symName: '__ZNSt3__116forward_as_tupleB7v160006IJNS_9allocatorIZ21prefix_hits_acceptingNS_10shared_ptrIN4spot9twa_graphEEENS2_INS3_8twa_wordEEEbE3$_3EEEEENS_5tupleIJDpOT_EEESD_', symObjAddr: 0x30028, symBinAddr: 0x100030F38, symSize: 0x2C }
  - { offsetInCU: 0x4BC99, offset: 0x4BC99, size: 0x8, addend: 0x0, symName: '__ZNSt3__13getB7v160006ILm0EJOZ21prefix_hits_acceptingNS_10shared_ptrIN4spot9twa_graphEEENS1_INS2_8twa_wordEEEbE3$_3EEERNS_13tuple_elementIXT_ENS_5tupleIJDpT0_EEEE4typeERSD_', symObjAddr: 0x30348, symBinAddr: 0x100031258, symSize: 0x24 }
  - { offsetInCU: 0x4BCDC, offset: 0x4BCDC, size: 0x8, addend: 0x0, symName: '__ZNSt3__13getB7v160006ILm0EJONS_9allocatorIZ21prefix_hits_acceptingNS_10shared_ptrIN4spot9twa_graphEEENS2_INS3_8twa_wordEEEbE3$_3EEEEERNS_13tuple_elementIXT_ENS_5tupleIJDpT0_EEEE4typeERSF_', symObjAddr: 0x30384, symBinAddr: 0x100031294, symSize: 0x24 }
  - { offsetInCU: 0x4BEB7, offset: 0x4BEB7, size: 0x8, addend: 0x0, symName: '__ZNSt3__116forward_as_tupleB7v160006IJRKZ21prefix_hits_acceptingNS_10shared_ptrIN4spot9twa_graphEEENS1_INS2_8twa_wordEEEbE3$_3EEENS_5tupleIJDpOT_EEESD_', symObjAddr: 0x30780, symBinAddr: 0x100031690, symSize: 0x2C }
  - { offsetInCU: 0x4BF06, offset: 0x4BF06, size: 0x8, addend: 0x0, symName: '__ZNSt3__13getB7v160006ILm0EJRKZ21prefix_hits_acceptingNS_10shared_ptrIN4spot9twa_graphEEENS1_INS2_8twa_wordEEEbE3$_3EEERNS_13tuple_elementIXT_ENS_5tupleIJDpT0_EEEE4typeERSE_', symObjAddr: 0x30978, symBinAddr: 0x100031888, symSize: 0x24 }
  - { offsetInCU: 0x4BF49, offset: 0x4BF49, size: 0x8, addend: 0x0, symName: '__ZNSt3__116forward_as_tupleB7v160006IJRKNS_9allocatorIZ21prefix_hits_acceptingNS_10shared_ptrIN4spot9twa_graphEEENS2_INS3_8twa_wordEEEbE3$_3EEEEENS_5tupleIJDpOT_EEESF_', symObjAddr: 0x30CD8, symBinAddr: 0x100031BE8, symSize: 0x2C }
  - { offsetInCU: 0x4BF98, offset: 0x4BF98, size: 0x8, addend: 0x0, symName: '__ZNSt3__13getB7v160006ILm0EJRKNS_9allocatorIZ21prefix_hits_acceptingNS_10shared_ptrIN4spot9twa_graphEEENS2_INS3_8twa_wordEEEbE3$_3EEEEERNS_13tuple_elementIXT_ENS_5tupleIJDpT0_EEEE4typeERSG_', symObjAddr: 0x30EBC, symBinAddr: 0x100031DCC, symSize: 0x24 }
  - { offsetInCU: 0x4C035, offset: 0x4C035, size: 0x8, addend: 0x0, symName: '__ZNSt3__18__invokeB7v160006IRZ21prefix_hits_acceptingNS_10shared_ptrIN4spot9twa_graphEEENS1_INS2_8twa_wordEEEbE3$_3JjNS_15__list_iteratorI3bddPvEESC_EEEDTclclsr3stdE7declvalIT_EEspclsr3stdE7declvalIT0_EEEEOSD_DpOSE_', symObjAddr: 0x30FB0, symBinAddr: 0x100031EC0, symSize: 0x5C }
  - { offsetInCU: 0x4C0AF, offset: 0x4C0AF, size: 0x8, addend: 0x0, symName: __ZNSt3__115__debug_db_swapB7v160006INS_12basic_stringIcNS_11char_traitsIcEENS_9allocatorIcEEEEEEvPT_S8_, symObjAddr: 0x317A0, symBinAddr: 0x1000326B0, symSize: 0x14 }
  - { offsetInCU: 0x4D40A, offset: 0x4D40A, size: 0x8, addend: 0x0, symName: __ZSt28__throw_bad_array_new_lengthB7v160006v, symObjAddr: 0x5EE4, symBinAddr: 0x100006DF4, symSize: 0x34 }
  - { offsetInCU: 0x53A11, offset: 0x53A11, size: 0x8, addend: 0x0, symName: __ZN4spotneENS_6trivalES0_, symObjAddr: 0x1970, symBinAddr: 0x100002880, symSize: 0x54 }
  - { offsetInCU: 0x53A4B, offset: 0x53A4B, size: 0x8, addend: 0x0, symName: __ZN4spot14make_twa_graphERKNSt3__110shared_ptrINS_8bdd_dictEEE, symObjAddr: 0x1B78, symBinAddr: 0x100002A88, symSize: 0x2C }
  - { offsetInCU: 0x53A79, offset: 0x53A79, size: 0x8, addend: 0x0, symName: __ZN4spot14make_twa_graphERKNSt3__110shared_ptrINS_9twa_graphEEENS_3twa8prop_setE, symObjAddr: 0x3088, symBinAddr: 0x100003F98, symSize: 0x44 }
  - { offsetInCU: 0x53AB6, offset: 0x53AB6, size: 0x8, addend: 0x0, symName: __ZN4spot13make_twa_wordERKNSt3__110shared_ptrINS_8bdd_dictEEE, symObjAddr: 0x3428, symBinAddr: 0x100004338, symSize: 0x2C }
  - { offsetInCU: 0x53FD3, offset: 0x53FD3, size: 0x8, addend: 0x0, symName: __ZN4spot9down_castIPKNS_15twa_graph_stateEKNS_5stateEEET_PT0_, symObjAddr: 0x8724, symBinAddr: 0x100009634, symSize: 0x28 }
  - { offsetInCU: 0x54011, offset: 0x54011, size: 0x8, addend: 0x0, symName: __ZN4spoteqENS_6trivalES0_, symObjAddr: 0x9D64, symBinAddr: 0x10000AC74, symSize: 0x5C }
  - { offsetInCU: 0x5404B, offset: 0x5404B, size: 0x8, addend: 0x0, symName: __ZN4spot3clzIjvEEjT_, symObjAddr: 0xB71C, symBinAddr: 0x10000C62C, symSize: 0x18 }
  - { offsetInCU: 0x54081, offset: 0x54081, size: 0x8, addend: 0x0, symName: __ZN4spot9down_castIPKNS_8internal15distate_storageIjNS1_11boxed_labelINS_15twa_graph_stateELb0EEEEEKNS_5stateEEET_PT0_, symObjAddr: 0xD58C, symBinAddr: 0x10000E49C, symSize: 0x28 }
  - { offsetInCU: 0x540BF, offset: 0x540BF, size: 0x8, addend: 0x0, symName: __ZN4spot9down_castIPNS_23twa_graph_succ_iteratorINS_7digraphINS_15twa_graph_stateENS_19twa_graph_edge_dataEEEEENS_17twa_succ_iteratorEEET_PT0_, symObjAddr: 0xD5B4, symBinAddr: 0x10000E4C4, symSize: 0x28 }
  - { offsetInCU: 0x540FE, offset: 0x540FE, size: 0x8, addend: 0x0, symName: __ZN4spot13make_bdd_dictEv, symObjAddr: 0x16A44, symBinAddr: 0x100017954, symSize: 0x24 }
  - { offsetInCU: 0x58532, offset: 0x58532, size: 0x8, addend: 0x0, symName: __ZNSt3__16vectorIN4spot8internal12edge_storageIjjjNS2_11boxed_labelINS1_19twa_graph_edge_dataELb0EEEEENS_9allocatorIS7_EEE26__swap_out_circular_bufferERNS_14__split_bufferIS7_RS9_EE, symObjAddr: 0x571C, symBinAddr: 0x10000662C, symSize: 0x118 }
  - { offsetInCU: 0x585CA, offset: 0x585CA, size: 0x8, addend: 0x0, symName: __ZNSt3__16vectorIN4spot8internal15distate_storageIjNS2_11boxed_labelINS1_15twa_graph_stateELb0EEEEENS_9allocatorIS7_EEE26__swap_out_circular_bufferERNS_14__split_bufferIS7_RS9_EE, symObjAddr: 0x88C8, symBinAddr: 0x1000097D8, symSize: 0x118 }
  - { offsetInCU: 0x58798, offset: 0x58798, size: 0x8, addend: 0x0, symName: __ZNSt3__110shared_ptrIN4spot9twa_graphEE18__enable_weak_thisB7v160006INS1_3twaES2_vEEvPKNS_23enable_shared_from_thisIT_EEPT0_, symObjAddr: 0xDBB0, symBinAddr: 0x10000EAC0, symSize: 0x7C }
  - { offsetInCU: 0x587FB, offset: 0x587FB, size: 0x8, addend: 0x0, symName: __ZNSt3__16vectorIN4spot7formulaENS_9allocatorIS2_EEE26__swap_out_circular_bufferERNS_14__split_bufferIS2_RS4_EE, symObjAddr: 0xEBEC, symBinAddr: 0x10000FAFC, symSize: 0x118 }
  - { offsetInCU: 0x58893, offset: 0x58893, size: 0x8, addend: 0x0, symName: __ZNSt3__16vectorIN4spot8acc_cond8acc_wordENS_9allocatorIS3_EEE26__swap_out_circular_bufferERNS_14__split_bufferIS3_RS5_EE, symObjAddr: 0x106C0, symBinAddr: 0x1000115D0, symSize: 0x118 }
  - { offsetInCU: 0x58F25, offset: 0x58F25, size: 0x8, addend: 0x0, symName: __Z15kcobuchi_expandNSt3__110shared_ptrIN4spot9twa_graphEEEjb, symObjAddr: 0x12BC, symBinAddr: 0x1000021CC, symSize: 0x6B4 }
  - { offsetInCU: 0x594C5, offset: 0x594C5, size: 0x8, addend: 0x0, symName: __ZNSt3__16vectorIjNS_9allocatorIjEEE26__swap_out_circular_bufferERNS_14__split_bufferIjRS2_EE, symObjAddr: 0x1F5C4, symBinAddr: 0x1000204D4, symSize: 0x118 }
  - { offsetInCU: 0x59A05, offset: 0x59A05, size: 0x8, addend: 0x0, symName: __ZNSt3__16vectorINS_5tupleIJjjEEENS_9allocatorIS2_EEE26__swap_out_circular_bufferERNS_14__split_bufferIS2_RS4_EE, symObjAddr: 0x23160, symBinAddr: 0x100024070, symSize: 0x118 }
  - { offsetInCU: 0x59A9D, offset: 0x59A9D, size: 0x8, addend: 0x0, symName: __ZNSt3__16vectorIjNS_9allocatorIjEEE26__swap_out_circular_bufferERNS_14__split_bufferIjRS2_EEPj, symObjAddr: 0x25558, symBinAddr: 0x100026468, symSize: 0x154 }
  - { offsetInCU: 0x59B1C, offset: 0x59B1C, size: 0x8, addend: 0x0, symName: __Z21complete_coBuchi_hereNSt3__110shared_ptrIN4spot9twa_graphEEE, symObjAddr: 0x25F0, symBinAddr: 0x100003500, symSize: 0x248 }
  - { offsetInCU: 0x5A3C3, offset: 0x5A3C3, size: 0x8, addend: 0x0, symName: __Z21prefix_hits_acceptingNSt3__110shared_ptrIN4spot9twa_graphEEENS0_INS1_8twa_wordEEEb, symObjAddr: 0x3E10, symBinAddr: 0x100004D20, symSize: 0x2D0 }
  - { offsetInCU: 0x5C948, offset: 0x5C948, size: 0x8, addend: 0x0, symName: __Z5debugNSt3__112basic_stringIcNS_11char_traitsIcEENS_9allocatorIcEEEE, symObjAddr: 0x0, symBinAddr: 0x100000F10, symSize: 0x38 }
  - { offsetInCU: 0x5C971, offset: 0x5C971, size: 0x8, addend: 0x0, symName: __ZeqRK4PairS1_, symObjAddr: 0xB8, symBinAddr: 0x100000FC8, symSize: 0x90 }
  - { offsetInCU: 0x5C9AC, offset: 0x5C9AC, size: 0x8, addend: 0x0, symName: __ZNK5boost6tuples4consIjNS1_IjNS0_9null_typeEEEE3getILm0EEENS0_13access_traitsINS0_7elementIXT_ES4_E4typeEE10const_typeEv, symObjAddr: 0x148, symBinAddr: 0x100001058, symSize: 0x24 }
  - { offsetInCU: 0x5C9DC, offset: 0x5C9DC, size: 0x8, addend: 0x0, symName: __ZNK5boost6tuples4consIjNS1_IjNS0_9null_typeEEEE3getILm1EEENS0_13access_traitsINS0_7elementIXT_ES4_E4typeEE10const_typeEv, symObjAddr: 0x16C, symBinAddr: 0x10000107C, symSize: 0x24 }
  - { offsetInCU: 0x5CA0B, offset: 0x5CA0B, size: 0x8, addend: 0x0, symName: __Z10hash_valueRK4Pair, symObjAddr: 0x190, symBinAddr: 0x1000010A0, symSize: 0x54 }
  - { offsetInCU: 0x5CA47, offset: 0x5CA47, size: 0x8, addend: 0x0, symName: __Z13trapify_stateNSt3__110shared_ptrIN4spot9twa_graphEEEjj, symObjAddr: 0x23C, symBinAddr: 0x10000114C, symSize: 0xC8 }
  - { offsetInCU: 0x5CA8D, offset: 0x5CA8D, size: 0x8, addend: 0x0, symName: __ZNKSt3__110shared_ptrIN4spot9twa_graphEEptB7v160006Ev, symObjAddr: 0x304, symBinAddr: 0x100001214, symSize: 0x18 }
  - { offsetInCU: 0x5CAB3, offset: 0x5CAB3, size: 0x8, addend: 0x0, symName: __ZN4spot9twa_graph8new_edgeEjj3bddNS_8acc_cond6mark_tE, symObjAddr: 0x31C, symBinAddr: 0x10000122C, symSize: 0x50 }
  - { offsetInCU: 0x5CB16, offset: 0x5CB16, size: 0x8, addend: 0x0, symName: __ZN3bddC1ERK8bddxtrue, symObjAddr: 0x36C, symBinAddr: 0x10000127C, symSize: 0x34 }
  - { offsetInCU: 0x5CB4B, offset: 0x5CB4B, size: 0x8, addend: 0x0, symName: __ZN4spot8acc_cond6mark_tC1ESt16initializer_listIjE, symObjAddr: 0x3A0, symBinAddr: 0x1000012B0, symSize: 0x70 }
  - { offsetInCU: 0x5CB83, offset: 0x5CB83, size: 0x8, addend: 0x0, symName: __ZN3bddD1Ev, symObjAddr: 0x410, symBinAddr: 0x100001320, symSize: 0x2C }
  - { offsetInCU: 0x5CBAC, offset: 0x5CBAC, size: 0x8, addend: 0x0, symName: __Z18is_accepting_stateNSt3__110shared_ptrIN4spot9twa_graphEEEjj, symObjAddr: 0x43C, symBinAddr: 0x10000134C, symSize: 0x154 }
  - { offsetInCU: 0x5CC9F, offset: 0x5CC9F, size: 0x8, addend: 0x0, symName: __ZN4spot9twa_graph3outEj, symObjAddr: 0x590, symBinAddr: 0x1000014A0, symSize: 0x40 }
  - { offsetInCU: 0x5CCD4, offset: 0x5CCD4, size: 0x8, addend: 0x0, symName: __ZNK4spot8internal9state_outINS_7digraphINS_15twa_graph_stateENS_19twa_graph_edge_dataEEEE5beginEv, symObjAddr: 0x5D0, symBinAddr: 0x1000014E0, symSize: 0x38 }
  - { offsetInCU: 0x5CCFA, offset: 0x5CCFA, size: 0x8, addend: 0x0, symName: __ZNK4spot8internal9state_outINS_7digraphINS_15twa_graph_stateENS_19twa_graph_edge_dataEEEE3endEv, symObjAddr: 0x608, symBinAddr: 0x100001518, symSize: 0x2C }
  - { offsetInCU: 0x5CD20, offset: 0x5CD20, size: 0x8, addend: 0x0, symName: __ZNK4spot8internal13edge_iteratorINS_7digraphINS_15twa_graph_stateENS_19twa_graph_edge_dataEEEEneES6_, symObjAddr: 0x634, symBinAddr: 0x100001544, symSize: 0x30 }
  - { offsetInCU: 0x5CD55, offset: 0x5CD55, size: 0x8, addend: 0x0, symName: __ZNK4spot8internal13edge_iteratorINS_7digraphINS_15twa_graph_stateENS_19twa_graph_edge_dataEEEEdeEv, symObjAddr: 0x664, symBinAddr: 0x100001574, symSize: 0x2C }
  - { offsetInCU: 0x5CD7B, offset: 0x5CD7B, size: 0x8, addend: 0x0, symName: __ZNK4spot8acc_cond6mark_t4setsEv, symObjAddr: 0x690, symBinAddr: 0x1000015A0, symSize: 0x40 }
  - { offsetInCU: 0x5CDA3, offset: 0x5CDA3, size: 0x8, addend: 0x0, symName: __ZNK4spot8internal14mark_container5beginEv, symObjAddr: 0x6D0, symBinAddr: 0x1000015E0, symSize: 0x40 }
  - { offsetInCU: 0x5CDC9, offset: 0x5CDC9, size: 0x8, addend: 0x0, symName: __ZNK4spot8internal14mark_container3endEv, symObjAddr: 0x710, symBinAddr: 0x100001620, symSize: 0x28 }
  - { offsetInCU: 0x5CDEF, offset: 0x5CDEF, size: 0x8, addend: 0x0, symName: __ZNK4spot8internal13mark_iteratorneES1_, symObjAddr: 0x738, symBinAddr: 0x100001648, symSize: 0x48 }
  - { offsetInCU: 0x5CE24, offset: 0x5CE24, size: 0x8, addend: 0x0, symName: __ZNK4spot8internal13mark_iteratordeEv, symObjAddr: 0x780, symBinAddr: 0x100001690, symSize: 0x44 }
  - { offsetInCU: 0x5CE4A, offset: 0x5CE4A, size: 0x8, addend: 0x0, symName: __ZN4spot8internal13mark_iteratorppEv, symObjAddr: 0x7C4, symBinAddr: 0x1000016D4, symSize: 0x38 }
  - { offsetInCU: 0x5CE70, offset: 0x5CE70, size: 0x8, addend: 0x0, symName: __ZN4spot8internal13edge_iteratorINS_7digraphINS_15twa_graph_stateENS_19twa_graph_edge_dataEEEEppEv, symObjAddr: 0x7FC, symBinAddr: 0x10000170C, symSize: 0x44 }
  - { offsetInCU: 0x5CE95, offset: 0x5CE95, size: 0x8, addend: 0x0, symName: __Z18is_accepting_stateNSt3__110shared_ptrIN4spot9twa_graphEEEj, symObjAddr: 0x840, symBinAddr: 0x100001750, symSize: 0x128 }
  - { offsetInCU: 0x5CF79, offset: 0x5CF79, size: 0x8, addend: 0x0, symName: __Z17is_accepting_sinkNSt3__110shared_ptrIN4spot9twa_graphEEEjb, symObjAddr: 0x968, symBinAddr: 0x100001878, symSize: 0x31C }
  - { offsetInCU: 0x5D06B, offset: 0x5D06B, size: 0x8, addend: 0x0, symName: __ZNSt3__110shared_ptrIN4spot9twa_graphEEC1B7v160006ERKS3_, symObjAddr: 0xC84, symBinAddr: 0x100001B94, symSize: 0x34 }
  - { offsetInCU: 0x5D0A4, offset: 0x5D0A4, size: 0x8, addend: 0x0, symName: __ZNSt3__110shared_ptrIN4spot9twa_graphEED1B7v160006Ev, symObjAddr: 0xCB8, symBinAddr: 0x100001BC8, symSize: 0x2C }
  - { offsetInCU: 0x5D0CE, offset: 0x5D0CE, size: 0x8, addend: 0x0, symName: __ZN4spot8internal12edge_storageIjjjNS0_11boxed_labelINS_19twa_graph_edge_dataELb0EEEEC1ERKS5_, symObjAddr: 0xCE4, symBinAddr: 0x100001BF4, symSize: 0x34 }
  - { offsetInCU: 0x5D103, offset: 0x5D103, size: 0x8, addend: 0x0, symName: __ZN4spot9twa_graph12is_univ_destEj, symObjAddr: 0xD18, symBinAddr: 0x100001C28, symSize: 0x20 }
  - { offsetInCU: 0x5D127, offset: 0x5D127, size: 0x8, addend: 0x0, symName: __ZNK4spot9twa_graph10univ_destsEj, symObjAddr: 0xD38, symBinAddr: 0x100001C48, symSize: 0x38 }
  - { offsetInCU: 0x5D15C, offset: 0x5D15C, size: 0x8, addend: 0x0, symName: __ZNK4spot8internal21const_universal_dests5beginEv, symObjAddr: 0xD70, symBinAddr: 0x100001C80, symSize: 0x18 }
  - { offsetInCU: 0x5D182, offset: 0x5D182, size: 0x8, addend: 0x0, symName: __ZNK4spot8internal21const_universal_dests3endEv, symObjAddr: 0xD88, symBinAddr: 0x100001C98, symSize: 0x18 }
  - { offsetInCU: 0x5D1A8, offset: 0x5D1A8, size: 0x8, addend: 0x0, symName: __ZN4spot8internal12edge_storageIjjjNS0_11boxed_labelINS_19twa_graph_edge_dataELb0EEEED1Ev, symObjAddr: 0xDA0, symBinAddr: 0x100001CB0, symSize: 0x2C }
  - { offsetInCU: 0x5D1D4, offset: 0x5D1D4, size: 0x8, addend: 0x0, symName: __Z19print_expansion_keyN5boost9unordered13unordered_mapI4PairjNS_4hashIS2_EENSt3__18equal_toIS2_EENS5_9allocatorINS5_4pairIKS2_jEEEEEE, symObjAddr: 0xDCC, symBinAddr: 0x100001CDC, symSize: 0x104 }
  - { offsetInCU: 0x5D29C, offset: 0x5D29C, size: 0x8, addend: 0x0, symName: __ZN5boost9unordered13unordered_mapI4PairjNS_4hashIS2_EENSt3__18equal_toIS2_EENS5_9allocatorINS5_4pairIKS2_jEEEEE5beginEv, symObjAddr: 0xED0, symBinAddr: 0x100001DE0, symSize: 0x2C }
  - { offsetInCU: 0x5D2C2, offset: 0x5D2C2, size: 0x8, addend: 0x0, symName: __ZN5boost9unordered13unordered_mapI4PairjNS_4hashIS2_EENSt3__18equal_toIS2_EENS5_9allocatorINS5_4pairIKS2_jEEEEE3endEv, symObjAddr: 0xEFC, symBinAddr: 0x100001E0C, symSize: 0x34 }
  - { offsetInCU: 0x5D2E8, offset: 0x5D2E8, size: 0x8, addend: 0x0, symName: __ZNK5boost9unordered6detail15iterator_detail8iteratorINS1_4nodeINSt3__14pairIK4PairjEEPvEENS1_6bucketISB_SA_EEEneERKSE_, symObjAddr: 0xF30, symBinAddr: 0x100001E40, symSize: 0x34 }
  - { offsetInCU: 0x5D31D, offset: 0x5D31D, size: 0x8, addend: 0x0, symName: __ZNK5boost9unordered6detail15iterator_detail8iteratorINS1_4nodeINSt3__14pairIK4PairjEEPvEENS1_6bucketISB_SA_EEEdeEv, symObjAddr: 0xF64, symBinAddr: 0x100001E74, symSize: 0x24 }
  - { offsetInCU: 0x5D343, offset: 0x5D343, size: 0x8, addend: 0x0, symName: __ZNSt3__113basic_ostreamIcNS_11char_traitsIcEEElsB7v160006EPFRS3_S4_E, symObjAddr: 0x1018, symBinAddr: 0x100001F28, symSize: 0x2C }
  - { offsetInCU: 0x5D377, offset: 0x5D377, size: 0x8, addend: 0x0, symName: __ZN5boost9unordered6detail15iterator_detail8iteratorINS1_4nodeINSt3__14pairIK4PairjEEPvEENS1_6bucketISB_SA_EEEppEv, symObjAddr: 0x109C, symBinAddr: 0x100001FAC, symSize: 0x2C }
  - { offsetInCU: 0x5D39C, offset: 0x5D39C, size: 0x8, addend: 0x0, symName: __Z19get_or_create_stateNSt3__110shared_ptrIN4spot9twa_graphEEERN5boost9unordered13unordered_mapI4PairjNS4_4hashIS7_EENS_8equal_toIS7_EENS_9allocatorINS_4pairIKS7_jEEEEEEjj, symObjAddr: 0x10C8, symBinAddr: 0x100001FD8, symSize: 0xC8 }
  - { offsetInCU: 0x5D421, offset: 0x5D421, size: 0x8, addend: 0x0, symName: __ZN4PairC1Ejj, symObjAddr: 0x1190, symBinAddr: 0x1000020A0, symSize: 0x3C }
  - { offsetInCU: 0x5D467, offset: 0x5D467, size: 0x8, addend: 0x0, symName: __ZNK5boost9unordered13unordered_mapI4PairjNS_4hashIS2_EENSt3__18equal_toIS2_EENS5_9allocatorINS5_4pairIKS2_jEEEEE5countERSA_, symObjAddr: 0x11CC, symBinAddr: 0x1000020DC, symSize: 0x4C }
  - { offsetInCU: 0x5D49E, offset: 0x5D49E, size: 0x8, addend: 0x0, symName: __ZN4spot9twa_graph9new_stateEv, symObjAddr: 0x1218, symBinAddr: 0x100002128, symSize: 0x28 }
  - { offsetInCU: 0x5D4C4, offset: 0x5D4C4, size: 0x8, addend: 0x0, symName: __ZN5boost9unordered13unordered_mapI4PairjNS_4hashIS2_EENSt3__18equal_toIS2_EENS5_9allocatorINS5_4pairIKS2_jEEEEEixERSA_, symObjAddr: 0x1240, symBinAddr: 0x100002150, symSize: 0x40 }
  - { offsetInCU: 0x5D559, offset: 0x5D559, size: 0x8, addend: 0x0, symName: __ZNSt3__15tupleIJbjEEC1B7v160006IJRbRjELi0EEEDpOT_, symObjAddr: 0x1280, symBinAddr: 0x100002190, symSize: 0x3C }
  - { offsetInCU: 0x5D5B7, offset: 0x5D5B7, size: 0x8, addend: 0x0, symName: __ZNK4spot3twa14prop_universalEv, symObjAddr: 0x19C4, symBinAddr: 0x1000028D4, symSize: 0x4C }
  - { offsetInCU: 0x5D5DD, offset: 0x5D5DD, size: 0x8, addend: 0x0, symName: __ZN4spot6trivalC1Eb, symObjAddr: 0x1A10, symBinAddr: 0x100002920, symSize: 0x40 }
  - { offsetInCU: 0x5D615, offset: 0x5D615, size: 0x8, addend: 0x0, symName: __ZNSt16invalid_argumentC1B7v160006EPKc, symObjAddr: 0x1A50, symBinAddr: 0x100002960, symSize: 0x34 }
  - { offsetInCU: 0x5D64D, offset: 0x5D64D, size: 0x8, addend: 0x0, symName: __ZNK4spot3twa14get_acceptanceEv, symObjAddr: 0x1A84, symBinAddr: 0x100002994, symSize: 0x28 }
  - { offsetInCU: 0x5D673, offset: 0x5D673, size: 0x8, addend: 0x0, symName: __ZN4spot8acc_condC1ERKNS0_8acc_codeE, symObjAddr: 0x1AAC, symBinAddr: 0x1000029BC, symSize: 0x34 }
  - { offsetInCU: 0x5D6AC, offset: 0x5D6AC, size: 0x8, addend: 0x0, symName: __ZNK4spot8acc_cond11is_co_buchiEv, symObjAddr: 0x1AE0, symBinAddr: 0x1000029F0, symSize: 0x58 }
  - { offsetInCU: 0x5D6D2, offset: 0x5D6D2, size: 0x8, addend: 0x0, symName: __ZNK4spot8acc_cond8num_setsEv, symObjAddr: 0x1B38, symBinAddr: 0x100002A48, symSize: 0x18 }
  - { offsetInCU: 0x5D6F8, offset: 0x5D6F8, size: 0x8, addend: 0x0, symName: __ZNK4spot8acc_cond7fin_oneEv, symObjAddr: 0x1B50, symBinAddr: 0x100002A60, symSize: 0x28 }
  - { offsetInCU: 0x5D71E, offset: 0x5D71E, size: 0x8, addend: 0x0, symName: __ZNK4spot3twa8get_dictEv, symObjAddr: 0x1BA4, symBinAddr: 0x100002AB4, symSize: 0x3C }
  - { offsetInCU: 0x5D744, offset: 0x5D744, size: 0x8, addend: 0x0, symName: __ZNSt3__110shared_ptrIN4spot8bdd_dictEED1B7v160006Ev, symObjAddr: 0x1BE0, symBinAddr: 0x100002AF0, symSize: 0x2C }
  - { offsetInCU: 0x5D76E, offset: 0x5D76E, size: 0x8, addend: 0x0, symName: __ZN4spot3twa18copy_acceptance_ofERKNSt3__110shared_ptrIKS0_EE, symObjAddr: 0x1C0C, symBinAddr: 0x100002B1C, symSize: 0x44 }
  - { offsetInCU: 0x5D7A3, offset: 0x5D7A3, size: 0x8, addend: 0x0, symName: __ZNSt3__110shared_ptrIKN4spot3twaEEC1B7v160006INS1_9twa_graphEvEERKNS0_IT_EE, symObjAddr: 0x1C50, symBinAddr: 0x100002B60, symSize: 0x34 }
  - { offsetInCU: 0x5D7E6, offset: 0x5D7E6, size: 0x8, addend: 0x0, symName: __ZNSt3__110shared_ptrIKN4spot3twaEED1B7v160006Ev, symObjAddr: 0x1C84, symBinAddr: 0x100002B94, symSize: 0x2C }
  - { offsetInCU: 0x5D810, offset: 0x5D810, size: 0x8, addend: 0x0, symName: __ZN4spot3twa10copy_ap_ofERKNSt3__110shared_ptrIKS0_EE, symObjAddr: 0x1CB0, symBinAddr: 0x100002BC0, symSize: 0xE8 }
  - { offsetInCU: 0x5D889, offset: 0x5D889, size: 0x8, addend: 0x0, symName: __ZN4spot3twa14prop_state_accENS_6trivalE, symObjAddr: 0x1D98, symBinAddr: 0x100002CA8, symSize: 0x68 }
  - { offsetInCU: 0x5D8BE, offset: 0x5D8BE, size: 0x8, addend: 0x0, symName: __ZN5boost9unordered13unordered_mapI4PairjNS_4hashIS2_EENSt3__18equal_toIS2_EENS5_9allocatorINS5_4pairIKS2_jEEEEEC1Ev, symObjAddr: 0x1E00, symBinAddr: 0x100002D10, symSize: 0x2C }
  - { offsetInCU: 0x5D8EA, offset: 0x5D8EA, size: 0x8, addend: 0x0, symName: '__ZNSt3__18functionIFjvEEC1IZ15kcobuchi_expandNS_10shared_ptrIN4spot9twa_graphEEEjbE3$_0vEET_', symObjAddr: 0x1E2C, symBinAddr: 0x100002D3C, symSize: 0x34 }
  - { offsetInCU: 0x5D930, offset: 0x5D930, size: 0x8, addend: 0x0, symName: '__ZNSt3__18functionIFvjjjEEC1IZ15kcobuchi_expandNS_10shared_ptrIN4spot9twa_graphEEEjbE3$_1vEET_', symObjAddr: 0x1E60, symBinAddr: 0x100002D70, symSize: 0x34 }
  - { offsetInCU: 0x5D976, offset: 0x5D976, size: 0x8, addend: 0x0, symName: __ZNK4spot9twa_graph21get_init_state_numberEv, symObjAddr: 0x1E94, symBinAddr: 0x100002DA4, symSize: 0x98 }
  - { offsetInCU: 0x5D99C, offset: 0x5D99C, size: 0x8, addend: 0x0, symName: __ZN5boost9unordered13unordered_mapI4PairjNS_4hashIS2_EENSt3__18equal_toIS2_EENS5_9allocatorINS5_4pairIKS2_jEEEEEixEOS2_, symObjAddr: 0x1F2C, symBinAddr: 0x100002E3C, symSize: 0x40 }
  - { offsetInCU: 0x5D9D3, offset: 0x5D9D3, size: 0x8, addend: 0x0, symName: __ZNKSt3__18functionIFvjjjEEclEjjj, symObjAddr: 0x1F6C, symBinAddr: 0x100002E7C, symSize: 0x48 }
  - { offsetInCU: 0x5DA28, offset: 0x5DA28, size: 0x8, addend: 0x0, symName: __ZN5boost9unordered13unordered_mapI4PairjNS_4hashIS2_EENSt3__18equal_toIS2_EENS5_9allocatorINS5_4pairIKS2_jEEEEEC1ERKSD_, symObjAddr: 0x1FB4, symBinAddr: 0x100002EC4, symSize: 0x34 }
  - { offsetInCU: 0x5DA62, offset: 0x5DA62, size: 0x8, addend: 0x0, symName: __ZN5boost9unordered13unordered_mapI4PairjNS_4hashIS2_EENSt3__18equal_toIS2_EENS5_9allocatorINS5_4pairIKS2_jEEEEED1Ev, symObjAddr: 0x1FE8, symBinAddr: 0x100002EF8, symSize: 0x2C }
  - { offsetInCU: 0x5DA8E, offset: 0x5DA8E, size: 0x8, addend: 0x0, symName: __ZNSt3__18functionIFvjjjEED1Ev, symObjAddr: 0x2014, symBinAddr: 0x100002F24, symSize: 0x2C }
  - { offsetInCU: 0x5DABA, offset: 0x5DABA, size: 0x8, addend: 0x0, symName: __ZNSt3__18functionIFjvEED1Ev, symObjAddr: 0x2040, symBinAddr: 0x100002F50, symSize: 0x2C }
  - { offsetInCU: 0x5DAE6, offset: 0x5DAE6, size: 0x8, addend: 0x0, symName: __ZN4spot8acc_condD1Ev, symObjAddr: 0x206C, symBinAddr: 0x100002F7C, symSize: 0x2C }
  - { offsetInCU: 0x5DB0F, offset: 0x5DB0F, size: 0x8, addend: 0x0, symName: __Z13get_all_destsNSt3__110shared_ptrIN4spot9twa_graphEEEj, symObjAddr: 0x2098, symBinAddr: 0x100002FA8, symSize: 0x290 }
  - { offsetInCU: 0x5DC02, offset: 0x5DC02, size: 0x8, addend: 0x0, symName: __ZNSt3__16vectorIjNS_9allocatorIjEEEC1B7v160006Ev, symObjAddr: 0x2328, symBinAddr: 0x100003238, symSize: 0x2C }
  - { offsetInCU: 0x5DC2C, offset: 0x5DC2C, size: 0x8, addend: 0x0, symName: __ZNSt3__16vectorIjNS_9allocatorIjEEE9push_backB7v160006ERKj, symObjAddr: 0x2354, symBinAddr: 0x100003264, symSize: 0x6C }
  - { offsetInCU: 0x5DC63, offset: 0x5DC63, size: 0x8, addend: 0x0, symName: __ZNSt3__16vectorIjNS_9allocatorIjEEED1B7v160006Ev, symObjAddr: 0x23C0, symBinAddr: 0x1000032D0, symSize: 0x2C }
  - { offsetInCU: 0x5DC8C, offset: 0x5DC8C, size: 0x8, addend: 0x0, symName: __Z25get_unspecified_edge_condN4spot8internal9state_outINS_7digraphINS_15twa_graph_stateENS_19twa_graph_edge_dataEEEEE, symObjAddr: 0x23EC, symBinAddr: 0x1000032FC, symSize: 0x1A8 }
  - { offsetInCU: 0x5DD18, offset: 0x5DD18, size: 0x8, addend: 0x0, symName: __ZN3bddmIERKS_, symObjAddr: 0x2594, symBinAddr: 0x1000034A4, symSize: 0x5C }
  - { offsetInCU: 0x5DD4F, offset: 0x5DD4F, size: 0x8, addend: 0x0, symName: __ZN4spot3twa14set_acceptanceERKNS_8acc_condE, symObjAddr: 0x2838, symBinAddr: 0x100003748, symSize: 0x30 }
  - { offsetInCU: 0x5DD84, offset: 0x5DD84, size: 0x8, addend: 0x0, symName: __ZN4spot8acc_cond8acc_code3finESt16initializer_listIjE, symObjAddr: 0x2868, symBinAddr: 0x100003778, symSize: 0x54 }
  - { offsetInCU: 0x5DDA8, offset: 0x5DDA8, size: 0x8, addend: 0x0, symName: __ZN4spot8acc_cond8acc_codeD1Ev, symObjAddr: 0x28BC, symBinAddr: 0x1000037CC, symSize: 0x2C }
  - { offsetInCU: 0x5DDD5, offset: 0x5DDD5, size: 0x8, addend: 0x0, symName: __ZNSt3__113unordered_setIjNS_4hashIjEENS_8equal_toIjEENS_9allocatorIjEEEC1B7v160006Ev, symObjAddr: 0x28E8, symBinAddr: 0x1000037F8, symSize: 0x2C }
  - { offsetInCU: 0x5DDFF, offset: 0x5DDFF, size: 0x8, addend: 0x0, symName: '__ZNSt3__18functionIFvjEEC1IZ21complete_coBuchi_hereNS_10shared_ptrIN4spot9twa_graphEEEE3$_2vEET_', symObjAddr: 0x2914, symBinAddr: 0x100003824, symSize: 0x34 }
  - { offsetInCU: 0x5DE45, offset: 0x5DE45, size: 0x8, addend: 0x0, symName: __ZNKSt3__18functionIFvjEEclEj, symObjAddr: 0x2948, symBinAddr: 0x100003858, symSize: 0x30 }
  - { offsetInCU: 0x5DE7C, offset: 0x5DE7C, size: 0x8, addend: 0x0, symName: __ZNSt3__18functionIFvjEED1Ev, symObjAddr: 0x2978, symBinAddr: 0x100003888, symSize: 0x2C }
  - { offsetInCU: 0x5DEA8, offset: 0x5DEA8, size: 0x8, addend: 0x0, symName: __ZNSt3__113unordered_setIjNS_4hashIjEENS_8equal_toIjEENS_9allocatorIjEEED1B7v160006Ev, symObjAddr: 0x29A4, symBinAddr: 0x1000038B4, symSize: 0x2C }
  - { offsetInCU: 0x5DED1, offset: 0x5DED1, size: 0x8, addend: 0x0, symName: __Z23dualize_to_univ_coBuchiNSt3__110shared_ptrIN4spot9twa_graphEEE, symObjAddr: 0x29D0, symBinAddr: 0x1000038E0, symSize: 0x260 }
  - { offsetInCU: 0x5DF20, offset: 0x5DF20, size: 0x8, addend: 0x0, symName: __ZNK4spot8acc_cond8is_buchiEv, symObjAddr: 0x2C30, symBinAddr: 0x100003B40, symSize: 0xE8 }
  - { offsetInCU: 0x5DF55, offset: 0x5DF55, size: 0x8, addend: 0x0, symName: __ZNSt3__110shared_ptrIKN4spot9twa_graphEEC1B7v160006IS2_vEERKNS0_IT_EE, symObjAddr: 0x2D18, symBinAddr: 0x100003C28, symSize: 0x34 }
  - { offsetInCU: 0x5DF98, offset: 0x5DF98, size: 0x8, addend: 0x0, symName: __ZNSt3__110shared_ptrIKN4spot9twa_graphEED1B7v160006Ev, symObjAddr: 0x2D4C, symBinAddr: 0x100003C5C, symSize: 0x2C }
  - { offsetInCU: 0x5DFC2, offset: 0x5DFC2, size: 0x8, addend: 0x0, symName: __ZN4spot8acc_condaSERKS0_, symObjAddr: 0x2D78, symBinAddr: 0x100003C88, symSize: 0x64 }
  - { offsetInCU: 0x5DFF7, offset: 0x5DFF7, size: 0x8, addend: 0x0, symName: __ZNK4spot8acc_cond6is_allEv, symObjAddr: 0x2DDC, symBinAddr: 0x100003CEC, symSize: 0x58 }
  - { offsetInCU: 0x5E01D, offset: 0x5E01D, size: 0x8, addend: 0x0, symName: __ZN4spot3twa14prop_universalENS_6trivalE, symObjAddr: 0x2E34, symBinAddr: 0x100003D44, symSize: 0xF4 }
  - { offsetInCU: 0x5E051, offset: 0x5E051, size: 0x8, addend: 0x0, symName: __Z8dualize2NSt3__110shared_ptrIN4spot9twa_graphEEE, symObjAddr: 0x2F28, symBinAddr: 0x100003E38, symSize: 0x160 }
  - { offsetInCU: 0x5E091, offset: 0x5E091, size: 0x8, addend: 0x0, symName: __ZN4spot3twa8prop_set3allEv, symObjAddr: 0x30CC, symBinAddr: 0x100003FDC, symSize: 0x5C }
  - { offsetInCU: 0x5E0A4, offset: 0x5E0A4, size: 0x8, addend: 0x0, symName: __Z16string_to_prefixNSt3__110shared_ptrIN4spot8bdd_dictEEENS_12basic_stringIcNS_11char_traitsIcEENS_9allocatorIcEEEEb, symObjAddr: 0x3128, symBinAddr: 0x100004038, symSize: 0x300 }
  - { offsetInCU: 0x5E17E, offset: 0x5E17E, size: 0x8, addend: 0x0, symName: __ZNKSt3__110shared_ptrIN4spot8bdd_dictEEptB7v160006Ev, symObjAddr: 0x3454, symBinAddr: 0x100004364, symSize: 0x18 }
  - { offsetInCU: 0x5E1A4, offset: 0x5E1A4, size: 0x8, addend: 0x0, symName: __ZNSt3__13mapIN4spot7formulaEiNS_4lessIS2_EENS_9allocatorINS_4pairIKS2_iEEEEEC1B7v160006ERKSA_, symObjAddr: 0x346C, symBinAddr: 0x10000437C, symSize: 0x34 }
  - { offsetInCU: 0x5E1DD, offset: 0x5E1DD, size: 0x8, addend: 0x0, symName: __ZNSt3__112basic_stringIcNS_11char_traitsIcEENS_9allocatorIcEEE5beginB7v160006Ev, symObjAddr: 0x34A0, symBinAddr: 0x1000043B0, symSize: 0x4C }
  - { offsetInCU: 0x5E203, offset: 0x5E203, size: 0x8, addend: 0x0, symName: __ZNSt3__112basic_stringIcNS_11char_traitsIcEENS_9allocatorIcEEE3endB7v160006Ev, symObjAddr: 0x34EC, symBinAddr: 0x1000043FC, symSize: 0x54 }
  - { offsetInCU: 0x5E229, offset: 0x5E229, size: 0x8, addend: 0x0, symName: __ZNKSt3__111__wrap_iterIPcEdeB7v160006Ev, symObjAddr: 0x3574, symBinAddr: 0x100004484, symSize: 0x18 }
  - { offsetInCU: 0x5E24F, offset: 0x5E24F, size: 0x8, addend: 0x0, symName: __ZNSt3__112basic_stringIcNS_11char_traitsIcEENS_9allocatorIcEEEC1B7v160006ESt16initializer_listIcE, symObjAddr: 0x358C, symBinAddr: 0x10000449C, symSize: 0x3C }
  - { offsetInCU: 0x5E288, offset: 0x5E288, size: 0x8, addend: 0x0, symName: __ZN4spot7formula2apERKNSt3__112basic_stringIcNS1_11char_traitsIcEENS1_9allocatorIcEEEE, symObjAddr: 0x35C8, symBinAddr: 0x1000044D8, symSize: 0x38 }
  - { offsetInCU: 0x5E2AC, offset: 0x5E2AC, size: 0x8, addend: 0x0, symName: __ZNKSt3__13mapIN4spot7formulaEiNS_4lessIS2_EENS_9allocatorINS_4pairIKS2_iEEEEE5countB7v160006ERS7_, symObjAddr: 0x3600, symBinAddr: 0x100004510, symSize: 0x2C }
  - { offsetInCU: 0x5E2E1, offset: 0x5E2E1, size: 0x8, addend: 0x0, symName: __ZNKSt3__110shared_ptrIN4spot8twa_wordEEptB7v160006Ev, symObjAddr: 0x362C, symBinAddr: 0x10000453C, symSize: 0x18 }
  - { offsetInCU: 0x5E307, offset: 0x5E307, size: 0x8, addend: 0x0, symName: __ZNSt3__14listI3bddNS_9allocatorIS1_EEE9push_backEOS1_, symObjAddr: 0x3644, symBinAddr: 0x100004554, symSize: 0xF4 }
  - { offsetInCU: 0x5E35B, offset: 0x5E35B, size: 0x8, addend: 0x0, symName: __Z13bdd_nithvarppi, symObjAddr: 0x3738, symBinAddr: 0x100004648, symSize: 0x38 }
  - { offsetInCU: 0x5E389, offset: 0x5E389, size: 0x8, addend: 0x0, symName: __Z12bdd_ithvarppi, symObjAddr: 0x3770, symBinAddr: 0x100004680, symSize: 0x38 }
  - { offsetInCU: 0x5E3B8, offset: 0x5E3B8, size: 0x8, addend: 0x0, symName: __ZNSt3__13mapIN4spot7formulaEiNS_4lessIS2_EENS_9allocatorINS_4pairIKS2_iEEEEE2atERS7_, symObjAddr: 0x37A8, symBinAddr: 0x1000046B8, symSize: 0x6C }
  - { offsetInCU: 0x5E40D, offset: 0x5E40D, size: 0x8, addend: 0x0, symName: __ZN4spot7formulaD1Ev, symObjAddr: 0x3814, symBinAddr: 0x100004724, symSize: 0x2C }
  - { offsetInCU: 0x5E437, offset: 0x5E437, size: 0x8, addend: 0x0, symName: __ZNSt3__111__wrap_iterIPcEppB7v160006Ev, symObjAddr: 0x3840, symBinAddr: 0x100004750, symSize: 0x20 }
  - { offsetInCU: 0x5E45D, offset: 0x5E45D, size: 0x8, addend: 0x0, symName: __ZNSt3__13mapIN4spot7formulaEiNS_4lessIS2_EENS_9allocatorINS_4pairIKS2_iEEEEED1B7v160006Ev, symObjAddr: 0x3860, symBinAddr: 0x100004770, symSize: 0x2C }
  - { offsetInCU: 0x5E487, offset: 0x5E487, size: 0x8, addend: 0x0, symName: __ZNSt3__110shared_ptrIN4spot8twa_wordEED1B7v160006Ev, symObjAddr: 0x388C, symBinAddr: 0x10000479C, symSize: 0x2C }
  - { offsetInCU: 0x5E4B0, offset: 0x5E4B0, size: 0x8, addend: 0x0, symName: __Z16prefix_to_stringNSt3__110shared_ptrIN4spot8bdd_dictEEENS0_INS1_8twa_wordEEE, symObjAddr: 0x38B8, symBinAddr: 0x1000047C8, symSize: 0x1C4 }
  - { offsetInCU: 0x5E61A, offset: 0x5E61A, size: 0x8, addend: 0x0, symName: __ZNSt3__118basic_stringstreamIcNS_11char_traitsIcEENS_9allocatorIcEEEC1B7v160006Ev, symObjAddr: 0x3A7C, symBinAddr: 0x10000498C, symSize: 0x104 }
  - { offsetInCU: 0x5E644, offset: 0x5E644, size: 0x8, addend: 0x0, symName: __ZNSt3__14listI3bddNS_9allocatorIS1_EEE5beginB7v160006Ev, symObjAddr: 0x3B80, symBinAddr: 0x100004A90, symSize: 0x2C }
  - { offsetInCU: 0x5E66A, offset: 0x5E66A, size: 0x8, addend: 0x0, symName: __ZNSt3__14listI3bddNS_9allocatorIS1_EEE3endB7v160006Ev, symObjAddr: 0x3BAC, symBinAddr: 0x100004ABC, symSize: 0x2C }
  - { offsetInCU: 0x5E690, offset: 0x5E690, size: 0x8, addend: 0x0, symName: __ZNKSt3__115__list_iteratorI3bddPvEdeB7v160006Ev, symObjAddr: 0x3C0C, symBinAddr: 0x100004B1C, symSize: 0x2C }
  - { offsetInCU: 0x5E6B6, offset: 0x5E6B6, size: 0x8, addend: 0x0, symName: __ZN3bddC1ERKS_, symObjAddr: 0x3C38, symBinAddr: 0x100004B48, symSize: 0x34 }
  - { offsetInCU: 0x5E6EF, offset: 0x5E6EF, size: 0x8, addend: 0x0, symName: __ZNSt3__110shared_ptrIN4spot8bdd_dictEEC1B7v160006ERKS3_, symObjAddr: 0x3C6C, symBinAddr: 0x100004B7C, symSize: 0x34 }
  - { offsetInCU: 0x5E728, offset: 0x5E728, size: 0x8, addend: 0x0, symName: __ZNSt3__115__list_iteratorI3bddPvEppB7v160006Ev, symObjAddr: 0x3CA0, symBinAddr: 0x100004BB0, symSize: 0x20 }
  - { offsetInCU: 0x5E74E, offset: 0x5E74E, size: 0x8, addend: 0x0, symName: __ZNKSt3__118basic_stringstreamIcNS_11char_traitsIcEENS_9allocatorIcEEE3strB7v160006Ev, symObjAddr: 0x3CC0, symBinAddr: 0x100004BD0, symSize: 0x30 }
  - { offsetInCU: 0x5E779, offset: 0x5E779, size: 0x8, addend: 0x0, symName: __ZNSt3__118basic_stringstreamIcNS_11char_traitsIcEENS_9allocatorIcEEED1Ev, symObjAddr: 0x3CF0, symBinAddr: 0x100004C00, symSize: 0x40 }
  - { offsetInCU: 0x5E7A5, offset: 0x5E7A5, size: 0x8, addend: 0x0, symName: __Z21letter_satisfies_cond3bddS_, symObjAddr: 0x3D30, symBinAddr: 0x100004C40, symSize: 0x68 }
  - { offsetInCU: 0x5E7E1, offset: 0x5E7E1, size: 0x8, addend: 0x0, symName: __Z9bdd_applyRK3bddS1_i, symObjAddr: 0x3D98, symBinAddr: 0x100004CA8, symSize: 0x50 }
  - { offsetInCU: 0x5E82E, offset: 0x5E82E, size: 0x8, addend: 0x0, symName: __ZNK3bddeqERK8bddxtrue, symObjAddr: 0x3DE8, symBinAddr: 0x100004CF8, symSize: 0x28 }
  - { offsetInCU: 0x5E861, offset: 0x5E861, size: 0x8, addend: 0x0, symName: __ZNSt3__14listI3bddNS_9allocatorIS1_EEEC1ERKS4_, symObjAddr: 0x40E0, symBinAddr: 0x100004FF0, symSize: 0x34 }
  - { offsetInCU: 0x5E89C, offset: 0x5E89C, size: 0x8, addend: 0x0, symName: __ZNKSt3__14listI3bddNS_9allocatorIS1_EEE4sizeB7v160006Ev, symObjAddr: 0x4114, symBinAddr: 0x100005024, symSize: 0x28 }
  - { offsetInCU: 0x5E8C2, offset: 0x5E8C2, size: 0x8, addend: 0x0, symName: '__ZNSt3__18functionIFbjNS_15__list_iteratorI3bddPvEES4_EEC1IZ21prefix_hits_acceptingNS_10shared_ptrIN4spot9twa_graphEEENS8_INS9_8twa_wordEEEbE3$_3vEET_', symObjAddr: 0x413C, symBinAddr: 0x10000504C, symSize: 0x34 }
  - { offsetInCU: 0x5E908, offset: 0x5E908, size: 0x8, addend: 0x0, symName: __ZNKSt3__18functionIFbjNS_15__list_iteratorI3bddPvEES4_EEclEjS4_S4_, symObjAddr: 0x4170, symBinAddr: 0x100005080, symSize: 0x4C }
  - { offsetInCU: 0x5E95D, offset: 0x5E95D, size: 0x8, addend: 0x0, symName: __ZNSt3__16vectorIjNS_9allocatorIjEEE6rbeginB7v160006Ev, symObjAddr: 0x41BC, symBinAddr: 0x1000050CC, symSize: 0x44 }
  - { offsetInCU: 0x5E983, offset: 0x5E983, size: 0x8, addend: 0x0, symName: __ZNSt3__16vectorIjNS_9allocatorIjEEE4rendB7v160006Ev, symObjAddr: 0x4254, symBinAddr: 0x100005164, symSize: 0x44 }
  - { offsetInCU: 0x5E9A9, offset: 0x5E9A9, size: 0x8, addend: 0x0, symName: __ZNKSt3__116reverse_iteratorINS_11__wrap_iterIPjEEEdeB7v160006Ev, symObjAddr: 0x4298, symBinAddr: 0x1000051A8, symSize: 0x34 }
  - { offsetInCU: 0x5E9DE, offset: 0x5E9DE, size: 0x8, addend: 0x0, symName: __ZNSt3__116reverse_iteratorINS_11__wrap_iterIPjEEEppB7v160006Ev, symObjAddr: 0x42CC, symBinAddr: 0x1000051DC, symSize: 0x30 }
  - { offsetInCU: 0x5EA04, offset: 0x5EA04, size: 0x8, addend: 0x0, symName: __ZNSt3__18functionIFbjNS_15__list_iteratorI3bddPvEES4_EED1Ev, symObjAddr: 0x42FC, symBinAddr: 0x10000520C, symSize: 0x2C }
  - { offsetInCU: 0x5EA30, offset: 0x5EA30, size: 0x8, addend: 0x0, symName: __ZNSt3__14listI3bddNS_9allocatorIS1_EEED1Ev, symObjAddr: 0x4328, symBinAddr: 0x100005238, symSize: 0x2C }
  - { offsetInCU: 0x5EA5C, offset: 0x5EA5C, size: 0x8, addend: 0x0, symName: __Z9get_buchiN4spot7formulaE, symObjAddr: 0x4354, symBinAddr: 0x100005264, symSize: 0x118 }
  - { offsetInCU: 0x5EAE4, offset: 0x5EAE4, size: 0x8, addend: 0x0, symName: __ZN4spot10translatorC1EPKNS_10option_mapE, symObjAddr: 0x446C, symBinAddr: 0x10000537C, symSize: 0x34 }
  - { offsetInCU: 0x5EB1C, offset: 0x5EB1C, size: 0x8, addend: 0x0, symName: __ZN4spot10translator8set_typeENS_13postprocessor11output_typeE, symObjAddr: 0x44A0, symBinAddr: 0x1000053B0, symSize: 0x2C }
  - { offsetInCU: 0x5EB50, offset: 0x5EB50, size: 0x8, addend: 0x0, symName: __ZN4spot10translator9set_levelENS_13postprocessor18optimization_levelE, symObjAddr: 0x44CC, symBinAddr: 0x1000053DC, symSize: 0xEC }
  - { offsetInCU: 0x5EB9A, offset: 0x5EB9A, size: 0x8, addend: 0x0, symName: __ZN4spot10translator8set_prefEi, symObjAddr: 0x45B8, symBinAddr: 0x1000054C8, symSize: 0x2C }
  - { offsetInCU: 0x5EBCE, offset: 0x5EBCE, size: 0x8, addend: 0x0, symName: __ZN4spot7formulaC1ERKS0_, symObjAddr: 0x45E4, symBinAddr: 0x1000054F4, symSize: 0x34 }
  - { offsetInCU: 0x5EC07, offset: 0x5EC07, size: 0x8, addend: 0x0, symName: __ZN4spot10translatorD1Ev, symObjAddr: 0x4618, symBinAddr: 0x100005528, symSize: 0x2C }
  - { offsetInCU: 0x5EC31, offset: 0x5EC31, size: 0x8, addend: 0x0, symName: __Z20generate_graph_imageNSt3__110shared_ptrIN4spot9twa_graphEEEbNS_12basic_stringIcNS_11char_traitsIcEENS_9allocatorIcEEEE, symObjAddr: 0x4644, symBinAddr: 0x100005554, symSize: 0x1A0 }
  - { offsetInCU: 0x5ED43, offset: 0x5ED43, size: 0x8, addend: 0x0, symName: __ZNSt3__114basic_ofstreamIcNS_11char_traitsIcEEEC1Ev, symObjAddr: 0x47E4, symBinAddr: 0x1000056F4, symSize: 0xE8 }
  - { offsetInCU: 0x5ED6F, offset: 0x5ED6F, size: 0x8, addend: 0x0, symName: __ZNSt3__114basic_ofstreamIcNS_11char_traitsIcEEE5closeEv, symObjAddr: 0x48CC, symBinAddr: 0x1000057DC, symSize: 0x58 }
  - { offsetInCU: 0x5ED97, offset: 0x5ED97, size: 0x8, addend: 0x0, symName: __ZNKSt3__112basic_stringIcNS_11char_traitsIcEENS_9allocatorIcEEE5c_strB7v160006Ev, symObjAddr: 0x4964, symBinAddr: 0x100005874, symSize: 0x24 }
  - { offsetInCU: 0x5EDC2, offset: 0x5EDC2, size: 0x8, addend: 0x0, symName: __ZNSt3__114basic_ofstreamIcNS_11char_traitsIcEEED1Ev, symObjAddr: 0x4988, symBinAddr: 0x100005898, symSize: 0x40 }
  - { offsetInCU: 0x5EDEF, offset: 0x5EDEF, size: 0x8, addend: 0x0, symName: _main, symObjAddr: 0x49C8, symBinAddr: 0x1000058D8, symSize: 0x348 }
  - { offsetInCU: 0x5EE5E, offset: 0x5EE5E, size: 0x8, addend: 0x0, symName: __ZNSt3__112basic_stringIcNS_11char_traitsIcEENS_9allocatorIcEEEC1B7v160006IDnEEPKc, symObjAddr: 0x4D10, symBinAddr: 0x100005C20, symSize: 0x34 }
  - { offsetInCU: 0x5EE9C, offset: 0x5EE9C, size: 0x8, addend: 0x0, symName: __ZN4spot7formula3NotERKS0_, symObjAddr: 0x4D44, symBinAddr: 0x100005C54, symSize: 0x30 }
  - { offsetInCU: 0x5EEC0, offset: 0x5EEC0, size: 0x8, addend: 0x0, symName: __Z18display_graph_infoNSt3__110shared_ptrIN4spot9twa_graphEEENS_12basic_stringIcNS_11char_traitsIcEENS_9allocatorIcEEEE, symObjAddr: 0x4D74, symBinAddr: 0x100005C84, symSize: 0xB8 }
  - { offsetInCU: 0x5EEF9, offset: 0x5EEF9, size: 0x8, addend: 0x0, symName: __ZNKSt3__112basic_stringIcNS_11char_traitsIcEENS_9allocatorIcEEE5emptyB7v160006Ev, symObjAddr: 0x4E2C, symBinAddr: 0x100005D3C, symSize: 0x30 }
  - { offsetInCU: 0x5EF1F, offset: 0x5EF1F, size: 0x8, addend: 0x0, symName: __ZN4spot7digraphINS_15twa_graph_stateENS_19twa_graph_edge_dataEE8new_edgeIJR3bddRNS_8acc_cond6mark_tEEEEjjjDpOT_, symObjAddr: 0x4E5C, symBinAddr: 0x100005D6C, symSize: 0x128 }
  - { offsetInCU: 0x5EFAF, offset: 0x5EFAF, size: 0x8, addend: 0x0, symName: __ZNKSt3__16vectorIN4spot8internal12edge_storageIjjjNS2_11boxed_labelINS1_19twa_graph_edge_dataELb0EEEEENS_9allocatorIS7_EEE4sizeB7v160006Ev, symObjAddr: 0x4F84, symBinAddr: 0x100005E94, symSize: 0x28 }
  - { offsetInCU: 0x5EFD5, offset: 0x5EFD5, size: 0x8, addend: 0x0, symName: __ZNSt3__16vectorIN4spot8internal12edge_storageIjjjNS2_11boxed_labelINS1_19twa_graph_edge_dataELb0EEEEENS_9allocatorIS7_EEE12emplace_backIJRjiSC_R3bddRNS1_8acc_cond6mark_tEEEERS7_DpOT_, symObjAddr: 0x4FAC, symBinAddr: 0x100005EBC, symSize: 0xA4 }
  - { offsetInCU: 0x5F067, offset: 0x5F067, size: 0x8, addend: 0x0, symName: __ZNSt3__16vectorIN4spot8internal15distate_storageIjNS2_11boxed_labelINS1_15twa_graph_stateELb0EEEEENS_9allocatorIS7_EEEixB7v160006Em, symObjAddr: 0x5050, symBinAddr: 0x100005F60, symSize: 0x24 }
  - { offsetInCU: 0x5F09E, offset: 0x5F09E, size: 0x8, addend: 0x0, symName: __ZNSt3__16vectorIN4spot8internal12edge_storageIjjjNS2_11boxed_labelINS1_19twa_graph_edge_dataELb0EEEEENS_9allocatorIS7_EEEixB7v160006Em, symObjAddr: 0x5074, symBinAddr: 0x100005F84, symSize: 0x2C }
  - { offsetInCU: 0x5F0D5, offset: 0x5F0D5, size: 0x8, addend: 0x0, symName: __ZNSt3__16vectorIN4spot8internal12edge_storageIjjjNS2_11boxed_labelINS1_19twa_graph_edge_dataELb0EEEEENS_9allocatorIS7_EEE9__end_capB7v160006Ev, symObjAddr: 0x50A0, symBinAddr: 0x100005FB0, symSize: 0x28 }
  - { offsetInCU: 0x5F0FB, offset: 0x5F0FB, size: 0x8, addend: 0x0, symName: __ZNSt3__16vectorIN4spot8internal12edge_storageIjjjNS2_11boxed_labelINS1_19twa_graph_edge_dataELb0EEEEENS_9allocatorIS7_EEE22__construct_one_at_endB7v160006IJRjiSC_R3bddRNS1_8acc_cond6mark_tEEEEvDpOT_, symObjAddr: 0x50C8, symBinAddr: 0x100005FD8, symSize: 0xB0 }
  - { offsetInCU: 0x5F19A, offset: 0x5F19A, size: 0x8, addend: 0x0, symName: __ZNSt3__16vectorIN4spot8internal12edge_storageIjjjNS2_11boxed_labelINS1_19twa_graph_edge_dataELb0EEEEENS_9allocatorIS7_EEE24__emplace_back_slow_pathIJRjiSC_R3bddRNS1_8acc_cond6mark_tEEEEvDpOT_, symObjAddr: 0x5178, symBinAddr: 0x100006088, symSize: 0xF8 }
  - { offsetInCU: 0x5F24A, offset: 0x5F24A, size: 0x8, addend: 0x0, symName: __ZNSt3__16vectorIN4spot8internal12edge_storageIjjjNS2_11boxed_labelINS1_19twa_graph_edge_dataELb0EEEEENS_9allocatorIS7_EEE4backB7v160006Ev, symObjAddr: 0x5270, symBinAddr: 0x100006180, symSize: 0x1C }
  - { offsetInCU: 0x5F270, offset: 0x5F270, size: 0x8, addend: 0x0, symName: __ZNSt3__117__compressed_pairIPN4spot8internal12edge_storageIjjjNS2_11boxed_labelINS1_19twa_graph_edge_dataELb0EEEEENS_9allocatorIS7_EEE5firstB7v160006Ev, symObjAddr: 0x528C, symBinAddr: 0x10000619C, symSize: 0x24 }
  - { offsetInCU: 0x5F296, offset: 0x5F296, size: 0x8, addend: 0x0, symName: __ZNSt3__122__compressed_pair_elemIPN4spot8internal12edge_storageIjjjNS2_11boxed_labelINS1_19twa_graph_edge_dataELb0EEEEELi0ELb0EE5__getB7v160006Ev, symObjAddr: 0x52B0, symBinAddr: 0x1000061C0, symSize: 0x14 }
  - { offsetInCU: 0x5F2D7, offset: 0x5F2D7, size: 0x8, addend: 0x0, symName: __ZNSt3__16vectorIN4spot8internal12edge_storageIjjjNS2_11boxed_labelINS1_19twa_graph_edge_dataELb0EEEEENS_9allocatorIS7_EEE21_ConstructTransactionC1B7v160006ERSA_m, symObjAddr: 0x52C4, symBinAddr: 0x1000061D4, symSize: 0x3C }
  - { offsetInCU: 0x5F31F, offset: 0x5F31F, size: 0x8, addend: 0x0, symName: __ZNSt3__116allocator_traitsINS_9allocatorIN4spot8internal12edge_storageIjjjNS3_11boxed_labelINS2_19twa_graph_edge_dataELb0EEEEEEEE9constructB7v160006IS8_JRjiSC_R3bddRNS2_8acc_cond6mark_tEEvEEvRS9_PT_DpOT0_, symObjAddr: 0x5300, symBinAddr: 0x100006210, symSize: 0x54 }
  - { offsetInCU: 0x5F3C6, offset: 0x5F3C6, size: 0x8, addend: 0x0, symName: __ZNSt3__16vectorIN4spot8internal12edge_storageIjjjNS2_11boxed_labelINS1_19twa_graph_edge_dataELb0EEEEENS_9allocatorIS7_EEE7__allocB7v160006Ev, symObjAddr: 0x5354, symBinAddr: 0x100006264, symSize: 0x28 }
  - { offsetInCU: 0x5F3EC, offset: 0x5F3EC, size: 0x8, addend: 0x0, symName: __ZNSt3__16vectorIN4spot8internal12edge_storageIjjjNS2_11boxed_labelINS1_19twa_graph_edge_dataELb0EEEEENS_9allocatorIS7_EEE21_ConstructTransactionD1B7v160006Ev, symObjAddr: 0x5390, symBinAddr: 0x1000062A0, symSize: 0x2C }
  - { offsetInCU: 0x5F416, offset: 0x5F416, size: 0x8, addend: 0x0, symName: __ZNSt3__16vectorIN4spot8internal12edge_storageIjjjNS2_11boxed_labelINS1_19twa_graph_edge_dataELb0EEEEENS_9allocatorIS7_EEE21_ConstructTransactionC2B7v160006ERSA_m, symObjAddr: 0x53BC, symBinAddr: 0x1000062CC, symSize: 0x4C }
  - { offsetInCU: 0x5F45E, offset: 0x5F45E, size: 0x8, addend: 0x0, symName: __ZNSt3__19allocatorIN4spot8internal12edge_storageIjjjNS2_11boxed_labelINS1_19twa_graph_edge_dataELb0EEEEEE9constructB7v160006IS7_JRjiSA_R3bddRNS1_8acc_cond6mark_tEEEEvPT_DpOT0_, symObjAddr: 0x5408, symBinAddr: 0x100006318, symSize: 0x5C }
  - { offsetInCU: 0x5F500, offset: 0x5F500, size: 0x8, addend: 0x0, symName: __ZN4spot8internal12edge_storageIjjjNS0_11boxed_labelINS_19twa_graph_edge_dataELb0EEEEC1IJR3bddRNS_8acc_cond6mark_tEEEEjjjDpOT_, symObjAddr: 0x5464, symBinAddr: 0x100006374, symSize: 0x54 }
  - { offsetInCU: 0x5F580, offset: 0x5F580, size: 0x8, addend: 0x0, symName: __ZN4spot8internal12edge_storageIjjjNS0_11boxed_labelINS_19twa_graph_edge_dataELb0EEEEC2IJR3bddRNS_8acc_cond6mark_tEEEEjjjDpOT_, symObjAddr: 0x54B8, symBinAddr: 0x1000063C8, symSize: 0x60 }
  - { offsetInCU: 0x5F600, offset: 0x5F600, size: 0x8, addend: 0x0, symName: __ZN4spot8internal11boxed_labelINS_19twa_graph_edge_dataELb0EEC2IJR3bddRNS_8acc_cond6mark_tEEvEEDpOT_, symObjAddr: 0x5518, symBinAddr: 0x100006428, symSize: 0x6C }
  - { offsetInCU: 0x5F657, offset: 0x5F657, size: 0x8, addend: 0x0, symName: __ZN4spot19twa_graph_edge_dataC2E3bddNS_8acc_cond6mark_tE, symObjAddr: 0x5584, symBinAddr: 0x100006494, symSize: 0x48 }
  - { offsetInCU: 0x5F69E, offset: 0x5F69E, size: 0x8, addend: 0x0, symName: __ZNSt3__117__compressed_pairIPN4spot8internal12edge_storageIjjjNS2_11boxed_labelINS1_19twa_graph_edge_dataELb0EEEEENS_9allocatorIS7_EEE6secondB7v160006Ev, symObjAddr: 0x55CC, symBinAddr: 0x1000064DC, symSize: 0x24 }
  - { offsetInCU: 0x5F6C4, offset: 0x5F6C4, size: 0x8, addend: 0x0, symName: __ZNSt3__122__compressed_pair_elemINS_9allocatorIN4spot8internal12edge_storageIjjjNS3_11boxed_labelINS2_19twa_graph_edge_dataELb0EEEEEEELi1ELb1EE5__getB7v160006Ev, symObjAddr: 0x55F0, symBinAddr: 0x100006500, symSize: 0x14 }
  - { offsetInCU: 0x5F6EA, offset: 0x5F6EA, size: 0x8, addend: 0x0, symName: __ZNSt3__16vectorIN4spot8internal12edge_storageIjjjNS2_11boxed_labelINS1_19twa_graph_edge_dataELb0EEEEENS_9allocatorIS7_EEE21_ConstructTransactionD2B7v160006Ev, symObjAddr: 0x5604, symBinAddr: 0x100006514, symSize: 0x20 }
  - { offsetInCU: 0x5F714, offset: 0x5F714, size: 0x8, addend: 0x0, symName: __ZNKSt3__16vectorIN4spot8internal12edge_storageIjjjNS2_11boxed_labelINS1_19twa_graph_edge_dataELb0EEEEENS_9allocatorIS7_EEE11__recommendB7v160006Em, symObjAddr: 0x5624, symBinAddr: 0x100006534, symSize: 0xB4 }
  - { offsetInCU: 0x5F769, offset: 0x5F769, size: 0x8, addend: 0x0, symName: __ZNSt3__114__split_bufferIN4spot8internal12edge_storageIjjjNS2_11boxed_labelINS1_19twa_graph_edge_dataELb0EEEEERNS_9allocatorIS7_EEEC1EmmSA_, symObjAddr: 0x56D8, symBinAddr: 0x1000065E8, symSize: 0x44 }
  - { offsetInCU: 0x5F7BF, offset: 0x5F7BF, size: 0x8, addend: 0x0, symName: __ZNSt3__114__split_bufferIN4spot8internal12edge_storageIjjjNS2_11boxed_labelINS1_19twa_graph_edge_dataELb0EEEEERNS_9allocatorIS7_EEED1Ev, symObjAddr: 0x5834, symBinAddr: 0x100006744, symSize: 0x2C }
  - { offsetInCU: 0x5F7EB, offset: 0x5F7EB, size: 0x8, addend: 0x0, symName: __ZNKSt3__16vectorIN4spot8internal12edge_storageIjjjNS2_11boxed_labelINS1_19twa_graph_edge_dataELb0EEEEENS_9allocatorIS7_EEE8max_sizeEv, symObjAddr: 0x5860, symBinAddr: 0x100006770, symSize: 0x60 }
  - { offsetInCU: 0x5F813, offset: 0x5F813, size: 0x8, addend: 0x0, symName: __ZNKSt3__16vectorIN4spot8internal12edge_storageIjjjNS2_11boxed_labelINS1_19twa_graph_edge_dataELb0EEEEENS_9allocatorIS7_EEE20__throw_length_errorB7v160006Ev, symObjAddr: 0x58C0, symBinAddr: 0x1000067D0, symSize: 0x1C }
  - { offsetInCU: 0x5F839, offset: 0x5F839, size: 0x8, addend: 0x0, symName: __ZNKSt3__16vectorIN4spot8internal12edge_storageIjjjNS2_11boxed_labelINS1_19twa_graph_edge_dataELb0EEEEENS_9allocatorIS7_EEE8capacityB7v160006Ev, symObjAddr: 0x58DC, symBinAddr: 0x1000067EC, symSize: 0x40 }
  - { offsetInCU: 0x5F86A, offset: 0x5F86A, size: 0x8, addend: 0x0, symName: __ZNSt3__116allocator_traitsINS_9allocatorIN4spot8internal12edge_storageIjjjNS3_11boxed_labelINS2_19twa_graph_edge_dataELb0EEEEEEEE8max_sizeB7v160006IS9_vEEmRKS9_, symObjAddr: 0x5974, symBinAddr: 0x100006884, symSize: 0x24 }
  - { offsetInCU: 0x5F898, offset: 0x5F898, size: 0x8, addend: 0x0, symName: __ZNKSt3__16vectorIN4spot8internal12edge_storageIjjjNS2_11boxed_labelINS1_19twa_graph_edge_dataELb0EEEEENS_9allocatorIS7_EEE7__allocB7v160006Ev, symObjAddr: 0x5998, symBinAddr: 0x1000068A8, symSize: 0x28 }
  - { offsetInCU: 0x5F8BE, offset: 0x5F8BE, size: 0x8, addend: 0x0, symName: __ZNSt3__114numeric_limitsIlE3maxB7v160006Ev, symObjAddr: 0x59C0, symBinAddr: 0x1000068D0, symSize: 0x14 }
  - { offsetInCU: 0x5F8DC, offset: 0x5F8DC, size: 0x8, addend: 0x0, symName: __ZNKSt3__16__lessImmEclB7v160006ERKmS3_, symObjAddr: 0x5A34, symBinAddr: 0x100006944, symSize: 0x34 }
  - { offsetInCU: 0x5F91E, offset: 0x5F91E, size: 0x8, addend: 0x0, symName: __ZNKSt3__19allocatorIN4spot8internal12edge_storageIjjjNS2_11boxed_labelINS1_19twa_graph_edge_dataELb0EEEEEE8max_sizeB7v160006Ev, symObjAddr: 0x5A68, symBinAddr: 0x100006978, symSize: 0x18 }
  - { offsetInCU: 0x5F944, offset: 0x5F944, size: 0x8, addend: 0x0, symName: __ZNKSt3__117__compressed_pairIPN4spot8internal12edge_storageIjjjNS2_11boxed_labelINS1_19twa_graph_edge_dataELb0EEEEENS_9allocatorIS7_EEE6secondB7v160006Ev, symObjAddr: 0x5A80, symBinAddr: 0x100006990, symSize: 0x24 }
  - { offsetInCU: 0x5F96A, offset: 0x5F96A, size: 0x8, addend: 0x0, symName: __ZNKSt3__122__compressed_pair_elemINS_9allocatorIN4spot8internal12edge_storageIjjjNS3_11boxed_labelINS2_19twa_graph_edge_dataELb0EEEEEEELi1ELb1EE5__getB7v160006Ev, symObjAddr: 0x5AA4, symBinAddr: 0x1000069B4, symSize: 0x14 }
  - { offsetInCU: 0x5F990, offset: 0x5F990, size: 0x8, addend: 0x0, symName: __ZNSt3__123__libcpp_numeric_limitsIlLb1EE3maxB7v160006Ev, symObjAddr: 0x5AB8, symBinAddr: 0x1000069C8, symSize: 0x8 }
  - { offsetInCU: 0x5F9A4, offset: 0x5F9A4, size: 0x8, addend: 0x0, symName: __ZNSt12length_errorC1B7v160006EPKc, symObjAddr: 0x5B24, symBinAddr: 0x100006A34, symSize: 0x34 }
  - { offsetInCU: 0x5F9DC, offset: 0x5F9DC, size: 0x8, addend: 0x0, symName: __ZNSt12length_errorC2B7v160006EPKc, symObjAddr: 0x5B58, symBinAddr: 0x100006A68, symSize: 0x4C }
  - { offsetInCU: 0x5FA14, offset: 0x5FA14, size: 0x8, addend: 0x0, symName: __ZNKSt3__16vectorIN4spot8internal12edge_storageIjjjNS2_11boxed_labelINS1_19twa_graph_edge_dataELb0EEEEENS_9allocatorIS7_EEE9__end_capB7v160006Ev, symObjAddr: 0x5BA4, symBinAddr: 0x100006AB4, symSize: 0x28 }
  - { offsetInCU: 0x5FA3A, offset: 0x5FA3A, size: 0x8, addend: 0x0, symName: __ZNKSt3__117__compressed_pairIPN4spot8internal12edge_storageIjjjNS2_11boxed_labelINS1_19twa_graph_edge_dataELb0EEEEENS_9allocatorIS7_EEE5firstB7v160006Ev, symObjAddr: 0x5BCC, symBinAddr: 0x100006ADC, symSize: 0x24 }
  - { offsetInCU: 0x5FA60, offset: 0x5FA60, size: 0x8, addend: 0x0, symName: __ZNKSt3__122__compressed_pair_elemIPN4spot8internal12edge_storageIjjjNS2_11boxed_labelINS1_19twa_graph_edge_dataELb0EEEEELi0ELb0EE5__getB7v160006Ev, symObjAddr: 0x5BF0, symBinAddr: 0x100006B00, symSize: 0x14 }
  - { offsetInCU: 0x5FA86, offset: 0x5FA86, size: 0x8, addend: 0x0, symName: __ZNSt3__114__split_bufferIN4spot8internal12edge_storageIjjjNS2_11boxed_labelINS1_19twa_graph_edge_dataELb0EEEEERNS_9allocatorIS7_EEEC2EmmSA_, symObjAddr: 0x5C58, symBinAddr: 0x100006B68, symSize: 0xE0 }
  - { offsetInCU: 0x5FB00, offset: 0x5FB00, size: 0x8, addend: 0x0, symName: __ZNSt3__117__compressed_pairIPN4spot8internal12edge_storageIjjjNS2_11boxed_labelINS1_19twa_graph_edge_dataELb0EEEEERNS_9allocatorIS7_EEEC1B7v160006IDnSB_EEOT_OT0_, symObjAddr: 0x5D38, symBinAddr: 0x100006C48, symSize: 0x3C }
  - { offsetInCU: 0x5FB58, offset: 0x5FB58, size: 0x8, addend: 0x0, symName: __ZNSt3__114__split_bufferIN4spot8internal12edge_storageIjjjNS2_11boxed_labelINS1_19twa_graph_edge_dataELb0EEEEERNS_9allocatorIS7_EEE7__allocB7v160006Ev, symObjAddr: 0x5DB4, symBinAddr: 0x100006CC4, symSize: 0x28 }
  - { offsetInCU: 0x5FB7E, offset: 0x5FB7E, size: 0x8, addend: 0x0, symName: __ZNSt3__114__split_bufferIN4spot8internal12edge_storageIjjjNS2_11boxed_labelINS1_19twa_graph_edge_dataELb0EEEEERNS_9allocatorIS7_EEE9__end_capB7v160006Ev, symObjAddr: 0x5DDC, symBinAddr: 0x100006CEC, symSize: 0x28 }
  - { offsetInCU: 0x5FBA4, offset: 0x5FBA4, size: 0x8, addend: 0x0, symName: __ZNSt3__117__compressed_pairIPN4spot8internal12edge_storageIjjjNS2_11boxed_labelINS1_19twa_graph_edge_dataELb0EEEEERNS_9allocatorIS7_EEEC2B7v160006IDnSB_EEOT_OT0_, symObjAddr: 0x5E04, symBinAddr: 0x100006D14, symSize: 0x48 }
  - { offsetInCU: 0x5FBFC, offset: 0x5FBFC, size: 0x8, addend: 0x0, symName: __ZNSt3__122__compressed_pair_elemIPN4spot8internal12edge_storageIjjjNS2_11boxed_labelINS1_19twa_graph_edge_dataELb0EEEEELi0ELb0EEC2B7v160006IDnvEEOT_, symObjAddr: 0x5E4C, symBinAddr: 0x100006D5C, symSize: 0x1C }
  - { offsetInCU: 0x5FC3E, offset: 0x5FC3E, size: 0x8, addend: 0x0, symName: __ZNSt3__122__compressed_pair_elemIRNS_9allocatorIN4spot8internal12edge_storageIjjjNS3_11boxed_labelINS2_19twa_graph_edge_dataELb0EEEEEEELi1ELb0EEC2B7v160006ISA_vEEOT_, symObjAddr: 0x5E68, symBinAddr: 0x100006D78, symSize: 0x20 }
  - { offsetInCU: 0x5FC80, offset: 0x5FC80, size: 0x8, addend: 0x0, symName: __ZNSt3__19allocatorIN4spot8internal12edge_storageIjjjNS2_11boxed_labelINS1_19twa_graph_edge_dataELb0EEEEEE8allocateB7v160006Em, symObjAddr: 0x5E88, symBinAddr: 0x100006D98, symSize: 0x5C }
  - { offsetInCU: 0x5FCB4, offset: 0x5FCB4, size: 0x8, addend: 0x0, symName: __ZNSt3__117__compressed_pairIPN4spot8internal12edge_storageIjjjNS2_11boxed_labelINS1_19twa_graph_edge_dataELb0EEEEERNS_9allocatorIS7_EEE6secondB7v160006Ev, symObjAddr: 0x5FE8, symBinAddr: 0x100006EF8, symSize: 0x28 }
  - { offsetInCU: 0x5FCDA, offset: 0x5FCDA, size: 0x8, addend: 0x0, symName: __ZNSt3__122__compressed_pair_elemIRNS_9allocatorIN4spot8internal12edge_storageIjjjNS3_11boxed_labelINS2_19twa_graph_edge_dataELb0EEEEEEELi1ELb0EE5__getB7v160006Ev, symObjAddr: 0x6010, symBinAddr: 0x100006F20, symSize: 0x18 }
  - { offsetInCU: 0x5FD00, offset: 0x5FD00, size: 0x8, addend: 0x0, symName: __ZNSt3__117__compressed_pairIPN4spot8internal12edge_storageIjjjNS2_11boxed_labelINS1_19twa_graph_edge_dataELb0EEEEERNS_9allocatorIS7_EEE5firstB7v160006Ev, symObjAddr: 0x6028, symBinAddr: 0x100006F38, symSize: 0x24 }
  - { offsetInCU: 0x5FD26, offset: 0x5FD26, size: 0x8, addend: 0x0, symName: __ZNKSt3__16vectorIN4spot8internal12edge_storageIjjjNS2_11boxed_labelINS1_19twa_graph_edge_dataELb0EEEEENS_9allocatorIS7_EEE17__annotate_deleteB7v160006Ev, symObjAddr: 0x604C, symBinAddr: 0x100006F5C, symSize: 0xD4 }
  - { offsetInCU: 0x5FD4C, offset: 0x5FD4C, size: 0x8, addend: 0x0, symName: __ZNSt3__116reverse_iteratorIPN4spot8internal12edge_storageIjjjNS2_11boxed_labelINS1_19twa_graph_edge_dataELb0EEEEEEC1B7v160006ES8_, symObjAddr: 0x624C, symBinAddr: 0x10000715C, symSize: 0x34 }
  - { offsetInCU: 0x5FD84, offset: 0x5FD84, size: 0x8, addend: 0x0, symName: __ZNKSt3__116reverse_iteratorIPN4spot8internal12edge_storageIjjjNS2_11boxed_labelINS1_19twa_graph_edge_dataELb0EEEEEE4baseB7v160006Ev, symObjAddr: 0x6280, symBinAddr: 0x100007190, symSize: 0x18 }
  - { offsetInCU: 0x5FDAA, offset: 0x5FDAA, size: 0x8, addend: 0x0, symName: __ZNKSt3__16vectorIN4spot8internal12edge_storageIjjjNS2_11boxed_labelINS1_19twa_graph_edge_dataELb0EEEEENS_9allocatorIS7_EEE14__annotate_newB7v160006Em, symObjAddr: 0x62D4, symBinAddr: 0x1000071E4, symSize: 0xC8 }
  - { offsetInCU: 0x5FDDF, offset: 0x5FDDF, size: 0x8, addend: 0x0, symName: __ZNKSt3__16vectorIN4spot8internal12edge_storageIjjjNS2_11boxed_labelINS1_19twa_graph_edge_dataELb0EEEEENS_9allocatorIS7_EEE31__annotate_contiguous_containerB7v160006EPKvSC_SC_SC_, symObjAddr: 0x63AC, symBinAddr: 0x1000072BC, symSize: 0x20 }
  - { offsetInCU: 0x5FE31, offset: 0x5FE31, size: 0x8, addend: 0x0, symName: __ZNKSt3__16vectorIN4spot8internal12edge_storageIjjjNS2_11boxed_labelINS1_19twa_graph_edge_dataELb0EEEEENS_9allocatorIS7_EEE4dataB7v160006Ev, symObjAddr: 0x63CC, symBinAddr: 0x1000072DC, symSize: 0x28 }
  - { offsetInCU: 0x5FE57, offset: 0x5FE57, size: 0x8, addend: 0x0, symName: __ZNSt3__129_AllocatorDestroyRangeReverseINS_9allocatorIN4spot8internal12edge_storageIjjjNS3_11boxed_labelINS2_19twa_graph_edge_dataELb0EEEEEEENS_16reverse_iteratorIPS8_EEEC1B7v160006ERS9_RSC_SF_, symObjAddr: 0x6440, symBinAddr: 0x100007350, symSize: 0x44 }
  - { offsetInCU: 0x5FEB4, offset: 0x5FEB4, size: 0x8, addend: 0x0, symName: __ZNSt3__116allocator_traitsINS_9allocatorIN4spot8internal12edge_storageIjjjNS3_11boxed_labelINS2_19twa_graph_edge_dataELb0EEEEEEEE9constructB7v160006IS8_JS8_EvEEvRS9_PT_DpOT0_, symObjAddr: 0x64CC, symBinAddr: 0x1000073DC, symSize: 0x34 }
  - { offsetInCU: 0x5FF0B, offset: 0x5FF0B, size: 0x8, addend: 0x0, symName: __ZNKSt3__116reverse_iteratorIPN4spot8internal12edge_storageIjjjNS2_11boxed_labelINS1_19twa_graph_edge_dataELb0EEEEEEdeB7v160006Ev, symObjAddr: 0x6524, symBinAddr: 0x100007434, symSize: 0x28 }
  - { offsetInCU: 0x5FF40, offset: 0x5FF40, size: 0x8, addend: 0x0, symName: __ZNSt3__116reverse_iteratorIPN4spot8internal12edge_storageIjjjNS2_11boxed_labelINS1_19twa_graph_edge_dataELb0EEEEEEppB7v160006Ev, symObjAddr: 0x654C, symBinAddr: 0x10000745C, symSize: 0x20 }
  - { offsetInCU: 0x5FF66, offset: 0x5FF66, size: 0x8, addend: 0x0, symName: __ZNSt3__128__exception_guard_exceptionsINS_29_AllocatorDestroyRangeReverseINS_9allocatorIN4spot8internal12edge_storageIjjjNS4_11boxed_labelINS3_19twa_graph_edge_dataELb0EEEEEEENS_16reverse_iteratorIPS9_EEEEE10__completeB7v160006Ev, symObjAddr: 0x656C, symBinAddr: 0x10000747C, symSize: 0x1C }
  - { offsetInCU: 0x5FF8C, offset: 0x5FF8C, size: 0x8, addend: 0x0, symName: __ZNSt3__128__exception_guard_exceptionsINS_29_AllocatorDestroyRangeReverseINS_9allocatorIN4spot8internal12edge_storageIjjjNS4_11boxed_labelINS3_19twa_graph_edge_dataELb0EEEEEEENS_16reverse_iteratorIPS9_EEEEED1B7v160006Ev, symObjAddr: 0x6588, symBinAddr: 0x100007498, symSize: 0x2C }
  - { offsetInCU: 0x5FFB6, offset: 0x5FFB6, size: 0x8, addend: 0x0, symName: __ZNSt3__128__exception_guard_exceptionsINS_29_AllocatorDestroyRangeReverseINS_9allocatorIN4spot8internal12edge_storageIjjjNS4_11boxed_labelINS3_19twa_graph_edge_dataELb0EEEEEEENS_16reverse_iteratorIPS9_EEEEEC1B7v160006ESE_, symObjAddr: 0x65B4, symBinAddr: 0x1000074C4, symSize: 0x34 }
  - { offsetInCU: 0x5FFEF, offset: 0x5FFEF, size: 0x8, addend: 0x0, symName: __ZNSt3__128__exception_guard_exceptionsINS_29_AllocatorDestroyRangeReverseINS_9allocatorIN4spot8internal12edge_storageIjjjNS4_11boxed_labelINS3_19twa_graph_edge_dataELb0EEEEEEENS_16reverse_iteratorIPS9_EEEEEC2B7v160006ESE_, symObjAddr: 0x65E8, symBinAddr: 0x1000074F8, symSize: 0x30 }
  - { offsetInCU: 0x60028, offset: 0x60028, size: 0x8, addend: 0x0, symName: __ZNSt3__129_AllocatorDestroyRangeReverseINS_9allocatorIN4spot8internal12edge_storageIjjjNS3_11boxed_labelINS2_19twa_graph_edge_dataELb0EEEEEEENS_16reverse_iteratorIPS8_EEEC2B7v160006ERS9_RSC_SF_, symObjAddr: 0x6618, symBinAddr: 0x100007528, symSize: 0x38 }
  - { offsetInCU: 0x6007F, offset: 0x6007F, size: 0x8, addend: 0x0, symName: __ZNSt3__19allocatorIN4spot8internal12edge_storageIjjjNS2_11boxed_labelINS1_19twa_graph_edge_dataELb0EEEEEE9constructB7v160006IS7_JS7_EEEvPT_DpOT0_, symObjAddr: 0x6650, symBinAddr: 0x100007560, symSize: 0x30 }
  - { offsetInCU: 0x600D5, offset: 0x600D5, size: 0x8, addend: 0x0, symName: __ZN4spot8internal12edge_storageIjjjNS0_11boxed_labelINS_19twa_graph_edge_dataELb0EEEEC1EOS5_, symObjAddr: 0x6680, symBinAddr: 0x100007590, symSize: 0x34 }
  - { offsetInCU: 0x6010A, offset: 0x6010A, size: 0x8, addend: 0x0, symName: __ZN4spot8internal12edge_storageIjjjNS0_11boxed_labelINS_19twa_graph_edge_dataELb0EEEEC2EOS5_, symObjAddr: 0x66B4, symBinAddr: 0x1000075C4, symSize: 0x48 }
  - { offsetInCU: 0x60145, offset: 0x60145, size: 0x8, addend: 0x0, symName: __ZN4spot8internal11boxed_labelINS_19twa_graph_edge_dataELb0EEC2EOS3_, symObjAddr: 0x66FC, symBinAddr: 0x10000760C, symSize: 0x34 }
  - { offsetInCU: 0x60180, offset: 0x60180, size: 0x8, addend: 0x0, symName: __ZN4spot19twa_graph_edge_dataC2EOS0_, symObjAddr: 0x6730, symBinAddr: 0x100007640, symSize: 0x40 }
  - { offsetInCU: 0x601B5, offset: 0x601B5, size: 0x8, addend: 0x0, symName: __ZN3bddC1EOS_, symObjAddr: 0x6770, symBinAddr: 0x100007680, symSize: 0x34 }
  - { offsetInCU: 0x601EE, offset: 0x601EE, size: 0x8, addend: 0x0, symName: __ZN3bddC2EOS_, symObjAddr: 0x67A4, symBinAddr: 0x1000076B4, symSize: 0x2C }
  - { offsetInCU: 0x6022D, offset: 0x6022D, size: 0x8, addend: 0x0, symName: __ZNSt3__119__to_address_helperINS_16reverse_iteratorIPN4spot8internal12edge_storageIjjjNS3_11boxed_labelINS2_19twa_graph_edge_dataELb0EEEEEEEvE6__callB7v160006ERKSA_, symObjAddr: 0x67D0, symBinAddr: 0x1000076E0, symSize: 0x38 }
  - { offsetInCU: 0x60250, offset: 0x60250, size: 0x8, addend: 0x0, symName: __ZNKSt3__116reverse_iteratorIPN4spot8internal12edge_storageIjjjNS2_11boxed_labelINS1_19twa_graph_edge_dataELb0EEEEEEptB7v160006Ev, symObjAddr: 0x6808, symBinAddr: 0x100007718, symSize: 0x24 }
  - { offsetInCU: 0x60276, offset: 0x60276, size: 0x8, addend: 0x0, symName: __ZNSt3__128__exception_guard_exceptionsINS_29_AllocatorDestroyRangeReverseINS_9allocatorIN4spot8internal12edge_storageIjjjNS4_11boxed_labelINS3_19twa_graph_edge_dataELb0EEEEEEENS_16reverse_iteratorIPS9_EEEEED2B7v160006Ev, symObjAddr: 0x682C, symBinAddr: 0x10000773C, symSize: 0x50 }
  - { offsetInCU: 0x602A0, offset: 0x602A0, size: 0x8, addend: 0x0, symName: __ZNKSt3__129_AllocatorDestroyRangeReverseINS_9allocatorIN4spot8internal12edge_storageIjjjNS3_11boxed_labelINS2_19twa_graph_edge_dataELb0EEEEEEENS_16reverse_iteratorIPS8_EEEclB7v160006Ev, symObjAddr: 0x687C, symBinAddr: 0x10000778C, symSize: 0xB4 }
  - { offsetInCU: 0x602C7, offset: 0x602C7, size: 0x8, addend: 0x0, symName: __ZNSt3__116reverse_iteratorINS0_IPN4spot8internal12edge_storageIjjjNS2_11boxed_labelINS1_19twa_graph_edge_dataELb0EEEEEEEEC1B7v160006ES9_, symObjAddr: 0x69A0, symBinAddr: 0x1000078B0, symSize: 0x3C }
  - { offsetInCU: 0x602FF, offset: 0x602FF, size: 0x8, addend: 0x0, symName: __ZNSt3__116allocator_traitsINS_9allocatorIN4spot8internal12edge_storageIjjjNS3_11boxed_labelINS2_19twa_graph_edge_dataELb0EEEEEEEE7destroyB7v160006IS8_vEEvRS9_PT_, symObjAddr: 0x6A3C, symBinAddr: 0x10000794C, symSize: 0x2C }
  - { offsetInCU: 0x6033C, offset: 0x6033C, size: 0x8, addend: 0x0, symName: __ZNSt3__116reverse_iteratorINS0_IPN4spot8internal12edge_storageIjjjNS2_11boxed_labelINS1_19twa_graph_edge_dataELb0EEEEEEEEppB7v160006Ev, symObjAddr: 0x6A8C, symBinAddr: 0x10000799C, symSize: 0x30 }
  - { offsetInCU: 0x60362, offset: 0x60362, size: 0x8, addend: 0x0, symName: __ZNKSt3__116reverse_iteratorINS0_IPN4spot8internal12edge_storageIjjjNS2_11boxed_labelINS1_19twa_graph_edge_dataELb0EEEEEEEE4baseB7v160006Ev, symObjAddr: 0x6ABC, symBinAddr: 0x1000079CC, symSize: 0x24 }
  - { offsetInCU: 0x60388, offset: 0x60388, size: 0x8, addend: 0x0, symName: __ZNSt3__19allocatorIN4spot8internal12edge_storageIjjjNS2_11boxed_labelINS1_19twa_graph_edge_dataELb0EEEEEE7destroyB7v160006EPS7_, symObjAddr: 0x6AE0, symBinAddr: 0x1000079F0, symSize: 0x28 }
  - { offsetInCU: 0x603C2, offset: 0x603C2, size: 0x8, addend: 0x0, symName: __ZNSt3__119__to_address_helperINS_16reverse_iteratorINS1_IPN4spot8internal12edge_storageIjjjNS3_11boxed_labelINS2_19twa_graph_edge_dataELb0EEEEEEEEEvE6__callB7v160006ERKSB_, symObjAddr: 0x6B08, symBinAddr: 0x100007A18, symSize: 0x38 }
  - { offsetInCU: 0x603E5, offset: 0x603E5, size: 0x8, addend: 0x0, symName: __ZNKSt3__116reverse_iteratorINS0_IPN4spot8internal12edge_storageIjjjNS2_11boxed_labelINS1_19twa_graph_edge_dataELb0EEEEEEEEptB7v160006Ev, symObjAddr: 0x6B40, symBinAddr: 0x100007A50, symSize: 0x24 }
  - { offsetInCU: 0x6040B, offset: 0x6040B, size: 0x8, addend: 0x0, symName: __ZNKSt3__116reverse_iteratorINS0_IPN4spot8internal12edge_storageIjjjNS2_11boxed_labelINS1_19twa_graph_edge_dataELb0EEEEEEEEdeB7v160006Ev, symObjAddr: 0x6B64, symBinAddr: 0x100007A74, symSize: 0x34 }
  - { offsetInCU: 0x60440, offset: 0x60440, size: 0x8, addend: 0x0, symName: __ZNSt3__116reverse_iteratorIPN4spot8internal12edge_storageIjjjNS2_11boxed_labelINS1_19twa_graph_edge_dataELb0EEEEEEmmB7v160006Ev, symObjAddr: 0x6B98, symBinAddr: 0x100007AA8, symSize: 0x20 }
  - { offsetInCU: 0x60466, offset: 0x60466, size: 0x8, addend: 0x0, symName: __ZNSt3__116reverse_iteratorINS0_IPN4spot8internal12edge_storageIjjjNS2_11boxed_labelINS1_19twa_graph_edge_dataELb0EEEEEEEEC2B7v160006ES9_, symObjAddr: 0x6BB8, symBinAddr: 0x100007AC8, symSize: 0x2C }
  - { offsetInCU: 0x6049E, offset: 0x6049E, size: 0x8, addend: 0x0, symName: __ZNSt3__116reverse_iteratorIPN4spot8internal12edge_storageIjjjNS2_11boxed_labelINS1_19twa_graph_edge_dataELb0EEEEEEC2B7v160006ES8_, symObjAddr: 0x6BE4, symBinAddr: 0x100007AF4, symSize: 0x28 }
  - { offsetInCU: 0x604D6, offset: 0x604D6, size: 0x8, addend: 0x0, symName: __ZNSt3__114__split_bufferIN4spot8internal12edge_storageIjjjNS2_11boxed_labelINS1_19twa_graph_edge_dataELb0EEEEERNS_9allocatorIS7_EEED2Ev, symObjAddr: 0x6C0C, symBinAddr: 0x100007B1C, symSize: 0x8C }
  - { offsetInCU: 0x60502, offset: 0x60502, size: 0x8, addend: 0x0, symName: __ZNSt3__114__split_bufferIN4spot8internal12edge_storageIjjjNS2_11boxed_labelINS1_19twa_graph_edge_dataELb0EEEEERNS_9allocatorIS7_EEE5clearB7v160006Ev, symObjAddr: 0x6C98, symBinAddr: 0x100007BA8, symSize: 0x28 }
  - { offsetInCU: 0x60528, offset: 0x60528, size: 0x8, addend: 0x0, symName: __ZNSt3__116allocator_traitsINS_9allocatorIN4spot8internal12edge_storageIjjjNS3_11boxed_labelINS2_19twa_graph_edge_dataELb0EEEEEEEE10deallocateB7v160006ERS9_PS8_m, symObjAddr: 0x6CC0, symBinAddr: 0x100007BD0, symSize: 0x34 }
  - { offsetInCU: 0x6056A, offset: 0x6056A, size: 0x8, addend: 0x0, symName: __ZNKSt3__114__split_bufferIN4spot8internal12edge_storageIjjjNS2_11boxed_labelINS1_19twa_graph_edge_dataELb0EEEEERNS_9allocatorIS7_EEE8capacityB7v160006Ev, symObjAddr: 0x6CF4, symBinAddr: 0x100007C04, symSize: 0x40 }
  - { offsetInCU: 0x60590, offset: 0x60590, size: 0x8, addend: 0x0, symName: __ZNSt3__114__split_bufferIN4spot8internal12edge_storageIjjjNS2_11boxed_labelINS1_19twa_graph_edge_dataELb0EEEEERNS_9allocatorIS7_EEE17__destruct_at_endB7v160006EPS7_, symObjAddr: 0x6D34, symBinAddr: 0x100007C44, symSize: 0x2C }
  - { offsetInCU: 0x605C4, offset: 0x605C4, size: 0x8, addend: 0x0, symName: __ZNSt3__114__split_bufferIN4spot8internal12edge_storageIjjjNS2_11boxed_labelINS1_19twa_graph_edge_dataELb0EEEEERNS_9allocatorIS7_EEE17__destruct_at_endB7v160006EPS7_NS_17integral_constantIbLb0EEE, symObjAddr: 0x6D60, symBinAddr: 0x100007C70, symSize: 0x80 }
  - { offsetInCU: 0x60604, offset: 0x60604, size: 0x8, addend: 0x0, symName: __ZNSt3__19allocatorIN4spot8internal12edge_storageIjjjNS2_11boxed_labelINS1_19twa_graph_edge_dataELb0EEEEEE10deallocateB7v160006EPS7_m, symObjAddr: 0x6DE0, symBinAddr: 0x100007CF0, symSize: 0x44 }
  - { offsetInCU: 0x60646, offset: 0x60646, size: 0x8, addend: 0x0, symName: __ZNKSt3__114__split_bufferIN4spot8internal12edge_storageIjjjNS2_11boxed_labelINS1_19twa_graph_edge_dataELb0EEEEERNS_9allocatorIS7_EEE9__end_capB7v160006Ev, symObjAddr: 0x6F2C, symBinAddr: 0x100007E3C, symSize: 0x28 }
  - { offsetInCU: 0x6066C, offset: 0x6066C, size: 0x8, addend: 0x0, symName: __ZNKSt3__117__compressed_pairIPN4spot8internal12edge_storageIjjjNS2_11boxed_labelINS1_19twa_graph_edge_dataELb0EEEEERNS_9allocatorIS7_EEE5firstB7v160006Ev, symObjAddr: 0x6F54, symBinAddr: 0x100007E64, symSize: 0x24 }
  - { offsetInCU: 0x60692, offset: 0x60692, size: 0x8, addend: 0x0, symName: __ZN3bddC2ERK8bddxtrue, symObjAddr: 0x6F78, symBinAddr: 0x100007E88, symSize: 0x20 }
  - { offsetInCU: 0x606C7, offset: 0x606C7, size: 0x8, addend: 0x0, symName: __ZNKSt16initializer_listIjE5beginB7v160006Ev, symObjAddr: 0x6F98, symBinAddr: 0x100007EA8, symSize: 0x18 }
  - { offsetInCU: 0x606ED, offset: 0x606ED, size: 0x8, addend: 0x0, symName: __ZNKSt16initializer_listIjE3endB7v160006Ev, symObjAddr: 0x6FB0, symBinAddr: 0x100007EC0, symSize: 0x20 }
  - { offsetInCU: 0x6071E, offset: 0x6071E, size: 0x8, addend: 0x0, symName: __ZN4spot8acc_cond6mark_tC1IPKjEERKT_S7_, symObjAddr: 0x6FD0, symBinAddr: 0x100007EE0, symSize: 0xC4 }
  - { offsetInCU: 0x6078B, offset: 0x6078B, size: 0x8, addend: 0x0, symName: __ZN4spot6bitsetILm1EE4zeroEv, symObjAddr: 0x7094, symBinAddr: 0x100007FA4, symSize: 0x28 }
  - { offsetInCU: 0x6079F, offset: 0x6079F, size: 0x8, addend: 0x0, symName: __ZN4spot8acc_cond6mark_tC1ENS_6bitsetILm1EEE, symObjAddr: 0x70BC, symBinAddr: 0x100007FCC, symSize: 0x44 }
  - { offsetInCU: 0x607D7, offset: 0x607D7, size: 0x8, addend: 0x0, symName: __ZN4spot8acc_cond6mark_t3setEj, symObjAddr: 0x7100, symBinAddr: 0x100008010, symSize: 0x2C }
  - { offsetInCU: 0x6080B, offset: 0x6080B, size: 0x8, addend: 0x0, symName: __ZN4spot6bitsetILm1EEC1Ej, symObjAddr: 0x712C, symBinAddr: 0x10000803C, symSize: 0x34 }
  - { offsetInCU: 0x60843, offset: 0x60843, size: 0x8, addend: 0x0, symName: __ZN4spot6bitsetILm1EEC2Ej, symObjAddr: 0x7160, symBinAddr: 0x100008070, symSize: 0x40 }
  - { offsetInCU: 0x6087B, offset: 0x6087B, size: 0x8, addend: 0x0, symName: __ZN4spot8acc_cond6mark_tC2ENS_6bitsetILm1EEE, symObjAddr: 0x71A0, symBinAddr: 0x1000080B0, symSize: 0x28 }
  - { offsetInCU: 0x608B3, offset: 0x608B3, size: 0x8, addend: 0x0, symName: __ZN4spot6bitsetILm1EE3setEj, symObjAddr: 0x71C8, symBinAddr: 0x1000080D8, symSize: 0x84 }
  - { offsetInCU: 0x608E7, offset: 0x608E7, size: 0x8, addend: 0x0, symName: __ZNSt3__15arrayIjLm1EEixB7v160006Em, symObjAddr: 0x724C, symBinAddr: 0x10000815C, symSize: 0x20 }
  - { offsetInCU: 0x6091B, offset: 0x6091B, size: 0x8, addend: 0x0, symName: __ZN3bddD2Ev, symObjAddr: 0x726C, symBinAddr: 0x10000817C, symSize: 0x5C }
  - { offsetInCU: 0x60945, offset: 0x60945, size: 0x8, addend: 0x0, symName: __ZN4spot7digraphINS_15twa_graph_stateENS_19twa_graph_edge_dataEE3outEj, symObjAddr: 0x72C8, symBinAddr: 0x1000081D8, symSize: 0x4C }
  - { offsetInCU: 0x6097A, offset: 0x6097A, size: 0x8, addend: 0x0, symName: __ZN4spot8internal9state_outINS_7digraphINS_15twa_graph_stateENS_19twa_graph_edge_dataEEEEC1EPS5_j, symObjAddr: 0x7314, symBinAddr: 0x100008224, symSize: 0x3C }
  - { offsetInCU: 0x609C2, offset: 0x609C2, size: 0x8, addend: 0x0, symName: __ZN4spot8internal9state_outINS_7digraphINS_15twa_graph_stateENS_19twa_graph_edge_dataEEEEC2EPS5_j, symObjAddr: 0x7350, symBinAddr: 0x100008260, symSize: 0x2C }
  - { offsetInCU: 0x60A0A, offset: 0x60A0A, size: 0x8, addend: 0x0, symName: __ZN4spot8internal14mark_containerC1ENS_8acc_cond6mark_tE, symObjAddr: 0x737C, symBinAddr: 0x10000828C, symSize: 0x44 }
  - { offsetInCU: 0x60A43, offset: 0x60A43, size: 0x8, addend: 0x0, symName: __ZN4spot8internal14mark_containerC2ENS_8acc_cond6mark_tE, symObjAddr: 0x73C0, symBinAddr: 0x1000082D0, symSize: 0x28 }
  - { offsetInCU: 0x60A7C, offset: 0x60A7C, size: 0x8, addend: 0x0, symName: __ZN4spot8internal13mark_iteratorC1ENS_8acc_cond6mark_tE, symObjAddr: 0x73E8, symBinAddr: 0x1000082F8, symSize: 0x44 }
  - { offsetInCU: 0x60AB5, offset: 0x60AB5, size: 0x8, addend: 0x0, symName: __ZN4spot8internal13mark_iteratorC2ENS_8acc_cond6mark_tE, symObjAddr: 0x742C, symBinAddr: 0x10000833C, symSize: 0x28 }
  - { offsetInCU: 0x60AEE, offset: 0x60AEE, size: 0x8, addend: 0x0, symName: __ZN4spot8internal13mark_iteratorC1Ev, symObjAddr: 0x7454, symBinAddr: 0x100008364, symSize: 0x2C }
  - { offsetInCU: 0x60B18, offset: 0x60B18, size: 0x8, addend: 0x0, symName: __ZN4spot8internal13mark_iteratorC2Ev, symObjAddr: 0x7480, symBinAddr: 0x100008390, symSize: 0x48 }
  - { offsetInCU: 0x60B42, offset: 0x60B42, size: 0x8, addend: 0x0, symName: __ZNSt16initializer_listIjEC1B7v160006Ev, symObjAddr: 0x74C8, symBinAddr: 0x1000083D8, symSize: 0x2C }
  - { offsetInCU: 0x60B6C, offset: 0x60B6C, size: 0x8, addend: 0x0, symName: __ZNSt16initializer_listIjEC2B7v160006Ev, symObjAddr: 0x74F4, symBinAddr: 0x100008404, symSize: 0x1C }
  - { offsetInCU: 0x60B96, offset: 0x60B96, size: 0x8, addend: 0x0, symName: __ZNK4spot8acc_cond6mark_tneES1_, symObjAddr: 0x7510, symBinAddr: 0x100008420, symSize: 0x38 }
  - { offsetInCU: 0x60BCA, offset: 0x60BCA, size: 0x8, addend: 0x0, symName: __ZNK4spot6bitsetILm1EEneERKS1_, symObjAddr: 0x7548, symBinAddr: 0x100008458, symSize: 0x34 }
  - { offsetInCU: 0x60BFE, offset: 0x60BFE, size: 0x8, addend: 0x0, symName: __ZNK4spot6bitsetILm1EEeqERKS1_, symObjAddr: 0x757C, symBinAddr: 0x10000848C, symSize: 0xC8 }
  - { offsetInCU: 0x60C50, offset: 0x60C50, size: 0x8, addend: 0x0, symName: __ZNKSt3__15arrayIjLm1EEixB7v160006Em, symObjAddr: 0x7644, symBinAddr: 0x100008554, symSize: 0x20 }
  - { offsetInCU: 0x60C84, offset: 0x60C84, size: 0x8, addend: 0x0, symName: __ZNK4spot8acc_cond6mark_t7min_setEv, symObjAddr: 0x7664, symBinAddr: 0x100008574, symSize: 0x50 }
  - { offsetInCU: 0x60CAA, offset: 0x60CAA, size: 0x8, addend: 0x0, symName: __ZNK4spot6bitsetILm1EEcvbEv, symObjAddr: 0x76B4, symBinAddr: 0x1000085C4, symSize: 0xBC }
  - { offsetInCU: 0x60D24, offset: 0x60D24, size: 0x8, addend: 0x0, symName: __ZNK4spot6bitsetILm1EE6lowestEv, symObjAddr: 0x7770, symBinAddr: 0x100008680, symSize: 0xCC }
  - { offsetInCU: 0x60DAD, offset: 0x60DAD, size: 0x8, addend: 0x0, symName: __ZNKSt3__15arrayIjLm1EE5beginB7v160006Ev, symObjAddr: 0x783C, symBinAddr: 0x10000874C, symSize: 0x24 }
  - { offsetInCU: 0x60DD3, offset: 0x60DD3, size: 0x8, addend: 0x0, symName: __ZNKSt3__15arrayIjLm1EE3endB7v160006Ev, symObjAddr: 0x7860, symBinAddr: 0x100008770, symSize: 0x28 }
  - { offsetInCU: 0x60DF9, offset: 0x60DF9, size: 0x8, addend: 0x0, symName: __ZNKSt3__15arrayIjLm1EE4dataB7v160006Ev, symObjAddr: 0x7888, symBinAddr: 0x100008798, symSize: 0x14 }
  - { offsetInCU: 0x60E1F, offset: 0x60E1F, size: 0x8, addend: 0x0, symName: __ZN4spot8acc_cond6mark_t5clearEj, symObjAddr: 0x789C, symBinAddr: 0x1000087AC, symSize: 0x2C }
  - { offsetInCU: 0x60E53, offset: 0x60E53, size: 0x8, addend: 0x0, symName: __ZN4spot6bitsetILm1EE5clearEj, symObjAddr: 0x78C8, symBinAddr: 0x1000087D8, symSize: 0x84 }
  - { offsetInCU: 0x60E87, offset: 0x60E87, size: 0x8, addend: 0x0, symName: __ZN4spot8internal12edge_storageIjjjNS0_11boxed_labelINS_19twa_graph_edge_dataELb0EEEEC2ERKS5_, symObjAddr: 0x794C, symBinAddr: 0x10000885C, symSize: 0x48 }
  - { offsetInCU: 0x60EC2, offset: 0x60EC2, size: 0x8, addend: 0x0, symName: __ZN4spot8internal11boxed_labelINS_19twa_graph_edge_dataELb0EEC2ERKS3_, symObjAddr: 0x7994, symBinAddr: 0x1000088A4, symSize: 0x34 }
  - { offsetInCU: 0x60EF7, offset: 0x60EF7, size: 0x8, addend: 0x0, symName: __ZN4spot19twa_graph_edge_dataC2ERKS0_, symObjAddr: 0x79C8, symBinAddr: 0x1000088D8, symSize: 0x40 }
  - { offsetInCU: 0x60F2C, offset: 0x60F2C, size: 0x8, addend: 0x0, symName: __ZNK4spot7digraphINS_15twa_graph_stateENS_19twa_graph_edge_dataEE10univ_destsEj, symObjAddr: 0x7A08, symBinAddr: 0x100008918, symSize: 0xB4 }
  - { offsetInCU: 0x60F9D, offset: 0x60F9D, size: 0x8, addend: 0x0, symName: __ZNKSt3__16vectorIjNS_9allocatorIjEEE4dataB7v160006Ev, symObjAddr: 0x7ABC, symBinAddr: 0x1000089CC, symSize: 0x28 }
  - { offsetInCU: 0x60FC3, offset: 0x60FC3, size: 0x8, addend: 0x0, symName: __ZN4spot8internal21const_universal_destsC1EPKjS3_, symObjAddr: 0x7AE4, symBinAddr: 0x1000089F4, symSize: 0x3C }
  - { offsetInCU: 0x6100B, offset: 0x6100B, size: 0x8, addend: 0x0, symName: __ZN4spot8internal21const_universal_destsC1Ej, symObjAddr: 0x7B20, symBinAddr: 0x100008A30, symSize: 0x34 }
  - { offsetInCU: 0x61044, offset: 0x61044, size: 0x8, addend: 0x0, symName: __ZN4spot8internal21const_universal_destsC2EPKjS3_, symObjAddr: 0x7B68, symBinAddr: 0x100008A78, symSize: 0x2C }
  - { offsetInCU: 0x6108C, offset: 0x6108C, size: 0x8, addend: 0x0, symName: __ZN4spot8internal21const_universal_destsC2Ej, symObjAddr: 0x7B94, symBinAddr: 0x100008AA4, symSize: 0x30 }
  - { offsetInCU: 0x610C5, offset: 0x610C5, size: 0x8, addend: 0x0, symName: __ZN4spot8internal12edge_storageIjjjNS0_11boxed_labelINS_19twa_graph_edge_dataELb0EEEED2Ev, symObjAddr: 0x7BC4, symBinAddr: 0x100008AD4, symSize: 0x2C }
  - { offsetInCU: 0x610F1, offset: 0x610F1, size: 0x8, addend: 0x0, symName: __ZN4spot8internal11boxed_labelINS_19twa_graph_edge_dataELb0EED2Ev, symObjAddr: 0x7BF0, symBinAddr: 0x100008B00, symSize: 0x2C }
  - { offsetInCU: 0x6111D, offset: 0x6111D, size: 0x8, addend: 0x0, symName: __ZN4spot19twa_graph_edge_dataD2Ev, symObjAddr: 0x7C1C, symBinAddr: 0x100008B2C, symSize: 0x2C }
  - { offsetInCU: 0x61149, offset: 0x61149, size: 0x8, addend: 0x0, symName: __ZNSt3__110__get_pairILm0EE3getB7v160006IK4PairjEERT_RNS_4pairIS5_T0_EE, symObjAddr: 0x7C48, symBinAddr: 0x100008B58, symSize: 0x14 }
  - { offsetInCU: 0x6117F, offset: 0x6117F, size: 0x8, addend: 0x0, symName: __ZNSt3__110__get_pairILm1EE3getB7v160006IK4PairjEERT0_RNS_4pairIT_S5_EE, symObjAddr: 0x7C5C, symBinAddr: 0x100008B6C, symSize: 0x18 }
  - { offsetInCU: 0x611B5, offset: 0x611B5, size: 0x8, addend: 0x0, symName: __ZN4PairC2Ejj, symObjAddr: 0x7C74, symBinAddr: 0x100008B84, symSize: 0x44 }
  - { offsetInCU: 0x611FB, offset: 0x611FB, size: 0x8, addend: 0x0, symName: __ZN5boost6tuples5tupleIjjNS0_9null_typeES2_S2_S2_S2_S2_S2_S2_EC1ERKjS5_, symObjAddr: 0x7CB8, symBinAddr: 0x100008BC8, symSize: 0x3C }
  - { offsetInCU: 0x61243, offset: 0x61243, size: 0x8, addend: 0x0, symName: __ZN5boost6tuples5tupleIjjNS0_9null_typeES2_S2_S2_S2_S2_S2_S2_EC2ERKjS5_, symObjAddr: 0x7CF4, symBinAddr: 0x100008C04, symSize: 0xA0 }
  - { offsetInCU: 0x6128B, offset: 0x6128B, size: 0x8, addend: 0x0, symName: __ZN5boost6tuples4consIjNS1_IjNS0_9null_typeEEEEC2IKjS6_KS2_S7_S7_S7_S7_S7_S7_S7_EERT_RT0_RT1_RT2_RT3_RT4_RT5_RT6_RT7_RT8_, symObjAddr: 0x7D98, symBinAddr: 0x100008CA8, symSize: 0xF8 }
  - { offsetInCU: 0x613A8, offset: 0x613A8, size: 0x8, addend: 0x0, symName: __ZN5boost6tuples4consIjNS0_9null_typeEEC1IKjEERT_RKS2_S9_S9_S9_S9_S9_S9_S9_S9_, symObjAddr: 0x7E90, symBinAddr: 0x100008DA0, symSize: 0x98 }
  - { offsetInCU: 0x6144E, offset: 0x6144E, size: 0x8, addend: 0x0, symName: __ZN5boost6tuples4consIjNS0_9null_typeEEC2IKjEERT_RKS2_S9_S9_S9_S9_S9_S9_S9_S9_, symObjAddr: 0x7F28, symBinAddr: 0x100008E38, symSize: 0x54 }
  - { offsetInCU: 0x614F7, offset: 0x614F7, size: 0x8, addend: 0x0, symName: __ZN4spot7digraphINS_15twa_graph_stateENS_19twa_graph_edge_dataEE9new_stateIJEEEjDpOT_, symObjAddr: 0x7F7C, symBinAddr: 0x100008E8C, symSize: 0x3C }
  - { offsetInCU: 0x61531, offset: 0x61531, size: 0x8, addend: 0x0, symName: __ZNKSt3__16vectorIN4spot8internal15distate_storageIjNS2_11boxed_labelINS1_15twa_graph_stateELb0EEEEENS_9allocatorIS7_EEE4sizeB7v160006Ev, symObjAddr: 0x7FB8, symBinAddr: 0x100008EC8, symSize: 0x28 }
  - { offsetInCU: 0x61557, offset: 0x61557, size: 0x8, addend: 0x0, symName: __ZNSt3__16vectorIN4spot8internal15distate_storageIjNS2_11boxed_labelINS1_15twa_graph_stateELb0EEEEENS_9allocatorIS7_EEE12emplace_backIJEEERS7_DpOT_, symObjAddr: 0x7FE0, symBinAddr: 0x100008EF0, symSize: 0x68 }
  - { offsetInCU: 0x61584, offset: 0x61584, size: 0x8, addend: 0x0, symName: __ZNSt3__16vectorIN4spot8internal15distate_storageIjNS2_11boxed_labelINS1_15twa_graph_stateELb0EEEEENS_9allocatorIS7_EEE9__end_capB7v160006Ev, symObjAddr: 0x8048, symBinAddr: 0x100008F58, symSize: 0x28 }
  - { offsetInCU: 0x615AA, offset: 0x615AA, size: 0x8, addend: 0x0, symName: __ZNSt3__16vectorIN4spot8internal15distate_storageIjNS2_11boxed_labelINS1_15twa_graph_stateELb0EEEEENS_9allocatorIS7_EEE22__construct_one_at_endB7v160006IJEEEvDpOT_, symObjAddr: 0x8070, symBinAddr: 0x100008F80, symSize: 0x88 }
  - { offsetInCU: 0x615E4, offset: 0x615E4, size: 0x8, addend: 0x0, symName: __ZNSt3__16vectorIN4spot8internal15distate_storageIjNS2_11boxed_labelINS1_15twa_graph_stateELb0EEEEENS_9allocatorIS7_EEE24__emplace_back_slow_pathIJEEEvDpOT_, symObjAddr: 0x80F8, symBinAddr: 0x100009008, symSize: 0xD0 }
  - { offsetInCU: 0x6162F, offset: 0x6162F, size: 0x8, addend: 0x0, symName: __ZNSt3__16vectorIN4spot8internal15distate_storageIjNS2_11boxed_labelINS1_15twa_graph_stateELb0EEEEENS_9allocatorIS7_EEE4backB7v160006Ev, symObjAddr: 0x81C8, symBinAddr: 0x1000090D8, symSize: 0x1C }
  - { offsetInCU: 0x61655, offset: 0x61655, size: 0x8, addend: 0x0, symName: __ZNSt3__117__compressed_pairIPN4spot8internal15distate_storageIjNS2_11boxed_labelINS1_15twa_graph_stateELb0EEEEENS_9allocatorIS7_EEE5firstB7v160006Ev, symObjAddr: 0x81E4, symBinAddr: 0x1000090F4, symSize: 0x24 }
  - { offsetInCU: 0x6167B, offset: 0x6167B, size: 0x8, addend: 0x0, symName: __ZNSt3__122__compressed_pair_elemIPN4spot8internal15distate_storageIjNS2_11boxed_labelINS1_15twa_graph_stateELb0EEEEELi0ELb0EE5__getB7v160006Ev, symObjAddr: 0x8208, symBinAddr: 0x100009118, symSize: 0x14 }
  - { offsetInCU: 0x616BC, offset: 0x616BC, size: 0x8, addend: 0x0, symName: __ZNSt3__16vectorIN4spot8internal15distate_storageIjNS2_11boxed_labelINS1_15twa_graph_stateELb0EEEEENS_9allocatorIS7_EEE21_ConstructTransactionC1B7v160006ERSA_m, symObjAddr: 0x821C, symBinAddr: 0x10000912C, symSize: 0x3C }
  - { offsetInCU: 0x61704, offset: 0x61704, size: 0x8, addend: 0x0, symName: __ZNSt3__116allocator_traitsINS_9allocatorIN4spot8internal15distate_storageIjNS3_11boxed_labelINS2_15twa_graph_stateELb0EEEEEEEE9constructB7v160006IS8_JEvEEvRS9_PT_DpOT0_, symObjAddr: 0x8258, symBinAddr: 0x100009168, symSize: 0x2C }
  - { offsetInCU: 0x61746, offset: 0x61746, size: 0x8, addend: 0x0, symName: __ZNSt3__16vectorIN4spot8internal15distate_storageIjNS2_11boxed_labelINS1_15twa_graph_stateELb0EEEEENS_9allocatorIS7_EEE7__allocB7v160006Ev, symObjAddr: 0x8284, symBinAddr: 0x100009194, symSize: 0x28 }
  - { offsetInCU: 0x6176C, offset: 0x6176C, size: 0x8, addend: 0x0, symName: __ZNSt3__16vectorIN4spot8internal15distate_storageIjNS2_11boxed_labelINS1_15twa_graph_stateELb0EEEEENS_9allocatorIS7_EEE21_ConstructTransactionD1B7v160006Ev, symObjAddr: 0x82C0, symBinAddr: 0x1000091D0, symSize: 0x2C }
  - { offsetInCU: 0x61796, offset: 0x61796, size: 0x8, addend: 0x0, symName: __ZNSt3__16vectorIN4spot8internal15distate_storageIjNS2_11boxed_labelINS1_15twa_graph_stateELb0EEEEENS_9allocatorIS7_EEE21_ConstructTransactionC2B7v160006ERSA_m, symObjAddr: 0x82EC, symBinAddr: 0x1000091FC, symSize: 0x44 }
  - { offsetInCU: 0x617DE, offset: 0x617DE, size: 0x8, addend: 0x0, symName: __ZNSt3__19allocatorIN4spot8internal15distate_storageIjNS2_11boxed_labelINS1_15twa_graph_stateELb0EEEEEE9constructB7v160006IS7_JEEEvPT_DpOT0_, symObjAddr: 0x8330, symBinAddr: 0x100009240, symSize: 0x28 }
  - { offsetInCU: 0x61825, offset: 0x61825, size: 0x8, addend: 0x0, symName: __ZN4spot8internal15distate_storageIjNS0_11boxed_labelINS_15twa_graph_stateELb0EEEEC1IJEvEEDpOT_, symObjAddr: 0x8358, symBinAddr: 0x100009268, symSize: 0x2C }
  - { offsetInCU: 0x61855, offset: 0x61855, size: 0x8, addend: 0x0, symName: __ZN4spot8internal15distate_storageIjNS0_11boxed_labelINS_15twa_graph_stateELb0EEEEC2IJEvEEDpOT_, symObjAddr: 0x8384, symBinAddr: 0x100009294, symSize: 0x4C }
  - { offsetInCU: 0x61885, offset: 0x61885, size: 0x8, addend: 0x0, symName: __ZN4spot8internal11boxed_labelINS_15twa_graph_stateELb0EEC2Ev, symObjAddr: 0x83D0, symBinAddr: 0x1000092E0, symSize: 0x44 }
  - { offsetInCU: 0x618AF, offset: 0x618AF, size: 0x8, addend: 0x0, symName: __ZNK4spot15twa_graph_state7compareEPKNS_5stateE, symObjAddr: 0x8414, symBinAddr: 0x100009324, symSize: 0x88 }
  - { offsetInCU: 0x618F2, offset: 0x618F2, size: 0x8, addend: 0x0, symName: __ZNK4spot15twa_graph_state4hashEv, symObjAddr: 0x849C, symBinAddr: 0x1000093AC, symSize: 0x14 }
  - { offsetInCU: 0x61918, offset: 0x61918, size: 0x8, addend: 0x0, symName: __ZNK4spot15twa_graph_state5cloneEv, symObjAddr: 0x84B0, symBinAddr: 0x1000093C0, symSize: 0x14 }
  - { offsetInCU: 0x6193E, offset: 0x6193E, size: 0x8, addend: 0x0, symName: __ZNK4spot15twa_graph_state7destroyEv, symObjAddr: 0x84C4, symBinAddr: 0x1000093D4, symSize: 0x10 }
  - { offsetInCU: 0x61964, offset: 0x61964, size: 0x8, addend: 0x0, symName: __ZN4spot8internal15distate_storageIjNS0_11boxed_labelINS_15twa_graph_stateELb0EEEED1Ev, symObjAddr: 0x84D4, symBinAddr: 0x1000093E4, symSize: 0x2C }
  - { offsetInCU: 0x61990, offset: 0x61990, size: 0x8, addend: 0x0, symName: __ZN4spot8internal15distate_storageIjNS0_11boxed_labelINS_15twa_graph_stateELb0EEEED0Ev, symObjAddr: 0x8500, symBinAddr: 0x100009410, symSize: 0x30 }
  - { offsetInCU: 0x619BC, offset: 0x619BC, size: 0x8, addend: 0x0, symName: __ZN4spot15twa_graph_stateC2Ev, symObjAddr: 0x8530, symBinAddr: 0x100009440, symSize: 0x44 }
  - { offsetInCU: 0x619E6, offset: 0x619E6, size: 0x8, addend: 0x0, symName: __ZN4spot8internal11boxed_labelINS_15twa_graph_stateELb0EED1Ev, symObjAddr: 0x8574, symBinAddr: 0x100009484, symSize: 0x2C }
  - { offsetInCU: 0x61A12, offset: 0x61A12, size: 0x8, addend: 0x0, symName: __ZN4spot8internal11boxed_labelINS_15twa_graph_stateELb0EED0Ev, symObjAddr: 0x85A0, symBinAddr: 0x1000094B0, symSize: 0x30 }
  - { offsetInCU: 0x61A3E, offset: 0x61A3E, size: 0x8, addend: 0x0, symName: __ZN4spot5stateC2Ev, symObjAddr: 0x85D0, symBinAddr: 0x1000094E0, symSize: 0x24 }
  - { offsetInCU: 0x61A6A, offset: 0x61A6A, size: 0x8, addend: 0x0, symName: __ZN4spot15twa_graph_stateD1Ev, symObjAddr: 0x85F4, symBinAddr: 0x100009504, symSize: 0x2C }
  - { offsetInCU: 0x61A94, offset: 0x61A94, size: 0x8, addend: 0x0, symName: __ZN4spot15twa_graph_stateD0Ev, symObjAddr: 0x8620, symBinAddr: 0x100009530, symSize: 0x30 }
  - { offsetInCU: 0x61ABE, offset: 0x61ABE, size: 0x8, addend: 0x0, symName: __ZNK4spot5state7destroyEv, symObjAddr: 0x8650, symBinAddr: 0x100009560, symSize: 0x48 }
  - { offsetInCU: 0x61AE4, offset: 0x61AE4, size: 0x8, addend: 0x0, symName: __ZN4spot5stateD1Ev, symObjAddr: 0x8698, symBinAddr: 0x1000095A8, symSize: 0x14 }
  - { offsetInCU: 0x61B0E, offset: 0x61B0E, size: 0x8, addend: 0x0, symName: __ZN4spot5stateD0Ev, symObjAddr: 0x86AC, symBinAddr: 0x1000095BC, symSize: 0xC }
  - { offsetInCU: 0x61B38, offset: 0x61B38, size: 0x8, addend: 0x0, symName: __ZN4spot15twa_graph_stateD2Ev, symObjAddr: 0x86B8, symBinAddr: 0x1000095C8, symSize: 0x2C }
  - { offsetInCU: 0x61B62, offset: 0x61B62, size: 0x8, addend: 0x0, symName: __ZN4spot5stateD2Ev, symObjAddr: 0x86E4, symBinAddr: 0x1000095F4, symSize: 0x14 }
  - { offsetInCU: 0x61B8C, offset: 0x61B8C, size: 0x8, addend: 0x0, symName: __ZN4spot8internal11boxed_labelINS_15twa_graph_stateELb0EED2Ev, symObjAddr: 0x86F8, symBinAddr: 0x100009608, symSize: 0x2C }
  - { offsetInCU: 0x61BB8, offset: 0x61BB8, size: 0x8, addend: 0x0, symName: __ZN4spot8internal15distate_storageIjNS0_11boxed_labelINS_15twa_graph_stateELb0EEEED2Ev, symObjAddr: 0x874C, symBinAddr: 0x10000965C, symSize: 0x2C }
  - { offsetInCU: 0x61BE4, offset: 0x61BE4, size: 0x8, addend: 0x0, symName: __ZNSt3__117__compressed_pairIPN4spot8internal15distate_storageIjNS2_11boxed_labelINS1_15twa_graph_stateELb0EEEEENS_9allocatorIS7_EEE6secondB7v160006Ev, symObjAddr: 0x8778, symBinAddr: 0x100009688, symSize: 0x24 }
  - { offsetInCU: 0x61C0A, offset: 0x61C0A, size: 0x8, addend: 0x0, symName: __ZNSt3__122__compressed_pair_elemINS_9allocatorIN4spot8internal15distate_storageIjNS3_11boxed_labelINS2_15twa_graph_stateELb0EEEEEEELi1ELb1EE5__getB7v160006Ev, symObjAddr: 0x879C, symBinAddr: 0x1000096AC, symSize: 0x14 }
  - { offsetInCU: 0x61C30, offset: 0x61C30, size: 0x8, addend: 0x0, symName: __ZNSt3__16vectorIN4spot8internal15distate_storageIjNS2_11boxed_labelINS1_15twa_graph_stateELb0EEEEENS_9allocatorIS7_EEE21_ConstructTransactionD2B7v160006Ev, symObjAddr: 0x87B0, symBinAddr: 0x1000096C0, symSize: 0x20 }
  - { offsetInCU: 0x61C5A, offset: 0x61C5A, size: 0x8, addend: 0x0, symName: __ZNKSt3__16vectorIN4spot8internal15distate_storageIjNS2_11boxed_labelINS1_15twa_graph_stateELb0EEEEENS_9allocatorIS7_EEE11__recommendB7v160006Em, symObjAddr: 0x87D0, symBinAddr: 0x1000096E0, symSize: 0xB4 }
  - { offsetInCU: 0x61CAF, offset: 0x61CAF, size: 0x8, addend: 0x0, symName: __ZNSt3__114__split_bufferIN4spot8internal15distate_storageIjNS2_11boxed_labelINS1_15twa_graph_stateELb0EEEEERNS_9allocatorIS7_EEEC1EmmSA_, symObjAddr: 0x8884, symBinAddr: 0x100009794, symSize: 0x44 }
  - { offsetInCU: 0x61D05, offset: 0x61D05, size: 0x8, addend: 0x0, symName: __ZNSt3__114__split_bufferIN4spot8internal15distate_storageIjNS2_11boxed_labelINS1_15twa_graph_stateELb0EEEEERNS_9allocatorIS7_EEED1Ev, symObjAddr: 0x89E0, symBinAddr: 0x1000098F0, symSize: 0x2C }
  - { offsetInCU: 0x61D31, offset: 0x61D31, size: 0x8, addend: 0x0, symName: __ZNKSt3__16vectorIN4spot8internal15distate_storageIjNS2_11boxed_labelINS1_15twa_graph_stateELb0EEEEENS_9allocatorIS7_EEE8max_sizeEv, symObjAddr: 0x8A0C, symBinAddr: 0x10000991C, symSize: 0x60 }
  - { offsetInCU: 0x61D59, offset: 0x61D59, size: 0x8, addend: 0x0, symName: __ZNKSt3__16vectorIN4spot8internal15distate_storageIjNS2_11boxed_labelINS1_15twa_graph_stateELb0EEEEENS_9allocatorIS7_EEE20__throw_length_errorB7v160006Ev, symObjAddr: 0x8A6C, symBinAddr: 0x10000997C, symSize: 0x1C }
  - { offsetInCU: 0x61D7F, offset: 0x61D7F, size: 0x8, addend: 0x0, symName: __ZNKSt3__16vectorIN4spot8internal15distate_storageIjNS2_11boxed_labelINS1_15twa_graph_stateELb0EEEEENS_9allocatorIS7_EEE8capacityB7v160006Ev, symObjAddr: 0x8A88, symBinAddr: 0x100009998, symSize: 0x40 }
  - { offsetInCU: 0x61DB0, offset: 0x61DB0, size: 0x8, addend: 0x0, symName: __ZNSt3__116allocator_traitsINS_9allocatorIN4spot8internal15distate_storageIjNS3_11boxed_labelINS2_15twa_graph_stateELb0EEEEEEEE8max_sizeB7v160006IS9_vEEmRKS9_, symObjAddr: 0x8AC8, symBinAddr: 0x1000099D8, symSize: 0x24 }
  - { offsetInCU: 0x61DDE, offset: 0x61DDE, size: 0x8, addend: 0x0, symName: __ZNKSt3__16vectorIN4spot8internal15distate_storageIjNS2_11boxed_labelINS1_15twa_graph_stateELb0EEEEENS_9allocatorIS7_EEE7__allocB7v160006Ev, symObjAddr: 0x8AEC, symBinAddr: 0x1000099FC, symSize: 0x28 }
  - { offsetInCU: 0x61E04, offset: 0x61E04, size: 0x8, addend: 0x0, symName: __ZNKSt3__19allocatorIN4spot8internal15distate_storageIjNS2_11boxed_labelINS1_15twa_graph_stateELb0EEEEEE8max_sizeB7v160006Ev, symObjAddr: 0x8B14, symBinAddr: 0x100009A24, symSize: 0x14 }
  - { offsetInCU: 0x61E2A, offset: 0x61E2A, size: 0x8, addend: 0x0, symName: __ZNKSt3__117__compressed_pairIPN4spot8internal15distate_storageIjNS2_11boxed_labelINS1_15twa_graph_stateELb0EEEEENS_9allocatorIS7_EEE6secondB7v160006Ev, symObjAddr: 0x8B28, symBinAddr: 0x100009A38, symSize: 0x24 }
  - { offsetInCU: 0x61E50, offset: 0x61E50, size: 0x8, addend: 0x0, symName: __ZNKSt3__122__compressed_pair_elemINS_9allocatorIN4spot8internal15distate_storageIjNS3_11boxed_labelINS2_15twa_graph_stateELb0EEEEEEELi1ELb1EE5__getB7v160006Ev, symObjAddr: 0x8B4C, symBinAddr: 0x100009A5C, symSize: 0x14 }
  - { offsetInCU: 0x61E76, offset: 0x61E76, size: 0x8, addend: 0x0, symName: __ZNKSt3__16vectorIN4spot8internal15distate_storageIjNS2_11boxed_labelINS1_15twa_graph_stateELb0EEEEENS_9allocatorIS7_EEE9__end_capB7v160006Ev, symObjAddr: 0x8B60, symBinAddr: 0x100009A70, symSize: 0x28 }
  - { offsetInCU: 0x61E9C, offset: 0x61E9C, size: 0x8, addend: 0x0, symName: __ZNKSt3__117__compressed_pairIPN4spot8internal15distate_storageIjNS2_11boxed_labelINS1_15twa_graph_stateELb0EEEEENS_9allocatorIS7_EEE5firstB7v160006Ev, symObjAddr: 0x8B88, symBinAddr: 0x100009A98, symSize: 0x24 }
  - { offsetInCU: 0x61EC2, offset: 0x61EC2, size: 0x8, addend: 0x0, symName: __ZNKSt3__122__compressed_pair_elemIPN4spot8internal15distate_storageIjNS2_11boxed_labelINS1_15twa_graph_stateELb0EEEEELi0ELb0EE5__getB7v160006Ev, symObjAddr: 0x8BAC, symBinAddr: 0x100009ABC, symSize: 0x14 }
  - { offsetInCU: 0x61EE8, offset: 0x61EE8, size: 0x8, addend: 0x0, symName: __ZNSt3__114__split_bufferIN4spot8internal15distate_storageIjNS2_11boxed_labelINS1_15twa_graph_stateELb0EEEEERNS_9allocatorIS7_EEEC2EmmSA_, symObjAddr: 0x8BC0, symBinAddr: 0x100009AD0, symSize: 0xD4 }
  - { offsetInCU: 0x61F5C, offset: 0x61F5C, size: 0x8, addend: 0x0, symName: __ZNSt3__117__compressed_pairIPN4spot8internal15distate_storageIjNS2_11boxed_labelINS1_15twa_graph_stateELb0EEEEERNS_9allocatorIS7_EEEC1B7v160006IDnSB_EEOT_OT0_, symObjAddr: 0x8C94, symBinAddr: 0x100009BA4, symSize: 0x3C }
  - { offsetInCU: 0x61FB4, offset: 0x61FB4, size: 0x8, addend: 0x0, symName: __ZNSt3__114__split_bufferIN4spot8internal15distate_storageIjNS2_11boxed_labelINS1_15twa_graph_stateELb0EEEEERNS_9allocatorIS7_EEE7__allocB7v160006Ev, symObjAddr: 0x8D10, symBinAddr: 0x100009C20, symSize: 0x28 }
  - { offsetInCU: 0x61FDA, offset: 0x61FDA, size: 0x8, addend: 0x0, symName: __ZNSt3__114__split_bufferIN4spot8internal15distate_storageIjNS2_11boxed_labelINS1_15twa_graph_stateELb0EEEEERNS_9allocatorIS7_EEE9__end_capB7v160006Ev, symObjAddr: 0x8D38, symBinAddr: 0x100009C48, symSize: 0x28 }
  - { offsetInCU: 0x62000, offset: 0x62000, size: 0x8, addend: 0x0, symName: __ZNSt3__117__compressed_pairIPN4spot8internal15distate_storageIjNS2_11boxed_labelINS1_15twa_graph_stateELb0EEEEERNS_9allocatorIS7_EEEC2B7v160006IDnSB_EEOT_OT0_, symObjAddr: 0x8D60, symBinAddr: 0x100009C70, symSize: 0x48 }
  - { offsetInCU: 0x62058, offset: 0x62058, size: 0x8, addend: 0x0, symName: __ZNSt3__122__compressed_pair_elemIPN4spot8internal15distate_storageIjNS2_11boxed_labelINS1_15twa_graph_stateELb0EEEEELi0ELb0EEC2B7v160006IDnvEEOT_, symObjAddr: 0x8DA8, symBinAddr: 0x100009CB8, symSize: 0x1C }
  - { offsetInCU: 0x6209A, offset: 0x6209A, size: 0x8, addend: 0x0, symName: __ZNSt3__122__compressed_pair_elemIRNS_9allocatorIN4spot8internal15distate_storageIjNS3_11boxed_labelINS2_15twa_graph_stateELb0EEEEEEELi1ELb0EEC2B7v160006ISA_vEEOT_, symObjAddr: 0x8DC4, symBinAddr: 0x100009CD4, symSize: 0x20 }
  - { offsetInCU: 0x620DC, offset: 0x620DC, size: 0x8, addend: 0x0, symName: __ZNSt3__19allocatorIN4spot8internal15distate_storageIjNS2_11boxed_labelINS1_15twa_graph_stateELb0EEEEEE8allocateB7v160006Em, symObjAddr: 0x8DE4, symBinAddr: 0x100009CF4, symSize: 0x58 }
  - { offsetInCU: 0x62110, offset: 0x62110, size: 0x8, addend: 0x0, symName: __ZNSt3__117__compressed_pairIPN4spot8internal15distate_storageIjNS2_11boxed_labelINS1_15twa_graph_stateELb0EEEEERNS_9allocatorIS7_EEE6secondB7v160006Ev, symObjAddr: 0x8E3C, symBinAddr: 0x100009D4C, symSize: 0x28 }
  - { offsetInCU: 0x62136, offset: 0x62136, size: 0x8, addend: 0x0, symName: __ZNSt3__122__compressed_pair_elemIRNS_9allocatorIN4spot8internal15distate_storageIjNS3_11boxed_labelINS2_15twa_graph_stateELb0EEEEEEELi1ELb0EE5__getB7v160006Ev, symObjAddr: 0x8E64, symBinAddr: 0x100009D74, symSize: 0x18 }
  - { offsetInCU: 0x6215C, offset: 0x6215C, size: 0x8, addend: 0x0, symName: __ZNSt3__117__compressed_pairIPN4spot8internal15distate_storageIjNS2_11boxed_labelINS1_15twa_graph_stateELb0EEEEERNS_9allocatorIS7_EEE5firstB7v160006Ev, symObjAddr: 0x8E7C, symBinAddr: 0x100009D8C, symSize: 0x24 }
  - { offsetInCU: 0x62182, offset: 0x62182, size: 0x8, addend: 0x0, symName: __ZNKSt3__16vectorIN4spot8internal15distate_storageIjNS2_11boxed_labelINS1_15twa_graph_stateELb0EEEEENS_9allocatorIS7_EEE17__annotate_deleteB7v160006Ev, symObjAddr: 0x8EA0, symBinAddr: 0x100009DB0, symSize: 0xB8 }
  - { offsetInCU: 0x621A8, offset: 0x621A8, size: 0x8, addend: 0x0, symName: __ZNSt3__116reverse_iteratorIPN4spot8internal15distate_storageIjNS2_11boxed_labelINS1_15twa_graph_stateELb0EEEEEEC1B7v160006ES8_, symObjAddr: 0x9084, symBinAddr: 0x100009F94, symSize: 0x34 }
  - { offsetInCU: 0x621E0, offset: 0x621E0, size: 0x8, addend: 0x0, symName: __ZNKSt3__116reverse_iteratorIPN4spot8internal15distate_storageIjNS2_11boxed_labelINS1_15twa_graph_stateELb0EEEEEE4baseB7v160006Ev, symObjAddr: 0x90B8, symBinAddr: 0x100009FC8, symSize: 0x18 }
  - { offsetInCU: 0x62206, offset: 0x62206, size: 0x8, addend: 0x0, symName: __ZNKSt3__16vectorIN4spot8internal15distate_storageIjNS2_11boxed_labelINS1_15twa_graph_stateELb0EEEEENS_9allocatorIS7_EEE14__annotate_newB7v160006Em, symObjAddr: 0x910C, symBinAddr: 0x10000A01C, symSize: 0xAC }
  - { offsetInCU: 0x6223B, offset: 0x6223B, size: 0x8, addend: 0x0, symName: __ZNKSt3__16vectorIN4spot8internal15distate_storageIjNS2_11boxed_labelINS1_15twa_graph_stateELb0EEEEENS_9allocatorIS7_EEE31__annotate_contiguous_containerB7v160006EPKvSC_SC_SC_, symObjAddr: 0x91C8, symBinAddr: 0x10000A0D8, symSize: 0x20 }
  - { offsetInCU: 0x6228D, offset: 0x6228D, size: 0x8, addend: 0x0, symName: __ZNKSt3__16vectorIN4spot8internal15distate_storageIjNS2_11boxed_labelINS1_15twa_graph_stateELb0EEEEENS_9allocatorIS7_EEE4dataB7v160006Ev, symObjAddr: 0x91E8, symBinAddr: 0x10000A0F8, symSize: 0x28 }
  - { offsetInCU: 0x622B3, offset: 0x622B3, size: 0x8, addend: 0x0, symName: __ZNSt3__129_AllocatorDestroyRangeReverseINS_9allocatorIN4spot8internal15distate_storageIjNS3_11boxed_labelINS2_15twa_graph_stateELb0EEEEEEENS_16reverse_iteratorIPS8_EEEC1B7v160006ERS9_RSC_SF_, symObjAddr: 0x925C, symBinAddr: 0x10000A16C, symSize: 0x44 }
  - { offsetInCU: 0x62310, offset: 0x62310, size: 0x8, addend: 0x0, symName: __ZNSt3__116allocator_traitsINS_9allocatorIN4spot8internal15distate_storageIjNS3_11boxed_labelINS2_15twa_graph_stateELb0EEEEEEEE9constructB7v160006IS8_JS8_EvEEvRS9_PT_DpOT0_, symObjAddr: 0x92E8, symBinAddr: 0x10000A1F8, symSize: 0x34 }
  - { offsetInCU: 0x62367, offset: 0x62367, size: 0x8, addend: 0x0, symName: __ZNKSt3__116reverse_iteratorIPN4spot8internal15distate_storageIjNS2_11boxed_labelINS1_15twa_graph_stateELb0EEEEEEdeB7v160006Ev, symObjAddr: 0x9340, symBinAddr: 0x10000A250, symSize: 0x28 }
  - { offsetInCU: 0x6239C, offset: 0x6239C, size: 0x8, addend: 0x0, symName: __ZNSt3__116reverse_iteratorIPN4spot8internal15distate_storageIjNS2_11boxed_labelINS1_15twa_graph_stateELb0EEEEEEppB7v160006Ev, symObjAddr: 0x9368, symBinAddr: 0x10000A278, symSize: 0x20 }
  - { offsetInCU: 0x623C2, offset: 0x623C2, size: 0x8, addend: 0x0, symName: __ZNSt3__128__exception_guard_exceptionsINS_29_AllocatorDestroyRangeReverseINS_9allocatorIN4spot8internal15distate_storageIjNS4_11boxed_labelINS3_15twa_graph_stateELb0EEEEEEENS_16reverse_iteratorIPS9_EEEEE10__completeB7v160006Ev, symObjAddr: 0x9388, symBinAddr: 0x10000A298, symSize: 0x1C }
  - { offsetInCU: 0x623E8, offset: 0x623E8, size: 0x8, addend: 0x0, symName: __ZNSt3__128__exception_guard_exceptionsINS_29_AllocatorDestroyRangeReverseINS_9allocatorIN4spot8internal15distate_storageIjNS4_11boxed_labelINS3_15twa_graph_stateELb0EEEEEEENS_16reverse_iteratorIPS9_EEEEED1B7v160006Ev, symObjAddr: 0x93A4, symBinAddr: 0x10000A2B4, symSize: 0x2C }
  - { offsetInCU: 0x62412, offset: 0x62412, size: 0x8, addend: 0x0, symName: __ZNSt3__128__exception_guard_exceptionsINS_29_AllocatorDestroyRangeReverseINS_9allocatorIN4spot8internal15distate_storageIjNS4_11boxed_labelINS3_15twa_graph_stateELb0EEEEEEENS_16reverse_iteratorIPS9_EEEEEC1B7v160006ESE_, symObjAddr: 0x93D0, symBinAddr: 0x10000A2E0, symSize: 0x34 }
  - { offsetInCU: 0x6244B, offset: 0x6244B, size: 0x8, addend: 0x0, symName: __ZNSt3__128__exception_guard_exceptionsINS_29_AllocatorDestroyRangeReverseINS_9allocatorIN4spot8internal15distate_storageIjNS4_11boxed_labelINS3_15twa_graph_stateELb0EEEEEEENS_16reverse_iteratorIPS9_EEEEEC2B7v160006ESE_, symObjAddr: 0x9404, symBinAddr: 0x10000A314, symSize: 0x30 }
  - { offsetInCU: 0x62484, offset: 0x62484, size: 0x8, addend: 0x0, symName: __ZNSt3__129_AllocatorDestroyRangeReverseINS_9allocatorIN4spot8internal15distate_storageIjNS3_11boxed_labelINS2_15twa_graph_stateELb0EEEEEEENS_16reverse_iteratorIPS8_EEEC2B7v160006ERS9_RSC_SF_, symObjAddr: 0x9434, symBinAddr: 0x10000A344, symSize: 0x38 }
  - { offsetInCU: 0x624DB, offset: 0x624DB, size: 0x8, addend: 0x0, symName: __ZNSt3__19allocatorIN4spot8internal15distate_storageIjNS2_11boxed_labelINS1_15twa_graph_stateELb0EEEEEE9constructB7v160006IS7_JS7_EEEvPT_DpOT0_, symObjAddr: 0x946C, symBinAddr: 0x10000A37C, symSize: 0x30 }
  - { offsetInCU: 0x62531, offset: 0x62531, size: 0x8, addend: 0x0, symName: __ZN4spot8internal15distate_storageIjNS0_11boxed_labelINS_15twa_graph_stateELb0EEEEC1EOS5_, symObjAddr: 0x949C, symBinAddr: 0x10000A3AC, symSize: 0x34 }
  - { offsetInCU: 0x62566, offset: 0x62566, size: 0x8, addend: 0x0, symName: __ZN4spot8internal15distate_storageIjNS0_11boxed_labelINS_15twa_graph_stateELb0EEEEC2EOS5_, symObjAddr: 0x94D0, symBinAddr: 0x10000A3E0, symSize: 0x58 }
  - { offsetInCU: 0x625A1, offset: 0x625A1, size: 0x8, addend: 0x0, symName: __ZN4spot8internal11boxed_labelINS_15twa_graph_stateELb0EEC2EOS3_, symObjAddr: 0x9528, symBinAddr: 0x10000A438, symSize: 0x4C }
  - { offsetInCU: 0x625D6, offset: 0x625D6, size: 0x8, addend: 0x0, symName: __ZN4spot15twa_graph_stateC2ERKS0_, symObjAddr: 0x9574, symBinAddr: 0x10000A484, symSize: 0x48 }
  - { offsetInCU: 0x62610, offset: 0x62610, size: 0x8, addend: 0x0, symName: __ZNSt3__119__to_address_helperINS_16reverse_iteratorIPN4spot8internal15distate_storageIjNS3_11boxed_labelINS2_15twa_graph_stateELb0EEEEEEEvE6__callB7v160006ERKSA_, symObjAddr: 0x95BC, symBinAddr: 0x10000A4CC, symSize: 0x38 }
  - { offsetInCU: 0x62633, offset: 0x62633, size: 0x8, addend: 0x0, symName: __ZNKSt3__116reverse_iteratorIPN4spot8internal15distate_storageIjNS2_11boxed_labelINS1_15twa_graph_stateELb0EEEEEEptB7v160006Ev, symObjAddr: 0x95F4, symBinAddr: 0x10000A504, symSize: 0x24 }
  - { offsetInCU: 0x62659, offset: 0x62659, size: 0x8, addend: 0x0, symName: __ZNSt3__128__exception_guard_exceptionsINS_29_AllocatorDestroyRangeReverseINS_9allocatorIN4spot8internal15distate_storageIjNS4_11boxed_labelINS3_15twa_graph_stateELb0EEEEEEENS_16reverse_iteratorIPS9_EEEEED2B7v160006Ev, symObjAddr: 0x9618, symBinAddr: 0x10000A528, symSize: 0x50 }
  - { offsetInCU: 0x62683, offset: 0x62683, size: 0x8, addend: 0x0, symName: __ZNKSt3__129_AllocatorDestroyRangeReverseINS_9allocatorIN4spot8internal15distate_storageIjNS3_11boxed_labelINS2_15twa_graph_stateELb0EEEEEEENS_16reverse_iteratorIPS8_EEEclB7v160006Ev, symObjAddr: 0x9668, symBinAddr: 0x10000A578, symSize: 0xB4 }
  - { offsetInCU: 0x626AA, offset: 0x626AA, size: 0x8, addend: 0x0, symName: __ZNSt3__116reverse_iteratorINS0_IPN4spot8internal15distate_storageIjNS2_11boxed_labelINS1_15twa_graph_stateELb0EEEEEEEEC1B7v160006ES9_, symObjAddr: 0x978C, symBinAddr: 0x10000A69C, symSize: 0x3C }
  - { offsetInCU: 0x626E2, offset: 0x626E2, size: 0x8, addend: 0x0, symName: __ZNSt3__116allocator_traitsINS_9allocatorIN4spot8internal15distate_storageIjNS3_11boxed_labelINS2_15twa_graph_stateELb0EEEEEEEE7destroyB7v160006IS8_vEEvRS9_PT_, symObjAddr: 0x9828, symBinAddr: 0x10000A738, symSize: 0x2C }
  - { offsetInCU: 0x6271F, offset: 0x6271F, size: 0x8, addend: 0x0, symName: __ZNSt3__116reverse_iteratorINS0_IPN4spot8internal15distate_storageIjNS2_11boxed_labelINS1_15twa_graph_stateELb0EEEEEEEEppB7v160006Ev, symObjAddr: 0x9878, symBinAddr: 0x10000A788, symSize: 0x30 }
  - { offsetInCU: 0x62745, offset: 0x62745, size: 0x8, addend: 0x0, symName: __ZNKSt3__116reverse_iteratorINS0_IPN4spot8internal15distate_storageIjNS2_11boxed_labelINS1_15twa_graph_stateELb0EEEEEEEE4baseB7v160006Ev, symObjAddr: 0x98A8, symBinAddr: 0x10000A7B8, symSize: 0x24 }
  - { offsetInCU: 0x6276B, offset: 0x6276B, size: 0x8, addend: 0x0, symName: __ZNSt3__19allocatorIN4spot8internal15distate_storageIjNS2_11boxed_labelINS1_15twa_graph_stateELb0EEEEEE7destroyB7v160006EPS7_, symObjAddr: 0x98CC, symBinAddr: 0x10000A7DC, symSize: 0x28 }
  - { offsetInCU: 0x627A5, offset: 0x627A5, size: 0x8, addend: 0x0, symName: __ZNSt3__119__to_address_helperINS_16reverse_iteratorINS1_IPN4spot8internal15distate_storageIjNS3_11boxed_labelINS2_15twa_graph_stateELb0EEEEEEEEEvE6__callB7v160006ERKSB_, symObjAddr: 0x98F4, symBinAddr: 0x10000A804, symSize: 0x38 }
  - { offsetInCU: 0x627C8, offset: 0x627C8, size: 0x8, addend: 0x0, symName: __ZNKSt3__116reverse_iteratorINS0_IPN4spot8internal15distate_storageIjNS2_11boxed_labelINS1_15twa_graph_stateELb0EEEEEEEEptB7v160006Ev, symObjAddr: 0x992C, symBinAddr: 0x10000A83C, symSize: 0x24 }
  - { offsetInCU: 0x627EE, offset: 0x627EE, size: 0x8, addend: 0x0, symName: __ZNKSt3__116reverse_iteratorINS0_IPN4spot8internal15distate_storageIjNS2_11boxed_labelINS1_15twa_graph_stateELb0EEEEEEEEdeB7v160006Ev, symObjAddr: 0x9950, symBinAddr: 0x10000A860, symSize: 0x34 }
  - { offsetInCU: 0x62823, offset: 0x62823, size: 0x8, addend: 0x0, symName: __ZNSt3__116reverse_iteratorIPN4spot8internal15distate_storageIjNS2_11boxed_labelINS1_15twa_graph_stateELb0EEEEEEmmB7v160006Ev, symObjAddr: 0x9984, symBinAddr: 0x10000A894, symSize: 0x20 }
  - { offsetInCU: 0x62849, offset: 0x62849, size: 0x8, addend: 0x0, symName: __ZNSt3__116reverse_iteratorINS0_IPN4spot8internal15distate_storageIjNS2_11boxed_labelINS1_15twa_graph_stateELb0EEEEEEEEC2B7v160006ES9_, symObjAddr: 0x99A4, symBinAddr: 0x10000A8B4, symSize: 0x2C }
  - { offsetInCU: 0x62881, offset: 0x62881, size: 0x8, addend: 0x0, symName: __ZNSt3__116reverse_iteratorIPN4spot8internal15distate_storageIjNS2_11boxed_labelINS1_15twa_graph_stateELb0EEEEEEC2B7v160006ES8_, symObjAddr: 0x99D0, symBinAddr: 0x10000A8E0, symSize: 0x28 }
  - { offsetInCU: 0x628B9, offset: 0x628B9, size: 0x8, addend: 0x0, symName: __ZNSt3__114__split_bufferIN4spot8internal15distate_storageIjNS2_11boxed_labelINS1_15twa_graph_stateELb0EEEEERNS_9allocatorIS7_EEED2Ev, symObjAddr: 0x99F8, symBinAddr: 0x10000A908, symSize: 0x8C }
  - { offsetInCU: 0x628E5, offset: 0x628E5, size: 0x8, addend: 0x0, symName: __ZNSt3__114__split_bufferIN4spot8internal15distate_storageIjNS2_11boxed_labelINS1_15twa_graph_stateELb0EEEEERNS_9allocatorIS7_EEE5clearB7v160006Ev, symObjAddr: 0x9A84, symBinAddr: 0x10000A994, symSize: 0x28 }
  - { offsetInCU: 0x6290B, offset: 0x6290B, size: 0x8, addend: 0x0, symName: __ZNSt3__116allocator_traitsINS_9allocatorIN4spot8internal15distate_storageIjNS3_11boxed_labelINS2_15twa_graph_stateELb0EEEEEEEE10deallocateB7v160006ERS9_PS8_m, symObjAddr: 0x9AAC, symBinAddr: 0x10000A9BC, symSize: 0x34 }
  - { offsetInCU: 0x6294D, offset: 0x6294D, size: 0x8, addend: 0x0, symName: __ZNKSt3__114__split_bufferIN4spot8internal15distate_storageIjNS2_11boxed_labelINS1_15twa_graph_stateELb0EEEEERNS_9allocatorIS7_EEE8capacityB7v160006Ev, symObjAddr: 0x9AE0, symBinAddr: 0x10000A9F0, symSize: 0x40 }
  - { offsetInCU: 0x62973, offset: 0x62973, size: 0x8, addend: 0x0, symName: __ZNSt3__114__split_bufferIN4spot8internal15distate_storageIjNS2_11boxed_labelINS1_15twa_graph_stateELb0EEEEERNS_9allocatorIS7_EEE17__destruct_at_endB7v160006EPS7_, symObjAddr: 0x9B20, symBinAddr: 0x10000AA30, symSize: 0x2C }
  - { offsetInCU: 0x629A7, offset: 0x629A7, size: 0x8, addend: 0x0, symName: __ZNSt3__114__split_bufferIN4spot8internal15distate_storageIjNS2_11boxed_labelINS1_15twa_graph_stateELb0EEEEERNS_9allocatorIS7_EEE17__destruct_at_endB7v160006EPS7_NS_17integral_constantIbLb0EEE, symObjAddr: 0x9B4C, symBinAddr: 0x10000AA5C, symSize: 0x80 }
  - { offsetInCU: 0x629E7, offset: 0x629E7, size: 0x8, addend: 0x0, symName: __ZNSt3__19allocatorIN4spot8internal15distate_storageIjNS2_11boxed_labelINS1_15twa_graph_stateELb0EEEEEE10deallocateB7v160006EPS7_m, symObjAddr: 0x9BCC, symBinAddr: 0x10000AADC, symSize: 0x40 }
  - { offsetInCU: 0x62A29, offset: 0x62A29, size: 0x8, addend: 0x0, symName: __ZNKSt3__114__split_bufferIN4spot8internal15distate_storageIjNS2_11boxed_labelINS1_15twa_graph_stateELb0EEEEERNS_9allocatorIS7_EEE9__end_capB7v160006Ev, symObjAddr: 0x9C0C, symBinAddr: 0x10000AB1C, symSize: 0x28 }
  - { offsetInCU: 0x62A4F, offset: 0x62A4F, size: 0x8, addend: 0x0, symName: __ZNKSt3__117__compressed_pairIPN4spot8internal15distate_storageIjNS2_11boxed_labelINS1_15twa_graph_stateELb0EEEEERNS_9allocatorIS7_EEE5firstB7v160006Ev, symObjAddr: 0x9C34, symBinAddr: 0x10000AB44, symSize: 0x24 }
  - { offsetInCU: 0x62A75, offset: 0x62A75, size: 0x8, addend: 0x0, symName: __ZNSt3__15tupleIJbjEEC2B7v160006IJRbRjELi0EEEDpOT_, symObjAddr: 0x9C58, symBinAddr: 0x10000AB68, symSize: 0x3C }
  - { offsetInCU: 0x62AD3, offset: 0x62AD3, size: 0x8, addend: 0x0, symName: __ZNSt3__112__tuple_implINS_15__tuple_indicesIJLm0ELm1EEEEJbjEEC1B7v160006IJLm0ELm1EEJbjEJEJEJRbRjEEENS1_IJXspT_EEEENS_13__tuple_typesIJDpT0_EEENS1_IJXspT1_EEEENS8_IJDpT2_EEEDpOT3_, symObjAddr: 0x9C94, symBinAddr: 0x10000ABA4, symSize: 0x3C }
  - { offsetInCU: 0x62B83, offset: 0x62B83, size: 0x8, addend: 0x0, symName: __ZNSt3__112__tuple_implINS_15__tuple_indicesIJLm0ELm1EEEEJbjEEC2B7v160006IJLm0ELm1EEJbjEJEJEJRbRjEEENS1_IJXspT_EEEENS_13__tuple_typesIJDpT0_EEENS1_IJXspT1_EEEENS8_IJDpT2_EEEDpOT3_, symObjAddr: 0x9CD0, symBinAddr: 0x10000ABE0, symSize: 0x48 }
  - { offsetInCU: 0x62C33, offset: 0x62C33, size: 0x8, addend: 0x0, symName: __ZNSt3__112__tuple_leafILm0EbLb0EEC2B7v160006IRbvEEOT_, symObjAddr: 0x9D18, symBinAddr: 0x10000AC28, symSize: 0x28 }
  - { offsetInCU: 0x62C76, offset: 0x62C76, size: 0x8, addend: 0x0, symName: __ZNSt3__112__tuple_leafILm1EjLb0EEC2B7v160006IRjvEEOT_, symObjAddr: 0x9D40, symBinAddr: 0x10000AC50, symSize: 0x24 }
  - { offsetInCU: 0x62CB9, offset: 0x62CB9, size: 0x8, addend: 0x0, symName: __ZNK4spot6trival3valEv, symObjAddr: 0x9DC0, symBinAddr: 0x10000ACD0, symSize: 0x18 }
  - { offsetInCU: 0x62CDF, offset: 0x62CDF, size: 0x8, addend: 0x0, symName: __ZN4spot6trival11from_repr_tEa, symObjAddr: 0x9DD8, symBinAddr: 0x10000ACE8, symSize: 0x2C }
  - { offsetInCU: 0x62D02, offset: 0x62D02, size: 0x8, addend: 0x0, symName: __ZN4spot6trivalC1ENS0_7value_tE, symObjAddr: 0x9E04, symBinAddr: 0x10000AD14, symSize: 0x34 }
  - { offsetInCU: 0x62D3A, offset: 0x62D3A, size: 0x8, addend: 0x0, symName: __ZN4spot6trivalC2ENS0_7value_tE, symObjAddr: 0x9E38, symBinAddr: 0x10000AD48, symSize: 0x20 }
  - { offsetInCU: 0x62D72, offset: 0x62D72, size: 0x8, addend: 0x0, symName: __ZN4spot6trivalC2Eb, symObjAddr: 0x9E58, symBinAddr: 0x10000AD68, symSize: 0x38 }
  - { offsetInCU: 0x62DAA, offset: 0x62DAA, size: 0x8, addend: 0x0, symName: __ZNSt16invalid_argumentC2B7v160006EPKc, symObjAddr: 0x9E90, symBinAddr: 0x10000ADA0, symSize: 0x4C }
  - { offsetInCU: 0x62DE2, offset: 0x62DE2, size: 0x8, addend: 0x0, symName: __ZNK4spot8acc_cond14get_acceptanceEv, symObjAddr: 0x9EDC, symBinAddr: 0x10000ADEC, symSize: 0x18 }
  - { offsetInCU: 0x62E08, offset: 0x62E08, size: 0x8, addend: 0x0, symName: __ZN4spot8acc_condC2ERKNS0_8acc_codeE, symObjAddr: 0x9EF4, symBinAddr: 0x10000AE04, symSize: 0xE0 }
  - { offsetInCU: 0x62E41, offset: 0x62E41, size: 0x8, addend: 0x0, symName: __ZN4spot8acc_cond8acc_codeC1ERKS1_, symObjAddr: 0x9FD4, symBinAddr: 0x10000AEE4, symSize: 0x34 }
  - { offsetInCU: 0x62E77, offset: 0x62E77, size: 0x8, addend: 0x0, symName: __ZN4spot8acc_cond8add_setsEj, symObjAddr: 0xA008, symBinAddr: 0x10000AF18, symSize: 0xB8 }
  - { offsetInCU: 0x62EBB, offset: 0x62EBB, size: 0x8, addend: 0x0, symName: __ZNK4spot8acc_cond6mark_t7max_setEv, symObjAddr: 0xA0C0, symBinAddr: 0x10000AFD0, symSize: 0x50 }
  - { offsetInCU: 0x62EE1, offset: 0x62EE1, size: 0x8, addend: 0x0, symName: __ZN4spot8acc_cond8acc_codeC2ERKS1_, symObjAddr: 0xA110, symBinAddr: 0x10000B020, symSize: 0x34 }
  - { offsetInCU: 0x62F17, offset: 0x62F17, size: 0x8, addend: 0x0, symName: __ZNSt3__16vectorIN4spot8acc_cond8acc_wordENS_9allocatorIS3_EEEC2ERKS6_, symObjAddr: 0xA144, symBinAddr: 0x10000B054, symSize: 0x114 }
  - { offsetInCU: 0x62F82, offset: 0x62F82, size: 0x8, addend: 0x0, symName: __ZNSt3__116allocator_traitsINS_9allocatorIN4spot8acc_cond8acc_wordEEEE37select_on_container_copy_constructionB7v160006IS5_vvEES5_RKS5_, symObjAddr: 0xA258, symBinAddr: 0x10000B168, symSize: 0x10 }
  - { offsetInCU: 0x62FB1, offset: 0x62FB1, size: 0x8, addend: 0x0, symName: __ZNKSt3__16vectorIN4spot8acc_cond8acc_wordENS_9allocatorIS3_EEE7__allocB7v160006Ev, symObjAddr: 0xA268, symBinAddr: 0x10000B178, symSize: 0x28 }
  - { offsetInCU: 0x62FDD, offset: 0x62FDD, size: 0x8, addend: 0x0, symName: __ZNSt3__117__compressed_pairIPN4spot8acc_cond8acc_wordENS_9allocatorIS3_EEEC1B7v160006IDnS6_EEOT_OT0_, symObjAddr: 0xA290, symBinAddr: 0x10000B1A0, symSize: 0x3C }
  - { offsetInCU: 0x63035, offset: 0x63035, size: 0x8, addend: 0x0, symName: __ZNSt3__16vectorIN4spot8acc_cond8acc_wordENS_9allocatorIS3_EEE16__destroy_vectorC1ERS6_, symObjAddr: 0xA30C, symBinAddr: 0x10000B21C, symSize: 0x34 }
  - { offsetInCU: 0x6306E, offset: 0x6306E, size: 0x8, addend: 0x0, symName: __ZNKSt3__16vectorIN4spot8acc_cond8acc_wordENS_9allocatorIS3_EEE4sizeB7v160006Ev, symObjAddr: 0xA350, symBinAddr: 0x10000B260, symSize: 0x28 }
  - { offsetInCU: 0x63094, offset: 0x63094, size: 0x8, addend: 0x0, symName: __ZNSt3__16vectorIN4spot8acc_cond8acc_wordENS_9allocatorIS3_EEE11__vallocateB7v160006Em, symObjAddr: 0xA378, symBinAddr: 0x10000B288, symSize: 0xAC }
  - { offsetInCU: 0x630D8, offset: 0x630D8, size: 0x8, addend: 0x0, symName: __ZNSt3__16vectorIN4spot8acc_cond8acc_wordENS_9allocatorIS3_EEE18__construct_at_endIPS3_Li0EEEvT_S9_m, symObjAddr: 0xA424, symBinAddr: 0x10000B334, symSize: 0x8C }
  - { offsetInCU: 0x6314B, offset: 0x6314B, size: 0x8, addend: 0x0, symName: __ZNSt3__128__exception_guard_exceptionsINS_6vectorIN4spot8acc_cond8acc_wordENS_9allocatorIS4_EEE16__destroy_vectorEE10__completeB7v160006Ev, symObjAddr: 0xA4B0, symBinAddr: 0x10000B3C0, symSize: 0x1C }
  - { offsetInCU: 0x63171, offset: 0x63171, size: 0x8, addend: 0x0, symName: __ZNSt3__128__exception_guard_exceptionsINS_6vectorIN4spot8acc_cond8acc_wordENS_9allocatorIS4_EEE16__destroy_vectorEED1B7v160006Ev, symObjAddr: 0xA4CC, symBinAddr: 0x10000B3DC, symSize: 0x2C }
  - { offsetInCU: 0x6319B, offset: 0x6319B, size: 0x8, addend: 0x0, symName: __ZNKSt3__117__compressed_pairIPN4spot8acc_cond8acc_wordENS_9allocatorIS3_EEE6secondB7v160006Ev, symObjAddr: 0xA4F8, symBinAddr: 0x10000B408, symSize: 0x24 }
  - { offsetInCU: 0x631C1, offset: 0x631C1, size: 0x8, addend: 0x0, symName: __ZNKSt3__122__compressed_pair_elemINS_9allocatorIN4spot8acc_cond8acc_wordEEELi1ELb1EE5__getB7v160006Ev, symObjAddr: 0xA51C, symBinAddr: 0x10000B42C, symSize: 0x14 }
  - { offsetInCU: 0x631E7, offset: 0x631E7, size: 0x8, addend: 0x0, symName: __ZNSt3__117__compressed_pairIPN4spot8acc_cond8acc_wordENS_9allocatorIS3_EEEC2B7v160006IDnS6_EEOT_OT0_, symObjAddr: 0xA530, symBinAddr: 0x10000B440, symSize: 0x44 }
  - { offsetInCU: 0x6323F, offset: 0x6323F, size: 0x8, addend: 0x0, symName: __ZNSt3__122__compressed_pair_elemIPN4spot8acc_cond8acc_wordELi0ELb0EEC2B7v160006IDnvEEOT_, symObjAddr: 0xA574, symBinAddr: 0x10000B484, symSize: 0x1C }
  - { offsetInCU: 0x63281, offset: 0x63281, size: 0x8, addend: 0x0, symName: __ZNSt3__122__compressed_pair_elemINS_9allocatorIN4spot8acc_cond8acc_wordEEELi1ELb1EEC2B7v160006IS5_vEEOT_, symObjAddr: 0xA590, symBinAddr: 0x10000B4A0, symSize: 0x18 }
  - { offsetInCU: 0x632C3, offset: 0x632C3, size: 0x8, addend: 0x0, symName: __ZNSt3__128__exception_guard_exceptionsINS_6vectorIN4spot8acc_cond8acc_wordENS_9allocatorIS4_EEE16__destroy_vectorEEC1B7v160006ES8_, symObjAddr: 0xA5A8, symBinAddr: 0x10000B4B8, symSize: 0x34 }
  - { offsetInCU: 0x632FB, offset: 0x632FB, size: 0x8, addend: 0x0, symName: __ZNSt3__128__exception_guard_exceptionsINS_6vectorIN4spot8acc_cond8acc_wordENS_9allocatorIS4_EEE16__destroy_vectorEEC2B7v160006ES8_, symObjAddr: 0xA5DC, symBinAddr: 0x10000B4EC, symSize: 0x24 }
  - { offsetInCU: 0x63333, offset: 0x63333, size: 0x8, addend: 0x0, symName: __ZNSt3__16vectorIN4spot8acc_cond8acc_wordENS_9allocatorIS3_EEE16__destroy_vectorC2ERS6_, symObjAddr: 0xA600, symBinAddr: 0x10000B510, symSize: 0x20 }
  - { offsetInCU: 0x6336C, offset: 0x6336C, size: 0x8, addend: 0x0, symName: __ZNKSt3__16vectorIN4spot8acc_cond8acc_wordENS_9allocatorIS3_EEE8max_sizeEv, symObjAddr: 0xA620, symBinAddr: 0x10000B530, symSize: 0x60 }
  - { offsetInCU: 0x63394, offset: 0x63394, size: 0x8, addend: 0x0, symName: __ZNKSt3__16vectorIN4spot8acc_cond8acc_wordENS_9allocatorIS3_EEE20__throw_length_errorB7v160006Ev, symObjAddr: 0xA680, symBinAddr: 0x10000B590, symSize: 0x1C }
  - { offsetInCU: 0x633BA, offset: 0x633BA, size: 0x8, addend: 0x0, symName: __ZNSt3__16vectorIN4spot8acc_cond8acc_wordENS_9allocatorIS3_EEE7__allocB7v160006Ev, symObjAddr: 0xA6DC, symBinAddr: 0x10000B5EC, symSize: 0x28 }
  - { offsetInCU: 0x633E0, offset: 0x633E0, size: 0x8, addend: 0x0, symName: __ZNSt3__16vectorIN4spot8acc_cond8acc_wordENS_9allocatorIS3_EEE9__end_capB7v160006Ev, symObjAddr: 0xA704, symBinAddr: 0x10000B614, symSize: 0x28 }
  - { offsetInCU: 0x63406, offset: 0x63406, size: 0x8, addend: 0x0, symName: __ZNKSt3__16vectorIN4spot8acc_cond8acc_wordENS_9allocatorIS3_EEE14__annotate_newB7v160006Em, symObjAddr: 0xA72C, symBinAddr: 0x10000B63C, symSize: 0xAC }
  - { offsetInCU: 0x6343B, offset: 0x6343B, size: 0x8, addend: 0x0, symName: __ZNSt3__116allocator_traitsINS_9allocatorIN4spot8acc_cond8acc_wordEEEE8max_sizeB7v160006IS5_vEEmRKS5_, symObjAddr: 0xA7D8, symBinAddr: 0x10000B6E8, symSize: 0x24 }
  - { offsetInCU: 0x63469, offset: 0x63469, size: 0x8, addend: 0x0, symName: __ZNKSt3__19allocatorIN4spot8acc_cond8acc_wordEE8max_sizeB7v160006Ev, symObjAddr: 0xA7FC, symBinAddr: 0x10000B70C, symSize: 0x14 }
  - { offsetInCU: 0x6348F, offset: 0x6348F, size: 0x8, addend: 0x0, symName: __ZNSt3__19allocatorIN4spot8acc_cond8acc_wordEE8allocateB7v160006Em, symObjAddr: 0xA810, symBinAddr: 0x10000B720, symSize: 0x58 }
  - { offsetInCU: 0x634C3, offset: 0x634C3, size: 0x8, addend: 0x0, symName: __ZNSt3__117__compressed_pairIPN4spot8acc_cond8acc_wordENS_9allocatorIS3_EEE6secondB7v160006Ev, symObjAddr: 0xA868, symBinAddr: 0x10000B778, symSize: 0x24 }
  - { offsetInCU: 0x634E9, offset: 0x634E9, size: 0x8, addend: 0x0, symName: __ZNSt3__122__compressed_pair_elemINS_9allocatorIN4spot8acc_cond8acc_wordEEELi1ELb1EE5__getB7v160006Ev, symObjAddr: 0xA88C, symBinAddr: 0x10000B79C, symSize: 0x14 }
  - { offsetInCU: 0x6350F, offset: 0x6350F, size: 0x8, addend: 0x0, symName: __ZNSt3__117__compressed_pairIPN4spot8acc_cond8acc_wordENS_9allocatorIS3_EEE5firstB7v160006Ev, symObjAddr: 0xA8A0, symBinAddr: 0x10000B7B0, symSize: 0x24 }
  - { offsetInCU: 0x63535, offset: 0x63535, size: 0x8, addend: 0x0, symName: __ZNSt3__122__compressed_pair_elemIPN4spot8acc_cond8acc_wordELi0ELb0EE5__getB7v160006Ev, symObjAddr: 0xA8C4, symBinAddr: 0x10000B7D4, symSize: 0x14 }
  - { offsetInCU: 0x6355B, offset: 0x6355B, size: 0x8, addend: 0x0, symName: __ZNKSt3__16vectorIN4spot8acc_cond8acc_wordENS_9allocatorIS3_EEE31__annotate_contiguous_containerB7v160006EPKvS8_S8_S8_, symObjAddr: 0xA8D8, symBinAddr: 0x10000B7E8, symSize: 0x20 }
  - { offsetInCU: 0x635AD, offset: 0x635AD, size: 0x8, addend: 0x0, symName: __ZNKSt3__16vectorIN4spot8acc_cond8acc_wordENS_9allocatorIS3_EEE4dataB7v160006Ev, symObjAddr: 0xA8F8, symBinAddr: 0x10000B808, symSize: 0x28 }
  - { offsetInCU: 0x635D3, offset: 0x635D3, size: 0x8, addend: 0x0, symName: __ZNKSt3__16vectorIN4spot8acc_cond8acc_wordENS_9allocatorIS3_EEE8capacityB7v160006Ev, symObjAddr: 0xA920, symBinAddr: 0x10000B830, symSize: 0x40 }
  - { offsetInCU: 0x635F9, offset: 0x635F9, size: 0x8, addend: 0x0, symName: __ZNKSt3__16vectorIN4spot8acc_cond8acc_wordENS_9allocatorIS3_EEE9__end_capB7v160006Ev, symObjAddr: 0xA974, symBinAddr: 0x10000B884, symSize: 0x28 }
  - { offsetInCU: 0x6361F, offset: 0x6361F, size: 0x8, addend: 0x0, symName: __ZNKSt3__117__compressed_pairIPN4spot8acc_cond8acc_wordENS_9allocatorIS3_EEE5firstB7v160006Ev, symObjAddr: 0xA99C, symBinAddr: 0x10000B8AC, symSize: 0x24 }
  - { offsetInCU: 0x63645, offset: 0x63645, size: 0x8, addend: 0x0, symName: __ZNKSt3__122__compressed_pair_elemIPN4spot8acc_cond8acc_wordELi0ELb0EE5__getB7v160006Ev, symObjAddr: 0xA9C0, symBinAddr: 0x10000B8D0, symSize: 0x14 }
  - { offsetInCU: 0x63686, offset: 0x63686, size: 0x8, addend: 0x0, symName: __ZNSt3__16vectorIN4spot8acc_cond8acc_wordENS_9allocatorIS3_EEE21_ConstructTransactionC1B7v160006ERS6_m, symObjAddr: 0xA9D4, symBinAddr: 0x10000B8E4, symSize: 0x3C }
  - { offsetInCU: 0x636CE, offset: 0x636CE, size: 0x8, addend: 0x0, symName: __ZNSt3__16vectorIN4spot8acc_cond8acc_wordENS_9allocatorIS3_EEE21_ConstructTransactionD1B7v160006Ev, symObjAddr: 0xAB04, symBinAddr: 0x10000BA14, symSize: 0x2C }
  - { offsetInCU: 0x636F8, offset: 0x636F8, size: 0x8, addend: 0x0, symName: __ZNSt3__16vectorIN4spot8acc_cond8acc_wordENS_9allocatorIS3_EEE21_ConstructTransactionC2B7v160006ERS6_m, symObjAddr: 0xAB30, symBinAddr: 0x10000BA40, symSize: 0x44 }
  - { offsetInCU: 0x63740, offset: 0x63740, size: 0x8, addend: 0x0, symName: __ZNSt3__129_AllocatorDestroyRangeReverseINS_9allocatorIN4spot8acc_cond8acc_wordEEEPS4_EC1B7v160006ERS5_RS6_S9_, symObjAddr: 0xABC0, symBinAddr: 0x10000BAD0, symSize: 0x44 }
  - { offsetInCU: 0x63797, offset: 0x63797, size: 0x8, addend: 0x0, symName: __ZNSt3__116allocator_traitsINS_9allocatorIN4spot8acc_cond8acc_wordEEEE9constructB7v160006IS4_JRS4_EvEEvRS5_PT_DpOT0_, symObjAddr: 0xAC04, symBinAddr: 0x10000BB14, symSize: 0x34 }
  - { offsetInCU: 0x637EE, offset: 0x637EE, size: 0x8, addend: 0x0, symName: __ZNSt3__128__exception_guard_exceptionsINS_29_AllocatorDestroyRangeReverseINS_9allocatorIN4spot8acc_cond8acc_wordEEEPS5_EEE10__completeB7v160006Ev, symObjAddr: 0xAC38, symBinAddr: 0x10000BB48, symSize: 0x1C }
  - { offsetInCU: 0x63814, offset: 0x63814, size: 0x8, addend: 0x0, symName: __ZNSt3__128__exception_guard_exceptionsINS_29_AllocatorDestroyRangeReverseINS_9allocatorIN4spot8acc_cond8acc_wordEEEPS5_EEED1B7v160006Ev, symObjAddr: 0xAC54, symBinAddr: 0x10000BB64, symSize: 0x2C }
  - { offsetInCU: 0x6383E, offset: 0x6383E, size: 0x8, addend: 0x0, symName: __ZNSt3__128__exception_guard_exceptionsINS_29_AllocatorDestroyRangeReverseINS_9allocatorIN4spot8acc_cond8acc_wordEEEPS5_EEEC1B7v160006ES8_, symObjAddr: 0xAC80, symBinAddr: 0x10000BB90, symSize: 0x34 }
  - { offsetInCU: 0x63877, offset: 0x63877, size: 0x8, addend: 0x0, symName: __ZNSt3__128__exception_guard_exceptionsINS_29_AllocatorDestroyRangeReverseINS_9allocatorIN4spot8acc_cond8acc_wordEEEPS5_EEEC2B7v160006ES8_, symObjAddr: 0xACB4, symBinAddr: 0x10000BBC4, symSize: 0x30 }
  - { offsetInCU: 0x638B0, offset: 0x638B0, size: 0x8, addend: 0x0, symName: __ZNSt3__129_AllocatorDestroyRangeReverseINS_9allocatorIN4spot8acc_cond8acc_wordEEEPS4_EC2B7v160006ERS5_RS6_S9_, symObjAddr: 0xACE4, symBinAddr: 0x10000BBF4, symSize: 0x38 }
  - { offsetInCU: 0x63907, offset: 0x63907, size: 0x8, addend: 0x0, symName: __ZNSt3__19allocatorIN4spot8acc_cond8acc_wordEE9constructB7v160006IS3_JRS3_EEEvPT_DpOT0_, symObjAddr: 0xAD1C, symBinAddr: 0x10000BC2C, symSize: 0x28 }
  - { offsetInCU: 0x6395D, offset: 0x6395D, size: 0x8, addend: 0x0, symName: __ZNSt3__128__exception_guard_exceptionsINS_29_AllocatorDestroyRangeReverseINS_9allocatorIN4spot8acc_cond8acc_wordEEEPS5_EEED2B7v160006Ev, symObjAddr: 0xAD44, symBinAddr: 0x10000BC54, symSize: 0x50 }
  - { offsetInCU: 0x63987, offset: 0x63987, size: 0x8, addend: 0x0, symName: __ZNKSt3__129_AllocatorDestroyRangeReverseINS_9allocatorIN4spot8acc_cond8acc_wordEEEPS4_EclB7v160006Ev, symObjAddr: 0xAD94, symBinAddr: 0x10000BCA4, symSize: 0x68 }
  - { offsetInCU: 0x639AD, offset: 0x639AD, size: 0x8, addend: 0x0, symName: __ZNSt3__116reverse_iteratorIPN4spot8acc_cond8acc_wordEEC1B7v160006ES4_, symObjAddr: 0xAE6C, symBinAddr: 0x10000BD7C, symSize: 0x34 }
  - { offsetInCU: 0x639E5, offset: 0x639E5, size: 0x8, addend: 0x0, symName: __ZNSt3__116allocator_traitsINS_9allocatorIN4spot8acc_cond8acc_wordEEEE7destroyB7v160006IS4_vEEvRS5_PT_, symObjAddr: 0xAEE8, symBinAddr: 0x10000BDF8, symSize: 0x2C }
  - { offsetInCU: 0x63A22, offset: 0x63A22, size: 0x8, addend: 0x0, symName: __ZNSt3__116reverse_iteratorIPN4spot8acc_cond8acc_wordEEppB7v160006Ev, symObjAddr: 0xAF38, symBinAddr: 0x10000BE48, symSize: 0x20 }
  - { offsetInCU: 0x63A48, offset: 0x63A48, size: 0x8, addend: 0x0, symName: __ZNKSt3__116reverse_iteratorIPN4spot8acc_cond8acc_wordEE4baseB7v160006Ev, symObjAddr: 0xAF58, symBinAddr: 0x10000BE68, symSize: 0x18 }
  - { offsetInCU: 0x63A6E, offset: 0x63A6E, size: 0x8, addend: 0x0, symName: __ZNSt3__19allocatorIN4spot8acc_cond8acc_wordEE7destroyB7v160006EPS3_, symObjAddr: 0xAF70, symBinAddr: 0x10000BE80, symSize: 0x14 }
  - { offsetInCU: 0x63AA8, offset: 0x63AA8, size: 0x8, addend: 0x0, symName: __ZNSt3__119__to_address_helperINS_16reverse_iteratorIPN4spot8acc_cond8acc_wordEEEvE6__callB7v160006ERKS6_, symObjAddr: 0xAF84, symBinAddr: 0x10000BE94, symSize: 0x38 }
  - { offsetInCU: 0x63ACB, offset: 0x63ACB, size: 0x8, addend: 0x0, symName: __ZNKSt3__116reverse_iteratorIPN4spot8acc_cond8acc_wordEEptB7v160006Ev, symObjAddr: 0xAFBC, symBinAddr: 0x10000BECC, symSize: 0x24 }
  - { offsetInCU: 0x63AF1, offset: 0x63AF1, size: 0x8, addend: 0x0, symName: __ZNKSt3__116reverse_iteratorIPN4spot8acc_cond8acc_wordEEdeB7v160006Ev, symObjAddr: 0xAFE0, symBinAddr: 0x10000BEF0, symSize: 0x28 }
  - { offsetInCU: 0x63B26, offset: 0x63B26, size: 0x8, addend: 0x0, symName: __ZNSt3__116reverse_iteratorIPN4spot8acc_cond8acc_wordEEC2B7v160006ES4_, symObjAddr: 0xB008, symBinAddr: 0x10000BF18, symSize: 0x28 }
  - { offsetInCU: 0x63B5E, offset: 0x63B5E, size: 0x8, addend: 0x0, symName: __ZNSt3__16vectorIN4spot8acc_cond8acc_wordENS_9allocatorIS3_EEE21_ConstructTransactionD2B7v160006Ev, symObjAddr: 0xB030, symBinAddr: 0x10000BF40, symSize: 0x20 }
  - { offsetInCU: 0x63B88, offset: 0x63B88, size: 0x8, addend: 0x0, symName: __ZNSt3__128__exception_guard_exceptionsINS_6vectorIN4spot8acc_cond8acc_wordENS_9allocatorIS4_EEE16__destroy_vectorEED2B7v160006Ev, symObjAddr: 0xB050, symBinAddr: 0x10000BF60, symSize: 0x50 }
  - { offsetInCU: 0x63BB2, offset: 0x63BB2, size: 0x8, addend: 0x0, symName: __ZNSt3__16vectorIN4spot8acc_cond8acc_wordENS_9allocatorIS3_EEE16__destroy_vectorclB7v160006Ev, symObjAddr: 0xB0A0, symBinAddr: 0x10000BFB0, symSize: 0x9C }
  - { offsetInCU: 0x63BD8, offset: 0x63BD8, size: 0x8, addend: 0x0, symName: __ZNKSt3__16vectorIN4spot8acc_cond8acc_wordENS_9allocatorIS3_EEE17__annotate_deleteB7v160006Ev, symObjAddr: 0xB13C, symBinAddr: 0x10000C04C, symSize: 0xB8 }
  - { offsetInCU: 0x63BFE, offset: 0x63BFE, size: 0x8, addend: 0x0, symName: __ZNSt3__16vectorIN4spot8acc_cond8acc_wordENS_9allocatorIS3_EEE7__clearB7v160006Ev, symObjAddr: 0xB204, symBinAddr: 0x10000C114, symSize: 0x28 }
  - { offsetInCU: 0x63C24, offset: 0x63C24, size: 0x8, addend: 0x0, symName: __ZNSt3__116allocator_traitsINS_9allocatorIN4spot8acc_cond8acc_wordEEEE10deallocateB7v160006ERS5_PS4_m, symObjAddr: 0xB22C, symBinAddr: 0x10000C13C, symSize: 0x34 }
  - { offsetInCU: 0x63C66, offset: 0x63C66, size: 0x8, addend: 0x0, symName: __ZNSt3__16vectorIN4spot8acc_cond8acc_wordENS_9allocatorIS3_EEE22__base_destruct_at_endB7v160006EPS3_, symObjAddr: 0xB260, symBinAddr: 0x10000C170, symSize: 0x8C }
  - { offsetInCU: 0x63CAA, offset: 0x63CAA, size: 0x8, addend: 0x0, symName: __ZNSt3__19allocatorIN4spot8acc_cond8acc_wordEE10deallocateB7v160006EPS3_m, symObjAddr: 0xB2EC, symBinAddr: 0x10000C1FC, symSize: 0x40 }
  - { offsetInCU: 0x63CEC, offset: 0x63CEC, size: 0x8, addend: 0x0, symName: __ZN4spot8acc_cond6mark_t11max_accsetsEv, symObjAddr: 0xB32C, symBinAddr: 0x10000C23C, symSize: 0x8 }
  - { offsetInCU: 0x63D00, offset: 0x63D00, size: 0x8, addend: 0x0, symName: __ZNK4spot8acc_cond9all_sets_Ev, symObjAddr: 0xB334, symBinAddr: 0x10000C244, symSize: 0x58 }
  - { offsetInCU: 0x63D26, offset: 0x63D26, size: 0x8, addend: 0x0, symName: __ZN4spot8acc_cond6mark_t3allEv, symObjAddr: 0xB38C, symBinAddr: 0x10000C29C, symSize: 0x38 }
  - { offsetInCU: 0x63D3A, offset: 0x63D3A, size: 0x8, addend: 0x0, symName: __ZNK4spot8acc_cond6mark_trsEj, symObjAddr: 0xB3C4, symBinAddr: 0x10000C2D4, symSize: 0xB8 }
  - { offsetInCU: 0x63D7E, offset: 0x63D7E, size: 0x8, addend: 0x0, symName: __ZN4spot6bitsetILm1EE4moneEv, symObjAddr: 0xB47C, symBinAddr: 0x10000C38C, symSize: 0x24 }
  - { offsetInCU: 0x63D92, offset: 0x63D92, size: 0x8, addend: 0x0, symName: __ZN4spot6bitsetILm1EEC1ENS1_13minus_one_tagE, symObjAddr: 0xB4A0, symBinAddr: 0x10000C3B0, symSize: 0x2C }
  - { offsetInCU: 0x63DC6, offset: 0x63DC6, size: 0x8, addend: 0x0, symName: __ZN4spot6bitsetILm1EEC2ENS1_13minus_one_tagE, symObjAddr: 0xB4CC, symBinAddr: 0x10000C3DC, symSize: 0x88 }
  - { offsetInCU: 0x63E4E, offset: 0x63E4E, size: 0x8, addend: 0x0, symName: __ZNSt3__15arrayIjLm1EE5beginB7v160006Ev, symObjAddr: 0xB554, symBinAddr: 0x10000C464, symSize: 0x24 }
  - { offsetInCU: 0x63E74, offset: 0x63E74, size: 0x8, addend: 0x0, symName: __ZNSt3__15arrayIjLm1EE3endB7v160006Ev, symObjAddr: 0xB578, symBinAddr: 0x10000C488, symSize: 0x28 }
  - { offsetInCU: 0x63E9A, offset: 0x63E9A, size: 0x8, addend: 0x0, symName: __ZNSt3__15arrayIjLm1EE4dataB7v160006Ev, symObjAddr: 0xB5A0, symBinAddr: 0x10000C4B0, symSize: 0x14 }
  - { offsetInCU: 0x63EC0, offset: 0x63EC0, size: 0x8, addend: 0x0, symName: __ZNK4spot6bitsetILm1EErsEj, symObjAddr: 0xB5B4, symBinAddr: 0x10000C4C4, symSize: 0x3C }
  - { offsetInCU: 0x63F03, offset: 0x63F03, size: 0x8, addend: 0x0, symName: __ZN4spot6bitsetILm1EErSEj, symObjAddr: 0xB5F0, symBinAddr: 0x10000C500, symSize: 0x6C }
  - { offsetInCU: 0x63F37, offset: 0x63F37, size: 0x8, addend: 0x0, symName: __ZNK4spot6bitsetILm1EE7highestEv, symObjAddr: 0xB65C, symBinAddr: 0x10000C56C, symSize: 0xC0 }
  - { offsetInCU: 0x63F99, offset: 0x63F99, size: 0x8, addend: 0x0, symName: __ZNK4spot8acc_cond23is_generalized_co_buchiEv, symObjAddr: 0xB734, symBinAddr: 0x10000C644, symSize: 0xC8 }
  - { offsetInCU: 0x63FCE, offset: 0x63FCE, size: 0x8, addend: 0x0, symName: __ZNKSt3__16vectorIN4spot8acc_cond8acc_wordENS_9allocatorIS3_EEEixB7v160006Em, symObjAddr: 0xB7FC, symBinAddr: 0x10000C70C, symSize: 0x24 }
  - { offsetInCU: 0x64005, offset: 0x64005, size: 0x8, addend: 0x0, symName: __ZNK4spot8acc_cond6mark_teqES1_, symObjAddr: 0xB820, symBinAddr: 0x10000C730, symSize: 0x38 }
  - { offsetInCU: 0x64039, offset: 0x64039, size: 0x8, addend: 0x0, symName: __ZNK4spot8acc_cond8all_setsEv, symObjAddr: 0xB858, symBinAddr: 0x10000C768, symSize: 0x20 }
  - { offsetInCU: 0x6405F, offset: 0x6405F, size: 0x8, addend: 0x0, symName: __ZNSt3__19allocatorIN4spot9twa_graphEEC1B7v160006Ev, symObjAddr: 0xB950, symBinAddr: 0x10000C860, symSize: 0x2C }
  - { offsetInCU: 0x640C8, offset: 0x640C8, size: 0x8, addend: 0x0, symName: __ZNSt3__118__allocation_guardINS_9allocatorINS_20__shared_ptr_emplaceIN4spot9twa_graphENS1_IS4_EEEEEEEC1B7v160006IS5_EET_m, symObjAddr: 0xB97C, symBinAddr: 0x10000C88C, symSize: 0x34 }
  - { offsetInCU: 0x64117, offset: 0x64117, size: 0x8, addend: 0x0, symName: __ZNKSt3__118__allocation_guardINS_9allocatorINS_20__shared_ptr_emplaceIN4spot9twa_graphENS1_IS4_EEEEEEE5__getB7v160006Ev, symObjAddr: 0xB9B0, symBinAddr: 0x10000C8C0, symSize: 0x18 }
  - { offsetInCU: 0x6413D, offset: 0x6413D, size: 0x8, addend: 0x0, symName: __ZNSt3__120__shared_ptr_emplaceIN4spot9twa_graphENS_9allocatorIS2_EEEC1B7v160006IJRKNS_10shared_ptrINS1_8bdd_dictEEEEEES4_DpOT_, symObjAddr: 0xB9C8, symBinAddr: 0x10000C8D8, symSize: 0x34 }
  - { offsetInCU: 0x64190, offset: 0x64190, size: 0x8, addend: 0x0, symName: __ZNSt3__118__allocation_guardINS_9allocatorINS_20__shared_ptr_emplaceIN4spot9twa_graphENS1_IS4_EEEEEEE13__release_ptrB7v160006Ev, symObjAddr: 0xB9FC, symBinAddr: 0x10000C90C, symSize: 0x24 }
  - { offsetInCU: 0x641C5, offset: 0x641C5, size: 0x8, addend: 0x0, symName: __ZNSt3__110shared_ptrIN4spot9twa_graphEE27__create_with_control_blockB7v160006IS2_NS_20__shared_ptr_emplaceIS2_NS_9allocatorIS2_EEEEEES3_PT_PT0_, symObjAddr: 0xBA20, symBinAddr: 0x10000C930, symSize: 0xC4 }
  - { offsetInCU: 0x6421A, offset: 0x6421A, size: 0x8, addend: 0x0, symName: __ZNSt3__120__shared_ptr_emplaceIN4spot9twa_graphENS_9allocatorIS2_EEE10__get_elemB7v160006Ev, symObjAddr: 0xBAE4, symBinAddr: 0x10000C9F4, symSize: 0x28 }
  - { offsetInCU: 0x64240, offset: 0x64240, size: 0x8, addend: 0x0, symName: __ZNSt3__118__allocation_guardINS_9allocatorINS_20__shared_ptr_emplaceIN4spot9twa_graphENS1_IS4_EEEEEEED1B7v160006Ev, symObjAddr: 0xBB0C, symBinAddr: 0x10000CA1C, symSize: 0x2C }
  - { offsetInCU: 0x6426A, offset: 0x6426A, size: 0x8, addend: 0x0, symName: __ZNSt3__118__allocation_guardINS_9allocatorINS_20__shared_ptr_emplaceIN4spot9twa_graphENS1_IS4_EEEEEEEC2B7v160006IS5_EET_m, symObjAddr: 0xBB38, symBinAddr: 0x10000CA48, symSize: 0x50 }
  - { offsetInCU: 0x642B9, offset: 0x642B9, size: 0x8, addend: 0x0, symName: __ZNSt3__19allocatorINS_20__shared_ptr_emplaceIN4spot9twa_graphENS0_IS3_EEEEEC1B7v160006IS3_EERKNS0_IT_EE, symObjAddr: 0xBB88, symBinAddr: 0x10000CA98, symSize: 0x34 }
  - { offsetInCU: 0x642F6, offset: 0x642F6, size: 0x8, addend: 0x0, symName: __ZNSt3__116allocator_traitsINS_9allocatorINS_20__shared_ptr_emplaceIN4spot9twa_graphENS1_IS4_EEEEEEE8allocateB7v160006ERS7_m, symObjAddr: 0xBBBC, symBinAddr: 0x10000CACC, symSize: 0x2C }
  - { offsetInCU: 0x64329, offset: 0x64329, size: 0x8, addend: 0x0, symName: __ZNSt3__19allocatorINS_20__shared_ptr_emplaceIN4spot9twa_graphENS0_IS3_EEEEEC2B7v160006IS3_EERKNS0_IT_EE, symObjAddr: 0xBBE8, symBinAddr: 0x10000CAF8, symSize: 0x30 }
  - { offsetInCU: 0x64366, offset: 0x64366, size: 0x8, addend: 0x0, symName: __ZNSt3__116__non_trivial_ifILb1ENS_9allocatorINS_20__shared_ptr_emplaceIN4spot9twa_graphENS1_IS4_EEEEEEEC2B7v160006Ev, symObjAddr: 0xBC18, symBinAddr: 0x10000CB28, symSize: 0x14 }
  - { offsetInCU: 0x64390, offset: 0x64390, size: 0x8, addend: 0x0, symName: __ZNSt3__19allocatorINS_20__shared_ptr_emplaceIN4spot9twa_graphENS0_IS3_EEEEE8allocateB7v160006Em, symObjAddr: 0xBC2C, symBinAddr: 0x10000CB3C, symSize: 0x5C }
  - { offsetInCU: 0x643CF, offset: 0x643CF, size: 0x8, addend: 0x0, symName: __ZNSt3__116allocator_traitsINS_9allocatorINS_20__shared_ptr_emplaceIN4spot9twa_graphENS1_IS4_EEEEEEE8max_sizeB7v160006IS7_vEEmRKS7_, symObjAddr: 0xBC88, symBinAddr: 0x10000CB98, symSize: 0x24 }
  - { offsetInCU: 0x643FD, offset: 0x643FD, size: 0x8, addend: 0x0, symName: __ZNKSt3__19allocatorINS_20__shared_ptr_emplaceIN4spot9twa_graphENS0_IS3_EEEEE8max_sizeB7v160006Ev, symObjAddr: 0xBCAC, symBinAddr: 0x10000CBBC, symSize: 0x18 }
  - { offsetInCU: 0x64423, offset: 0x64423, size: 0x8, addend: 0x0, symName: __ZNSt3__120__shared_ptr_emplaceIN4spot9twa_graphENS_9allocatorIS2_EEEC2B7v160006IJRKNS_10shared_ptrINS1_8bdd_dictEEEEEES4_DpOT_, symObjAddr: 0xBCC4, symBinAddr: 0x10000CBD4, symSize: 0xB8 }
  - { offsetInCU: 0x64476, offset: 0x64476, size: 0x8, addend: 0x0, symName: __ZNSt3__119__shared_weak_countC2B7v160006El, symObjAddr: 0xBD7C, symBinAddr: 0x10000CC8C, symSize: 0x54 }
  - { offsetInCU: 0x644AE, offset: 0x644AE, size: 0x8, addend: 0x0, symName: __ZNSt3__120__shared_ptr_emplaceIN4spot9twa_graphENS_9allocatorIS2_EEE8_StorageC1B7v160006EOS4_, symObjAddr: 0xBDD0, symBinAddr: 0x10000CCE0, symSize: 0x34 }
  - { offsetInCU: 0x644E7, offset: 0x644E7, size: 0x8, addend: 0x0, symName: __ZN4spot9twa_graphC1ERKNSt3__110shared_ptrINS_8bdd_dictEEE, symObjAddr: 0xBE04, symBinAddr: 0x10000CD14, symSize: 0x34 }
  - { offsetInCU: 0x6451F, offset: 0x6451F, size: 0x8, addend: 0x0, symName: __ZNSt3__120__shared_ptr_emplaceIN4spot9twa_graphENS_9allocatorIS2_EEE8_StorageD1B7v160006Ev, symObjAddr: 0xBE38, symBinAddr: 0x10000CD48, symSize: 0x2C }
  - { offsetInCU: 0x64549, offset: 0x64549, size: 0x8, addend: 0x0, symName: __ZNSt3__120__shared_ptr_emplaceIN4spot9twa_graphENS_9allocatorIS2_EEED1Ev, symObjAddr: 0xBE64, symBinAddr: 0x10000CD74, symSize: 0x2C }
  - { offsetInCU: 0x64576, offset: 0x64576, size: 0x8, addend: 0x0, symName: __ZNSt3__120__shared_ptr_emplaceIN4spot9twa_graphENS_9allocatorIS2_EEED0Ev, symObjAddr: 0xBE90, symBinAddr: 0x10000CDA0, symSize: 0x30 }
  - { offsetInCU: 0x645A3, offset: 0x645A3, size: 0x8, addend: 0x0, symName: __ZNSt3__120__shared_ptr_emplaceIN4spot9twa_graphENS_9allocatorIS2_EEE16__on_zero_sharedEv, symObjAddr: 0xBEC0, symBinAddr: 0x10000CDD0, symSize: 0x28 }
  - { offsetInCU: 0x645C9, offset: 0x645C9, size: 0x8, addend: 0x0, symName: __ZNSt3__120__shared_ptr_emplaceIN4spot9twa_graphENS_9allocatorIS2_EEE21__on_zero_shared_weakEv, symObjAddr: 0xBEE8, symBinAddr: 0x10000CDF8, symSize: 0x5C }
  - { offsetInCU: 0x6460A, offset: 0x6460A, size: 0x8, addend: 0x0, symName: __ZNSt3__114__shared_countC2B7v160006El, symObjAddr: 0xBF44, symBinAddr: 0x10000CE54, symSize: 0x30 }
  - { offsetInCU: 0x64642, offset: 0x64642, size: 0x8, addend: 0x0, symName: __ZNSt3__120__shared_ptr_emplaceIN4spot9twa_graphENS_9allocatorIS2_EEE8_StorageC2B7v160006EOS4_, symObjAddr: 0xBF74, symBinAddr: 0x10000CE84, symSize: 0x30 }
  - { offsetInCU: 0x6467B, offset: 0x6467B, size: 0x8, addend: 0x0, symName: __ZNSt3__120__shared_ptr_emplaceIN4spot9twa_graphENS_9allocatorIS2_EEE8_Storage11__get_allocEv, symObjAddr: 0xBFA4, symBinAddr: 0x10000CEB4, symSize: 0x3C }
  - { offsetInCU: 0x646CE, offset: 0x646CE, size: 0x8, addend: 0x0, symName: __ZNSt3__117__compressed_pairINS_9allocatorIN4spot9twa_graphEEES3_E16__get_first_baseB7v160006EPS5_, symObjAddr: 0xBFE0, symBinAddr: 0x10000CEF0, symSize: 0x14 }
  - { offsetInCU: 0x646F1, offset: 0x646F1, size: 0x8, addend: 0x0, symName: __ZN4spot9twa_graphC2ERKNSt3__110shared_ptrINS_8bdd_dictEEE, symObjAddr: 0xBFF4, symBinAddr: 0x10000CF04, symSize: 0x8C }
  - { offsetInCU: 0x64729, offset: 0x64729, size: 0x8, addend: 0x0, symName: __ZN4spot7digraphINS_15twa_graph_stateENS_19twa_graph_edge_dataEEC1Ejj, symObjAddr: 0xC080, symBinAddr: 0x10000CF90, symSize: 0x3C }
  - { offsetInCU: 0x64771, offset: 0x64771, size: 0x8, addend: 0x0, symName: __ZN4spot9twa_graphD1Ev, symObjAddr: 0xC0BC, symBinAddr: 0x10000CFCC, symSize: 0x2C }
  - { offsetInCU: 0x6479B, offset: 0x6479B, size: 0x8, addend: 0x0, symName: __ZN4spot9twa_graphD0Ev, symObjAddr: 0xC0E8, symBinAddr: 0x10000CFF8, symSize: 0x30 }
  - { offsetInCU: 0x647C5, offset: 0x647C5, size: 0x8, addend: 0x0, symName: __ZNK4spot9twa_graph14get_init_stateEv, symObjAddr: 0xC118, symBinAddr: 0x10000D028, symSize: 0xA4 }
  - { offsetInCU: 0x647FA, offset: 0x647FA, size: 0x8, addend: 0x0, symName: __ZNK4spot9twa_graph9succ_iterEPKNS_5stateE, symObjAddr: 0xC1BC, symBinAddr: 0x10000D0CC, symSize: 0xEC }
  - { offsetInCU: 0x6485C, offset: 0x6485C, size: 0x8, addend: 0x0, symName: __ZNK4spot9twa_graph12format_stateEPKNS_5stateE, symObjAddr: 0xC2A8, symBinAddr: 0x10000D1B8, symSize: 0x48 }
  - { offsetInCU: 0x64891, offset: 0x64891, size: 0x8, addend: 0x0, symName: __ZN4spot7digraphINS_15twa_graph_stateENS_19twa_graph_edge_dataEEC2Ejj, symObjAddr: 0xC2F0, symBinAddr: 0x10000D200, symSize: 0x110 }
  - { offsetInCU: 0x648D9, offset: 0x648D9, size: 0x8, addend: 0x0, symName: __ZNSt3__16vectorIN4spot8internal15distate_storageIjNS2_11boxed_labelINS1_15twa_graph_stateELb0EEEEENS_9allocatorIS7_EEEC1B7v160006Ev, symObjAddr: 0xC400, symBinAddr: 0x10000D310, symSize: 0x2C }
  - { offsetInCU: 0x64903, offset: 0x64903, size: 0x8, addend: 0x0, symName: __ZNSt3__16vectorIN4spot8internal12edge_storageIjjjNS2_11boxed_labelINS1_19twa_graph_edge_dataELb0EEEEENS_9allocatorIS7_EEEC1B7v160006Ev, symObjAddr: 0xC42C, symBinAddr: 0x10000D33C, symSize: 0x2C }
  - { offsetInCU: 0x6492D, offset: 0x6492D, size: 0x8, addend: 0x0, symName: __ZNSt3__16vectorIN4spot8internal15distate_storageIjNS2_11boxed_labelINS1_15twa_graph_stateELb0EEEEENS_9allocatorIS7_EEE7reserveEm, symObjAddr: 0xC458, symBinAddr: 0x10000D368, symSize: 0xE8 }
  - { offsetInCU: 0x6498A, offset: 0x6498A, size: 0x8, addend: 0x0, symName: __ZNSt3__16vectorIN4spot8internal12edge_storageIjjjNS2_11boxed_labelINS1_19twa_graph_edge_dataELb0EEEEENS_9allocatorIS7_EEE7reserveEm, symObjAddr: 0xC540, symBinAddr: 0x10000D450, symSize: 0xE8 }
  - { offsetInCU: 0x649E7, offset: 0x649E7, size: 0x8, addend: 0x0, symName: __ZNSt3__16vectorIN4spot8internal12edge_storageIjjjNS2_11boxed_labelINS1_19twa_graph_edge_dataELb0EEEEENS_9allocatorIS7_EEE6resizeEm, symObjAddr: 0xC628, symBinAddr: 0x10000D538, symSize: 0x9C }
  - { offsetInCU: 0x64A2D, offset: 0x64A2D, size: 0x8, addend: 0x0, symName: __ZNSt3__16vectorIN4spot8internal12edge_storageIjjjNS2_11boxed_labelINS1_19twa_graph_edge_dataELb0EEEEENS_9allocatorIS7_EEED1B7v160006Ev, symObjAddr: 0xC6C4, symBinAddr: 0x10000D5D4, symSize: 0x2C }
  - { offsetInCU: 0x64A57, offset: 0x64A57, size: 0x8, addend: 0x0, symName: __ZNSt3__16vectorIN4spot8internal15distate_storageIjNS2_11boxed_labelINS1_15twa_graph_stateELb0EEEEENS_9allocatorIS7_EEED1B7v160006Ev, symObjAddr: 0xC6F0, symBinAddr: 0x10000D600, symSize: 0x2C }
  - { offsetInCU: 0x64A81, offset: 0x64A81, size: 0x8, addend: 0x0, symName: __ZNSt3__16vectorIN4spot8internal15distate_storageIjNS2_11boxed_labelINS1_15twa_graph_stateELb0EEEEENS_9allocatorIS7_EEEC2B7v160006Ev, symObjAddr: 0xC71C, symBinAddr: 0x10000D62C, symSize: 0x58 }
  - { offsetInCU: 0x64AB1, offset: 0x64AB1, size: 0x8, addend: 0x0, symName: __ZNSt3__117__compressed_pairIPN4spot8internal15distate_storageIjNS2_11boxed_labelINS1_15twa_graph_stateELb0EEEEENS_9allocatorIS7_EEEC1B7v160006IDnNS_18__default_init_tagEEEOT_OT0_, symObjAddr: 0xC774, symBinAddr: 0x10000D684, symSize: 0x3C }
  - { offsetInCU: 0x64B09, offset: 0x64B09, size: 0x8, addend: 0x0, symName: __ZNSt3__117__compressed_pairIPN4spot8internal15distate_storageIjNS2_11boxed_labelINS1_15twa_graph_stateELb0EEEEENS_9allocatorIS7_EEEC2B7v160006IDnNS_18__default_init_tagEEEOT_OT0_, symObjAddr: 0xC7C0, symBinAddr: 0x10000D6D0, symSize: 0x40 }
  - { offsetInCU: 0x64B61, offset: 0x64B61, size: 0x8, addend: 0x0, symName: __ZNSt3__122__compressed_pair_elemINS_9allocatorIN4spot8internal15distate_storageIjNS3_11boxed_labelINS2_15twa_graph_stateELb0EEEEEEELi1ELb1EEC2B7v160006ENS_18__default_init_tagE, symObjAddr: 0xC800, symBinAddr: 0x10000D710, symSize: 0x2C }
  - { offsetInCU: 0x64B95, offset: 0x64B95, size: 0x8, addend: 0x0, symName: __ZNSt3__19allocatorIN4spot8internal15distate_storageIjNS2_11boxed_labelINS1_15twa_graph_stateELb0EEEEEEC2B7v160006Ev, symObjAddr: 0xC82C, symBinAddr: 0x10000D73C, symSize: 0x2C }
  - { offsetInCU: 0x64BBF, offset: 0x64BBF, size: 0x8, addend: 0x0, symName: __ZNSt3__116__non_trivial_ifILb1ENS_9allocatorIN4spot8internal15distate_storageIjNS3_11boxed_labelINS2_15twa_graph_stateELb0EEEEEEEEC2B7v160006Ev, symObjAddr: 0xC858, symBinAddr: 0x10000D768, symSize: 0x14 }
  - { offsetInCU: 0x64BE9, offset: 0x64BE9, size: 0x8, addend: 0x0, symName: __ZNSt3__16vectorIN4spot8internal12edge_storageIjjjNS2_11boxed_labelINS1_19twa_graph_edge_dataELb0EEEEENS_9allocatorIS7_EEEC2B7v160006Ev, symObjAddr: 0xC86C, symBinAddr: 0x10000D77C, symSize: 0x58 }
  - { offsetInCU: 0x64C13, offset: 0x64C13, size: 0x8, addend: 0x0, symName: __ZNSt3__117__compressed_pairIPN4spot8internal12edge_storageIjjjNS2_11boxed_labelINS1_19twa_graph_edge_dataELb0EEEEENS_9allocatorIS7_EEEC1B7v160006IDnNS_18__default_init_tagEEEOT_OT0_, symObjAddr: 0xC8C4, symBinAddr: 0x10000D7D4, symSize: 0x3C }
  - { offsetInCU: 0x64C6B, offset: 0x64C6B, size: 0x8, addend: 0x0, symName: __ZNSt3__117__compressed_pairIPN4spot8internal12edge_storageIjjjNS2_11boxed_labelINS1_19twa_graph_edge_dataELb0EEEEENS_9allocatorIS7_EEEC2B7v160006IDnNS_18__default_init_tagEEEOT_OT0_, symObjAddr: 0xC910, symBinAddr: 0x10000D820, symSize: 0x40 }
  - { offsetInCU: 0x64CC3, offset: 0x64CC3, size: 0x8, addend: 0x0, symName: __ZNSt3__122__compressed_pair_elemINS_9allocatorIN4spot8internal12edge_storageIjjjNS3_11boxed_labelINS2_19twa_graph_edge_dataELb0EEEEEEELi1ELb1EEC2B7v160006ENS_18__default_init_tagE, symObjAddr: 0xC950, symBinAddr: 0x10000D860, symSize: 0x2C }
  - { offsetInCU: 0x64CF7, offset: 0x64CF7, size: 0x8, addend: 0x0, symName: __ZNSt3__19allocatorIN4spot8internal12edge_storageIjjjNS2_11boxed_labelINS1_19twa_graph_edge_dataELb0EEEEEEC2B7v160006Ev, symObjAddr: 0xC97C, symBinAddr: 0x10000D88C, symSize: 0x2C }
  - { offsetInCU: 0x64D21, offset: 0x64D21, size: 0x8, addend: 0x0, symName: __ZNSt3__116__non_trivial_ifILb1ENS_9allocatorIN4spot8internal12edge_storageIjjjNS3_11boxed_labelINS2_19twa_graph_edge_dataELb0EEEEEEEEC2B7v160006Ev, symObjAddr: 0xC9A8, symBinAddr: 0x10000D8B8, symSize: 0x14 }
  - { offsetInCU: 0x64D4B, offset: 0x64D4B, size: 0x8, addend: 0x0, symName: __ZNSt3__16vectorIN4spot8internal12edge_storageIjjjNS2_11boxed_labelINS1_19twa_graph_edge_dataELb0EEEEENS_9allocatorIS7_EEE8__appendEm, symObjAddr: 0xC9BC, symBinAddr: 0x10000D8CC, symSize: 0x108 }
  - { offsetInCU: 0x64DA7, offset: 0x64DA7, size: 0x8, addend: 0x0, symName: __ZNSt3__16vectorIN4spot8internal12edge_storageIjjjNS2_11boxed_labelINS1_19twa_graph_edge_dataELb0EEEEENS_9allocatorIS7_EEE17__destruct_at_endB7v160006EPS7_, symObjAddr: 0xCAC4, symBinAddr: 0x10000D9D4, symSize: 0x60 }
  - { offsetInCU: 0x64DEB, offset: 0x64DEB, size: 0x8, addend: 0x0, symName: __ZNSt3__16vectorIN4spot8internal12edge_storageIjjjNS2_11boxed_labelINS1_19twa_graph_edge_dataELb0EEEEENS_9allocatorIS7_EEE18__construct_at_endEm, symObjAddr: 0xCB24, symBinAddr: 0x10000DA34, symSize: 0xC8 }
  - { offsetInCU: 0x64E5E, offset: 0x64E5E, size: 0x8, addend: 0x0, symName: __ZNSt3__114__split_bufferIN4spot8internal12edge_storageIjjjNS2_11boxed_labelINS1_19twa_graph_edge_dataELb0EEEEERNS_9allocatorIS7_EEE18__construct_at_endEm, symObjAddr: 0xCBEC, symBinAddr: 0x10000DAFC, symSize: 0xB4 }
  - { offsetInCU: 0x64EA2, offset: 0x64EA2, size: 0x8, addend: 0x0, symName: __ZNSt3__116allocator_traitsINS_9allocatorIN4spot8internal12edge_storageIjjjNS3_11boxed_labelINS2_19twa_graph_edge_dataELb0EEEEEEEE9constructB7v160006IS8_JEvEEvRS9_PT_DpOT0_, symObjAddr: 0xCCA0, symBinAddr: 0x10000DBB0, symSize: 0x2C }
  - { offsetInCU: 0x64EE4, offset: 0x64EE4, size: 0x8, addend: 0x0, symName: __ZNSt3__19allocatorIN4spot8internal12edge_storageIjjjNS2_11boxed_labelINS1_19twa_graph_edge_dataELb0EEEEEE9constructB7v160006IS7_JEEEvPT_DpOT0_, symObjAddr: 0xCCCC, symBinAddr: 0x10000DBDC, symSize: 0x28 }
  - { offsetInCU: 0x64F26, offset: 0x64F26, size: 0x8, addend: 0x0, symName: __ZN4spot8internal12edge_storageIjjjNS0_11boxed_labelINS_19twa_graph_edge_dataELb0EEEEC1Ev, symObjAddr: 0xCCF4, symBinAddr: 0x10000DC04, symSize: 0x2C }
  - { offsetInCU: 0x64F50, offset: 0x64F50, size: 0x8, addend: 0x0, symName: __ZN4spot8internal12edge_storageIjjjNS0_11boxed_labelINS_19twa_graph_edge_dataELb0EEEEC2Ev, symObjAddr: 0xCD20, symBinAddr: 0x10000DC30, symSize: 0x2C }
  - { offsetInCU: 0x64F7A, offset: 0x64F7A, size: 0x8, addend: 0x0, symName: __ZN4spot8internal11boxed_labelINS_19twa_graph_edge_dataELb0EEC2Ev, symObjAddr: 0xCD4C, symBinAddr: 0x10000DC5C, symSize: 0x2C }
  - { offsetInCU: 0x64FA4, offset: 0x64FA4, size: 0x8, addend: 0x0, symName: __ZN4spot19twa_graph_edge_dataC2Ev, symObjAddr: 0xCD78, symBinAddr: 0x10000DC88, symSize: 0x58 }
  - { offsetInCU: 0x64FCE, offset: 0x64FCE, size: 0x8, addend: 0x0, symName: __ZN3bddC1ERK9bddxfalse, symObjAddr: 0xCDD0, symBinAddr: 0x10000DCE0, symSize: 0x34 }
  - { offsetInCU: 0x65003, offset: 0x65003, size: 0x8, addend: 0x0, symName: __ZN3bddC2ERK9bddxfalse, symObjAddr: 0xCE04, symBinAddr: 0x10000DD14, symSize: 0x1C }
  - { offsetInCU: 0x65042, offset: 0x65042, size: 0x8, addend: 0x0, symName: __ZNSt3__114__split_bufferIN4spot8internal12edge_storageIjjjNS2_11boxed_labelINS1_19twa_graph_edge_dataELb0EEEEERNS_9allocatorIS7_EEE21_ConstructTransactionC1B7v160006EPPS7_m, symObjAddr: 0xCE20, symBinAddr: 0x10000DD30, symSize: 0x3C }
  - { offsetInCU: 0x65088, offset: 0x65088, size: 0x8, addend: 0x0, symName: __ZNSt3__114__split_bufferIN4spot8internal12edge_storageIjjjNS2_11boxed_labelINS1_19twa_graph_edge_dataELb0EEEEERNS_9allocatorIS7_EEE21_ConstructTransactionD1B7v160006Ev, symObjAddr: 0xCE5C, symBinAddr: 0x10000DD6C, symSize: 0x2C }
  - { offsetInCU: 0x650B2, offset: 0x650B2, size: 0x8, addend: 0x0, symName: __ZNSt3__114__split_bufferIN4spot8internal12edge_storageIjjjNS2_11boxed_labelINS1_19twa_graph_edge_dataELb0EEEEERNS_9allocatorIS7_EEE21_ConstructTransactionC2B7v160006EPPS7_m, symObjAddr: 0xCE88, symBinAddr: 0x10000DD98, symSize: 0x4C }
  - { offsetInCU: 0x650F8, offset: 0x650F8, size: 0x8, addend: 0x0, symName: __ZNSt3__114__split_bufferIN4spot8internal12edge_storageIjjjNS2_11boxed_labelINS1_19twa_graph_edge_dataELb0EEEEERNS_9allocatorIS7_EEE21_ConstructTransactionD2B7v160006Ev, symObjAddr: 0xCED4, symBinAddr: 0x10000DDE4, symSize: 0x20 }
  - { offsetInCU: 0x65122, offset: 0x65122, size: 0x8, addend: 0x0, symName: __ZNSt3__16vectorIN4spot8internal12edge_storageIjjjNS2_11boxed_labelINS1_19twa_graph_edge_dataELb0EEEEENS_9allocatorIS7_EEE27__invalidate_iterators_pastB7v160006EPS7_, symObjAddr: 0xCEF4, symBinAddr: 0x10000DE04, symSize: 0x14 }
  - { offsetInCU: 0x65159, offset: 0x65159, size: 0x8, addend: 0x0, symName: __ZNSt3__16vectorIN4spot8internal12edge_storageIjjjNS2_11boxed_labelINS1_19twa_graph_edge_dataELb0EEEEENS_9allocatorIS7_EEE22__base_destruct_at_endB7v160006EPS7_, symObjAddr: 0xCF08, symBinAddr: 0x10000DE18, symSize: 0x8C }
  - { offsetInCU: 0x6519D, offset: 0x6519D, size: 0x8, addend: 0x0, symName: __ZNKSt3__16vectorIN4spot8internal12edge_storageIjjjNS2_11boxed_labelINS1_19twa_graph_edge_dataELb0EEEEENS_9allocatorIS7_EEE17__annotate_shrinkB7v160006Em, symObjAddr: 0xCF94, symBinAddr: 0x10000DEA4, symSize: 0xD0 }
  - { offsetInCU: 0x651D2, offset: 0x651D2, size: 0x8, addend: 0x0, symName: __ZNSt3__16vectorIN4spot8internal12edge_storageIjjjNS2_11boxed_labelINS1_19twa_graph_edge_dataELb0EEEEENS_9allocatorIS7_EEED2B7v160006Ev, symObjAddr: 0xD064, symBinAddr: 0x10000DF74, symSize: 0x44 }
  - { offsetInCU: 0x651FC, offset: 0x651FC, size: 0x8, addend: 0x0, symName: __ZNSt3__16vectorIN4spot8internal12edge_storageIjjjNS2_11boxed_labelINS1_19twa_graph_edge_dataELb0EEEEENS_9allocatorIS7_EEE16__destroy_vectorC1ERSA_, symObjAddr: 0xD0A8, symBinAddr: 0x10000DFB8, symSize: 0x34 }
  - { offsetInCU: 0x65235, offset: 0x65235, size: 0x8, addend: 0x0, symName: __ZNSt3__16vectorIN4spot8internal12edge_storageIjjjNS2_11boxed_labelINS1_19twa_graph_edge_dataELb0EEEEENS_9allocatorIS7_EEE16__destroy_vectorclB7v160006Ev, symObjAddr: 0xD0DC, symBinAddr: 0x10000DFEC, symSize: 0x9C }
  - { offsetInCU: 0x6525B, offset: 0x6525B, size: 0x8, addend: 0x0, symName: __ZNSt3__16vectorIN4spot8internal12edge_storageIjjjNS2_11boxed_labelINS1_19twa_graph_edge_dataELb0EEEEENS_9allocatorIS7_EEE16__destroy_vectorC2ERSA_, symObjAddr: 0xD178, symBinAddr: 0x10000E088, symSize: 0x20 }
  - { offsetInCU: 0x65294, offset: 0x65294, size: 0x8, addend: 0x0, symName: __ZNSt3__16vectorIN4spot8internal12edge_storageIjjjNS2_11boxed_labelINS1_19twa_graph_edge_dataELb0EEEEENS_9allocatorIS7_EEE7__clearB7v160006Ev, symObjAddr: 0xD1A8, symBinAddr: 0x10000E0B8, symSize: 0x28 }
  - { offsetInCU: 0x652BA, offset: 0x652BA, size: 0x8, addend: 0x0, symName: __ZNSt3__16vectorIN4spot8internal15distate_storageIjNS2_11boxed_labelINS1_15twa_graph_stateELb0EEEEENS_9allocatorIS7_EEED2B7v160006Ev, symObjAddr: 0xD1D0, symBinAddr: 0x10000E0E0, symSize: 0x44 }
  - { offsetInCU: 0x652E4, offset: 0x652E4, size: 0x8, addend: 0x0, symName: __ZNSt3__16vectorIN4spot8internal15distate_storageIjNS2_11boxed_labelINS1_15twa_graph_stateELb0EEEEENS_9allocatorIS7_EEE16__destroy_vectorC1ERSA_, symObjAddr: 0xD214, symBinAddr: 0x10000E124, symSize: 0x34 }
  - { offsetInCU: 0x6531D, offset: 0x6531D, size: 0x8, addend: 0x0, symName: __ZNSt3__16vectorIN4spot8internal15distate_storageIjNS2_11boxed_labelINS1_15twa_graph_stateELb0EEEEENS_9allocatorIS7_EEE16__destroy_vectorclB7v160006Ev, symObjAddr: 0xD248, symBinAddr: 0x10000E158, symSize: 0x9C }
  - { offsetInCU: 0x65343, offset: 0x65343, size: 0x8, addend: 0x0, symName: __ZNSt3__16vectorIN4spot8internal15distate_storageIjNS2_11boxed_labelINS1_15twa_graph_stateELb0EEEEENS_9allocatorIS7_EEE16__destroy_vectorC2ERSA_, symObjAddr: 0xD2E4, symBinAddr: 0x10000E1F4, symSize: 0x20 }
  - { offsetInCU: 0x6537C, offset: 0x6537C, size: 0x8, addend: 0x0, symName: __ZNSt3__16vectorIN4spot8internal15distate_storageIjNS2_11boxed_labelINS1_15twa_graph_stateELb0EEEEENS_9allocatorIS7_EEE7__clearB7v160006Ev, symObjAddr: 0xD314, symBinAddr: 0x10000E224, symSize: 0x28 }
  - { offsetInCU: 0x653A2, offset: 0x653A2, size: 0x8, addend: 0x0, symName: __ZNSt3__16vectorIN4spot8internal15distate_storageIjNS2_11boxed_labelINS1_15twa_graph_stateELb0EEEEENS_9allocatorIS7_EEE22__base_destruct_at_endB7v160006EPS7_, symObjAddr: 0xD33C, symBinAddr: 0x10000E24C, symSize: 0x8C }
  - { offsetInCU: 0x653E6, offset: 0x653E6, size: 0x8, addend: 0x0, symName: __ZN4spot9twa_graphD2Ev, symObjAddr: 0xD3C8, symBinAddr: 0x10000E2D8, symSize: 0x38 }
  - { offsetInCU: 0x65410, offset: 0x65410, size: 0x8, addend: 0x0, symName: __ZN4spot7digraphINS_15twa_graph_stateENS_19twa_graph_edge_dataEED1Ev, symObjAddr: 0xD400, symBinAddr: 0x10000E310, symSize: 0x2C }
  - { offsetInCU: 0x6543D, offset: 0x6543D, size: 0x8, addend: 0x0, symName: __ZN4spot7digraphINS_15twa_graph_stateENS_19twa_graph_edge_dataEED2Ev, symObjAddr: 0xD42C, symBinAddr: 0x10000E33C, symSize: 0x44 }
  - { offsetInCU: 0x6546A, offset: 0x6546A, size: 0x8, addend: 0x0, symName: __ZNK4spot9twa_graph14is_existentialEv, symObjAddr: 0xD470, symBinAddr: 0x10000E380, symSize: 0x2C }
  - { offsetInCU: 0x65490, offset: 0x65490, size: 0x8, addend: 0x0, symName: __ZNK4spot9twa_graph17state_from_numberEj, symObjAddr: 0xD49C, symBinAddr: 0x10000E3AC, symSize: 0x30 }
  - { offsetInCU: 0x654C5, offset: 0x654C5, size: 0x8, addend: 0x0, symName: __ZNK4spot7digraphINS_15twa_graph_stateENS_19twa_graph_edge_dataEE14is_existentialEv, symObjAddr: 0xD4CC, symBinAddr: 0x10000E3DC, symSize: 0x2C }
  - { offsetInCU: 0x654EB, offset: 0x654EB, size: 0x8, addend: 0x0, symName: __ZNKSt3__16vectorIjNS_9allocatorIjEEE5emptyB7v160006Ev, symObjAddr: 0xD4F8, symBinAddr: 0x10000E408, symSize: 0x28 }
  - { offsetInCU: 0x65511, offset: 0x65511, size: 0x8, addend: 0x0, symName: __ZNK4spot7digraphINS_15twa_graph_stateENS_19twa_graph_edge_dataEE10state_dataEj, symObjAddr: 0xD520, symBinAddr: 0x10000E430, symSize: 0x34 }
  - { offsetInCU: 0x65546, offset: 0x65546, size: 0x8, addend: 0x0, symName: __ZNKSt3__16vectorIN4spot8internal15distate_storageIjNS2_11boxed_labelINS1_15twa_graph_stateELb0EEEEENS_9allocatorIS7_EEEixB7v160006Em, symObjAddr: 0xD554, symBinAddr: 0x10000E464, symSize: 0x24 }
  - { offsetInCU: 0x6557D, offset: 0x6557D, size: 0x8, addend: 0x0, symName: __ZNK4spot8internal11boxed_labelINS_15twa_graph_stateELb0EE4dataEv, symObjAddr: 0xD578, symBinAddr: 0x10000E488, symSize: 0x14 }
  - { offsetInCU: 0x655A3, offset: 0x655A3, size: 0x8, addend: 0x0, symName: __ZN4spot23twa_graph_succ_iteratorINS_7digraphINS_15twa_graph_stateENS_19twa_graph_edge_dataEEEE7recycleEj, symObjAddr: 0xD5DC, symBinAddr: 0x10000E4EC, symSize: 0x20 }
  - { offsetInCU: 0x655D7, offset: 0x655D7, size: 0x8, addend: 0x0, symName: __ZN4spot23twa_graph_succ_iteratorINS_7digraphINS_15twa_graph_stateENS_19twa_graph_edge_dataEEEEC1EPKS4_j, symObjAddr: 0xD5FC, symBinAddr: 0x10000E50C, symSize: 0x3C }
  - { offsetInCU: 0x6561D, offset: 0x6561D, size: 0x8, addend: 0x0, symName: __ZN4spot23twa_graph_succ_iteratorINS_7digraphINS_15twa_graph_stateENS_19twa_graph_edge_dataEEEEC2EPKS4_j, symObjAddr: 0xD638, symBinAddr: 0x10000E548, symSize: 0x5C }
  - { offsetInCU: 0x65663, offset: 0x65663, size: 0x8, addend: 0x0, symName: __ZN4spot17twa_succ_iteratorC2Ev, symObjAddr: 0xD694, symBinAddr: 0x10000E5A4, symSize: 0x24 }
  - { offsetInCU: 0x65690, offset: 0x65690, size: 0x8, addend: 0x0, symName: __ZN4spot23twa_graph_succ_iteratorINS_7digraphINS_15twa_graph_stateENS_19twa_graph_edge_dataEEEED1Ev, symObjAddr: 0xD6B8, symBinAddr: 0x10000E5C8, symSize: 0x2C }
  - { offsetInCU: 0x656BC, offset: 0x656BC, size: 0x8, addend: 0x0, symName: __ZN4spot23twa_graph_succ_iteratorINS_7digraphINS_15twa_graph_stateENS_19twa_graph_edge_dataEEEED0Ev, symObjAddr: 0xD6E4, symBinAddr: 0x10000E5F4, symSize: 0x30 }
  - { offsetInCU: 0x656E8, offset: 0x656E8, size: 0x8, addend: 0x0, symName: __ZN4spot23twa_graph_succ_iteratorINS_7digraphINS_15twa_graph_stateENS_19twa_graph_edge_dataEEEE5firstEv, symObjAddr: 0xD714, symBinAddr: 0x10000E624, symSize: 0x2C }
  - { offsetInCU: 0x6570E, offset: 0x6570E, size: 0x8, addend: 0x0, symName: __ZN4spot23twa_graph_succ_iteratorINS_7digraphINS_15twa_graph_stateENS_19twa_graph_edge_dataEEEE4nextEv, symObjAddr: 0xD740, symBinAddr: 0x10000E650, symSize: 0x4C }
  - { offsetInCU: 0x65734, offset: 0x65734, size: 0x8, addend: 0x0, symName: __ZNK4spot23twa_graph_succ_iteratorINS_7digraphINS_15twa_graph_stateENS_19twa_graph_edge_dataEEEE4doneEv, symObjAddr: 0xD78C, symBinAddr: 0x10000E69C, symSize: 0x24 }
  - { offsetInCU: 0x6575A, offset: 0x6575A, size: 0x8, addend: 0x0, symName: __ZNK4spot23twa_graph_succ_iteratorINS_7digraphINS_15twa_graph_stateENS_19twa_graph_edge_dataEEEE3dstEv, symObjAddr: 0xD7B0, symBinAddr: 0x10000E6C0, symSize: 0x60 }
  - { offsetInCU: 0x65780, offset: 0x65780, size: 0x8, addend: 0x0, symName: __ZNK4spot23twa_graph_succ_iteratorINS_7digraphINS_15twa_graph_stateENS_19twa_graph_edge_dataEEEE4condEv, symObjAddr: 0xD810, symBinAddr: 0x10000E720, symSize: 0x5C }
  - { offsetInCU: 0x657A6, offset: 0x657A6, size: 0x8, addend: 0x0, symName: __ZNK4spot23twa_graph_succ_iteratorINS_7digraphINS_15twa_graph_stateENS_19twa_graph_edge_dataEEEE3accEv, symObjAddr: 0xD86C, symBinAddr: 0x10000E77C, symSize: 0x54 }
  - { offsetInCU: 0x657CC, offset: 0x657CC, size: 0x8, addend: 0x0, symName: __ZN4spot17twa_succ_iteratorD1Ev, symObjAddr: 0xD8C0, symBinAddr: 0x10000E7D0, symSize: 0x14 }
  - { offsetInCU: 0x657F6, offset: 0x657F6, size: 0x8, addend: 0x0, symName: __ZN4spot17twa_succ_iteratorD0Ev, symObjAddr: 0xD8D4, symBinAddr: 0x10000E7E4, symSize: 0xC }
  - { offsetInCU: 0x65820, offset: 0x65820, size: 0x8, addend: 0x0, symName: __ZN4spot23twa_graph_succ_iteratorINS_7digraphINS_15twa_graph_stateENS_19twa_graph_edge_dataEEEED2Ev, symObjAddr: 0xD8E0, symBinAddr: 0x10000E7F0, symSize: 0x2C }
  - { offsetInCU: 0x6584C, offset: 0x6584C, size: 0x8, addend: 0x0, symName: __ZN4spot17twa_succ_iteratorD2Ev, symObjAddr: 0xD90C, symBinAddr: 0x10000E81C, symSize: 0x14 }
  - { offsetInCU: 0x65876, offset: 0x65876, size: 0x8, addend: 0x0, symName: __ZNK4spot7digraphINS_15twa_graph_stateENS_19twa_graph_edge_dataEE12edge_storageEj, symObjAddr: 0xD920, symBinAddr: 0x10000E830, symSize: 0x34 }
  - { offsetInCU: 0x658AB, offset: 0x658AB, size: 0x8, addend: 0x0, symName: __ZNKSt3__16vectorIN4spot8internal12edge_storageIjjjNS2_11boxed_labelINS1_19twa_graph_edge_dataELb0EEEEENS_9allocatorIS7_EEEixB7v160006Em, symObjAddr: 0xD954, symBinAddr: 0x10000E864, symSize: 0x2C }
  - { offsetInCU: 0x658E2, offset: 0x658E2, size: 0x8, addend: 0x0, symName: __ZNK4spot7digraphINS_15twa_graph_stateENS_19twa_graph_edge_dataEE9edge_dataEj, symObjAddr: 0xD980, symBinAddr: 0x10000E890, symSize: 0x38 }
  - { offsetInCU: 0x65917, offset: 0x65917, size: 0x8, addend: 0x0, symName: __ZNK4spot8internal11boxed_labelINS_19twa_graph_edge_dataELb0EE4dataEv, symObjAddr: 0xD9B8, symBinAddr: 0x10000E8C8, symSize: 0x14 }
  - { offsetInCU: 0x6593D, offset: 0x6593D, size: 0x8, addend: 0x0, symName: __ZNK4spot9twa_graph12state_numberEPKNS_5stateE, symObjAddr: 0xD9CC, symBinAddr: 0x10000E8DC, symSize: 0x60 }
  - { offsetInCU: 0x65981, offset: 0x65981, size: 0x8, addend: 0x0, symName: __ZNK4spot7digraphINS_15twa_graph_stateENS_19twa_graph_edge_dataEE13state_storageEj, symObjAddr: 0xDA2C, symBinAddr: 0x10000E93C, symSize: 0x30 }
  - { offsetInCU: 0x659B6, offset: 0x659B6, size: 0x8, addend: 0x0, symName: __ZNSt3__120__shared_ptr_emplaceIN4spot9twa_graphENS_9allocatorIS2_EEE8_StorageD2B7v160006Ev, symObjAddr: 0xDA5C, symBinAddr: 0x10000E96C, symSize: 0x2C }
  - { offsetInCU: 0x659E0, offset: 0x659E0, size: 0x8, addend: 0x0, symName: __ZNSt3__120__shared_ptr_emplaceIN4spot9twa_graphENS_9allocatorIS2_EEED2Ev, symObjAddr: 0xDA88, symBinAddr: 0x10000E998, symSize: 0x48 }
  - { offsetInCU: 0x65A0D, offset: 0x65A0D, size: 0x8, addend: 0x0, symName: __ZNSt3__120__shared_ptr_emplaceIN4spot9twa_graphENS_9allocatorIS2_EEE11__get_allocB7v160006Ev, symObjAddr: 0xDAD0, symBinAddr: 0x10000E9E0, symSize: 0x28 }
  - { offsetInCU: 0x65A33, offset: 0x65A33, size: 0x8, addend: 0x0, symName: __ZNSt3__116allocator_traitsINS_9allocatorINS_20__shared_ptr_emplaceIN4spot9twa_graphENS1_IS4_EEEEEEE10deallocateB7v160006ERS7_PS6_m, symObjAddr: 0xDAF8, symBinAddr: 0x10000EA08, symSize: 0x34 }
  - { offsetInCU: 0x65A75, offset: 0x65A75, size: 0x8, addend: 0x0, symName: __ZNSt3__114pointer_traitsIPNS_20__shared_ptr_emplaceIN4spot9twa_graphENS_9allocatorIS3_EEEEE10pointer_toB7v160006ERS6_, symObjAddr: 0xDB2C, symBinAddr: 0x10000EA3C, symSize: 0x14 }
  - { offsetInCU: 0x65A98, offset: 0x65A98, size: 0x8, addend: 0x0, symName: __ZNSt3__19allocatorINS_20__shared_ptr_emplaceIN4spot9twa_graphENS0_IS3_EEEEE10deallocateB7v160006EPS5_m, symObjAddr: 0xDB40, symBinAddr: 0x10000EA50, symSize: 0x44 }
  - { offsetInCU: 0x65ADA, offset: 0x65ADA, size: 0x8, addend: 0x0, symName: __ZNSt3__110shared_ptrIN4spot9twa_graphEEC1B7v160006Ev, symObjAddr: 0xDB84, symBinAddr: 0x10000EA94, symSize: 0x2C }
  - { offsetInCU: 0x65B04, offset: 0x65B04, size: 0x8, addend: 0x0, symName: __ZNSt3__110shared_ptrIN4spot9twa_graphEEC2B7v160006Ev, symObjAddr: 0xDC2C, symBinAddr: 0x10000EB3C, symSize: 0x1C }
  - { offsetInCU: 0x65B2E, offset: 0x65B2E, size: 0x8, addend: 0x0, symName: __ZNKSt3__18weak_ptrIN4spot3twaEE7expiredB7v160006Ev, symObjAddr: 0xDC48, symBinAddr: 0x10000EB58, symSize: 0x64 }
  - { offsetInCU: 0x65B54, offset: 0x65B54, size: 0x8, addend: 0x0, symName: __ZNSt3__110shared_ptrIN4spot3twaEEC1B7v160006INS1_9twa_graphEEERKNS0_IT_EEPS2_, symObjAddr: 0xDCAC, symBinAddr: 0x10000EBBC, symSize: 0x3C }
  - { offsetInCU: 0x65BA5, offset: 0x65BA5, size: 0x8, addend: 0x0, symName: __ZNSt3__18weak_ptrIN4spot3twaEEaSIS2_EENS_9enable_ifIXsr17__compatible_withIT_S2_EE5valueERS3_E4typeERKNS_10shared_ptrIS6_EE, symObjAddr: 0xDCE8, symBinAddr: 0x10000EBF8, symSize: 0x54 }
  - { offsetInCU: 0x65BE5, offset: 0x65BE5, size: 0x8, addend: 0x0, symName: __ZNSt3__110shared_ptrIN4spot3twaEED1B7v160006Ev, symObjAddr: 0xDD3C, symBinAddr: 0x10000EC4C, symSize: 0x2C }
  - { offsetInCU: 0x65C0F, offset: 0x65C0F, size: 0x8, addend: 0x0, symName: __ZNKSt3__119__shared_weak_count9use_countB7v160006Ev, symObjAddr: 0xDD68, symBinAddr: 0x10000EC78, symSize: 0x24 }
  - { offsetInCU: 0x65C35, offset: 0x65C35, size: 0x8, addend: 0x0, symName: __ZNKSt3__114__shared_count9use_countB7v160006Ev, symObjAddr: 0xDD8C, symBinAddr: 0x10000EC9C, symSize: 0x3C }
  - { offsetInCU: 0x65C5B, offset: 0x65C5B, size: 0x8, addend: 0x0, symName: __ZNSt3__110shared_ptrIN4spot3twaEEC2B7v160006INS1_9twa_graphEEERKNS0_IT_EEPS2_, symObjAddr: 0xDDE8, symBinAddr: 0x10000ECF8, symSize: 0x70 }
  - { offsetInCU: 0x65CAC, offset: 0x65CAC, size: 0x8, addend: 0x0, symName: __ZNSt3__119__shared_weak_count12__add_sharedB7v160006Ev, symObjAddr: 0xDE58, symBinAddr: 0x10000ED68, symSize: 0x24 }
  - { offsetInCU: 0x65CD2, offset: 0x65CD2, size: 0x8, addend: 0x0, symName: __ZNSt3__114__shared_count12__add_sharedB7v160006Ev, symObjAddr: 0xDE7C, symBinAddr: 0x10000ED8C, symSize: 0x28 }
  - { offsetInCU: 0x65CFD, offset: 0x65CFD, size: 0x8, addend: 0x0, symName: __ZNSt3__18weak_ptrIN4spot3twaEEC1IS2_EERKNS_10shared_ptrIT_EENS_9enable_ifIXsr17__compatible_withIS6_S2_EE5valueEPNS_5__natEE4typeE, symObjAddr: 0xDED4, symBinAddr: 0x10000EDE4, symSize: 0x3C }
  - { offsetInCU: 0x65D4C, offset: 0x65D4C, size: 0x8, addend: 0x0, symName: __ZNSt3__18weak_ptrIN4spot3twaEE4swapERS3_, symObjAddr: 0xDF10, symBinAddr: 0x10000EE20, symSize: 0x44 }
  - { offsetInCU: 0x65D83, offset: 0x65D83, size: 0x8, addend: 0x0, symName: __ZNSt3__18weak_ptrIN4spot3twaEED1Ev, symObjAddr: 0xDF54, symBinAddr: 0x10000EE64, symSize: 0x2C }
  - { offsetInCU: 0x65DAF, offset: 0x65DAF, size: 0x8, addend: 0x0, symName: __ZNSt3__18weak_ptrIN4spot3twaEEC2IS2_EERKNS_10shared_ptrIT_EENS_9enable_ifIXsr17__compatible_withIS6_S2_EE5valueEPNS_5__natEE4typeE, symObjAddr: 0xDF80, symBinAddr: 0x10000EE90, symSize: 0x74 }
  - { offsetInCU: 0x65DFE, offset: 0x65DFE, size: 0x8, addend: 0x0, symName: __ZNSt3__119__shared_weak_count10__add_weakB7v160006Ev, symObjAddr: 0xDFF4, symBinAddr: 0x10000EF04, symSize: 0x28 }
  - { offsetInCU: 0x65E24, offset: 0x65E24, size: 0x8, addend: 0x0, symName: __ZNSt3__18weak_ptrIN4spot3twaEED2Ev, symObjAddr: 0xE094, symBinAddr: 0x10000EFA4, symSize: 0x54 }
  - { offsetInCU: 0x65E50, offset: 0x65E50, size: 0x8, addend: 0x0, symName: __ZNSt3__110shared_ptrIN4spot3twaEED2B7v160006Ev, symObjAddr: 0xE0E8, symBinAddr: 0x10000EFF8, symSize: 0x54 }
  - { offsetInCU: 0x65E7A, offset: 0x65E7A, size: 0x8, addend: 0x0, symName: __ZNSt3__119__shared_weak_count16__release_sharedB7v160006Ev, symObjAddr: 0xE13C, symBinAddr: 0x10000F04C, symSize: 0x3C }
  - { offsetInCU: 0x65EA0, offset: 0x65EA0, size: 0x8, addend: 0x0, symName: __ZNSt3__114__shared_count16__release_sharedB7v160006Ev, symObjAddr: 0xE178, symBinAddr: 0x10000F088, symSize: 0x7C }
  - { offsetInCU: 0x65EC6, offset: 0x65EC6, size: 0x8, addend: 0x0, symName: __ZNSt3__120__shared_ptr_emplaceIN4spot9twa_graphENS_9allocatorIS2_EEE8_Storage10__get_elemEv, symObjAddr: 0xE224, symBinAddr: 0x10000F134, symSize: 0x3C }
  - { offsetInCU: 0x65F19, offset: 0x65F19, size: 0x8, addend: 0x0, symName: __ZNSt3__117__compressed_pairINS_9allocatorIN4spot9twa_graphEEES3_E17__get_second_baseB7v160006EPS5_, symObjAddr: 0xE260, symBinAddr: 0x10000F170, symSize: 0x14 }
  - { offsetInCU: 0x65F3C, offset: 0x65F3C, size: 0x8, addend: 0x0, symName: __ZNSt3__118__allocation_guardINS_9allocatorINS_20__shared_ptr_emplaceIN4spot9twa_graphENS1_IS4_EEEEEEED2B7v160006Ev, symObjAddr: 0xE274, symBinAddr: 0x10000F184, symSize: 0x58 }
  - { offsetInCU: 0x65F66, offset: 0x65F66, size: 0x8, addend: 0x0, symName: __ZNSt3__19allocatorIN4spot9twa_graphEEC2B7v160006Ev, symObjAddr: 0xE2CC, symBinAddr: 0x10000F1DC, symSize: 0x2C }
  - { offsetInCU: 0x65F90, offset: 0x65F90, size: 0x8, addend: 0x0, symName: __ZNSt3__116__non_trivial_ifILb1ENS_9allocatorIN4spot9twa_graphEEEEC2B7v160006Ev, symObjAddr: 0xE2F8, symBinAddr: 0x10000F208, symSize: 0x14 }
  - { offsetInCU: 0x65FBA, offset: 0x65FBA, size: 0x8, addend: 0x0, symName: __ZNKSt3__110shared_ptrIKN4spot3twaEEptB7v160006Ev, symObjAddr: 0xE30C, symBinAddr: 0x10000F21C, symSize: 0x18 }
  - { offsetInCU: 0x65FE0, offset: 0x65FE0, size: 0x8, addend: 0x0, symName: __ZNK4spot3twa3accEv, symObjAddr: 0xE324, symBinAddr: 0x10000F234, symSize: 0x18 }
  - { offsetInCU: 0x66006, offset: 0x66006, size: 0x8, addend: 0x0, symName: __ZNK4spot3twa2apEv, symObjAddr: 0xE33C, symBinAddr: 0x10000F24C, symSize: 0x18 }
  - { offsetInCU: 0x6602C, offset: 0x6602C, size: 0x8, addend: 0x0, symName: __ZNKSt3__16vectorIN4spot7formulaENS_9allocatorIS2_EEE5beginB7v160006Ev, symObjAddr: 0xE354, symBinAddr: 0x10000F264, symSize: 0x30 }
  - { offsetInCU: 0x66054, offset: 0x66054, size: 0x8, addend: 0x0, symName: __ZNKSt3__16vectorIN4spot7formulaENS_9allocatorIS2_EEE3endB7v160006Ev, symObjAddr: 0xE384, symBinAddr: 0x10000F294, symSize: 0x30 }
  - { offsetInCU: 0x6607C, offset: 0x6607C, size: 0x8, addend: 0x0, symName: __ZNKSt3__111__wrap_iterIPKN4spot7formulaEEdeB7v160006Ev, symObjAddr: 0xE3E8, symBinAddr: 0x10000F2F8, symSize: 0x18 }
  - { offsetInCU: 0x660A2, offset: 0x660A2, size: 0x8, addend: 0x0, symName: __ZN4spot3twa11register_apENS_7formulaE, symObjAddr: 0xE400, symBinAddr: 0x10000F310, symSize: 0x160 }
  - { offsetInCU: 0x660E7, offset: 0x660E7, size: 0x8, addend: 0x0, symName: __ZNSt3__111__wrap_iterIPKN4spot7formulaEEppB7v160006Ev, symObjAddr: 0xE560, symBinAddr: 0x10000F470, symSize: 0x20 }
  - { offsetInCU: 0x6610D, offset: 0x6610D, size: 0x8, addend: 0x0, symName: __ZNKSt3__16vectorIN4spot7formulaENS_9allocatorIS2_EEE11__make_iterB7v160006EPKS2_, symObjAddr: 0xE580, symBinAddr: 0x10000F490, symSize: 0x34 }
  - { offsetInCU: 0x66142, offset: 0x66142, size: 0x8, addend: 0x0, symName: __ZNSt3__111__wrap_iterIPKN4spot7formulaEEC1B7v160006EPKvS4_, symObjAddr: 0xE5B4, symBinAddr: 0x10000F4C4, symSize: 0x3C }
  - { offsetInCU: 0x66188, offset: 0x66188, size: 0x8, addend: 0x0, symName: __ZNSt3__111__wrap_iterIPKN4spot7formulaEEC2B7v160006EPKvS4_, symObjAddr: 0xE5F0, symBinAddr: 0x10000F500, symSize: 0x24 }
  - { offsetInCU: 0x661CE, offset: 0x661CE, size: 0x8, addend: 0x0, symName: __ZNKSt3__111__wrap_iterIPKN4spot7formulaEE4baseB7v160006Ev, symObjAddr: 0xE65C, symBinAddr: 0x10000F56C, symSize: 0x18 }
  - { offsetInCU: 0x661F4, offset: 0x661F4, size: 0x8, addend: 0x0, symName: __ZNSt3__16vectorIN4spot7formulaENS_9allocatorIS2_EEE12emplace_backIJRS2_EEES7_DpOT_, symObjAddr: 0xE674, symBinAddr: 0x10000F584, symSize: 0x74 }
  - { offsetInCU: 0x66236, offset: 0x66236, size: 0x8, addend: 0x0, symName: __ZN3bddaNERKS_, symObjAddr: 0xE6E8, symBinAddr: 0x10000F5F8, symSize: 0x5C }
  - { offsetInCU: 0x6626D, offset: 0x6626D, size: 0x8, addend: 0x0, symName: __ZNSt3__16vectorIN4spot7formulaENS_9allocatorIS2_EEE9__end_capB7v160006Ev, symObjAddr: 0xE744, symBinAddr: 0x10000F654, symSize: 0x28 }
  - { offsetInCU: 0x66293, offset: 0x66293, size: 0x8, addend: 0x0, symName: __ZNSt3__16vectorIN4spot7formulaENS_9allocatorIS2_EEE22__construct_one_at_endB7v160006IJRS2_EEEvDpOT_, symObjAddr: 0xE76C, symBinAddr: 0x10000F67C, symSize: 0x90 }
  - { offsetInCU: 0x662E2, offset: 0x662E2, size: 0x8, addend: 0x0, symName: __ZNSt3__16vectorIN4spot7formulaENS_9allocatorIS2_EEE24__emplace_back_slow_pathIJRS2_EEEvDpOT_, symObjAddr: 0xE7FC, symBinAddr: 0x10000F70C, symSize: 0xD8 }
  - { offsetInCU: 0x66342, offset: 0x66342, size: 0x8, addend: 0x0, symName: __ZNSt3__16vectorIN4spot7formulaENS_9allocatorIS2_EEE4backB7v160006Ev, symObjAddr: 0xE8D4, symBinAddr: 0x10000F7E4, symSize: 0x1C }
  - { offsetInCU: 0x66368, offset: 0x66368, size: 0x8, addend: 0x0, symName: __ZNSt3__117__compressed_pairIPN4spot7formulaENS_9allocatorIS2_EEE5firstB7v160006Ev, symObjAddr: 0xE8F0, symBinAddr: 0x10000F800, symSize: 0x24 }
  - { offsetInCU: 0x6638E, offset: 0x6638E, size: 0x8, addend: 0x0, symName: __ZNSt3__122__compressed_pair_elemIPN4spot7formulaELi0ELb0EE5__getB7v160006Ev, symObjAddr: 0xE914, symBinAddr: 0x10000F824, symSize: 0x14 }
  - { offsetInCU: 0x663CF, offset: 0x663CF, size: 0x8, addend: 0x0, symName: __ZNSt3__16vectorIN4spot7formulaENS_9allocatorIS2_EEE21_ConstructTransactionC1B7v160006ERS5_m, symObjAddr: 0xE928, symBinAddr: 0x10000F838, symSize: 0x3C }
  - { offsetInCU: 0x66417, offset: 0x66417, size: 0x8, addend: 0x0, symName: __ZNSt3__116allocator_traitsINS_9allocatorIN4spot7formulaEEEE9constructB7v160006IS3_JRS3_EvEEvRS4_PT_DpOT0_, symObjAddr: 0xE964, symBinAddr: 0x10000F874, symSize: 0x34 }
  - { offsetInCU: 0x6646E, offset: 0x6646E, size: 0x8, addend: 0x0, symName: __ZNSt3__16vectorIN4spot7formulaENS_9allocatorIS2_EEE7__allocB7v160006Ev, symObjAddr: 0xE998, symBinAddr: 0x10000F8A8, symSize: 0x28 }
  - { offsetInCU: 0x66494, offset: 0x66494, size: 0x8, addend: 0x0, symName: __ZNSt3__16vectorIN4spot7formulaENS_9allocatorIS2_EEE21_ConstructTransactionD1B7v160006Ev, symObjAddr: 0xE9D4, symBinAddr: 0x10000F8E4, symSize: 0x2C }
  - { offsetInCU: 0x664BE, offset: 0x664BE, size: 0x8, addend: 0x0, symName: __ZNSt3__16vectorIN4spot7formulaENS_9allocatorIS2_EEE21_ConstructTransactionC2B7v160006ERS5_m, symObjAddr: 0xEA00, symBinAddr: 0x10000F910, symSize: 0x44 }
  - { offsetInCU: 0x66506, offset: 0x66506, size: 0x8, addend: 0x0, symName: __ZNSt3__19allocatorIN4spot7formulaEE9constructB7v160006IS2_JRS2_EEEvPT_DpOT0_, symObjAddr: 0xEA44, symBinAddr: 0x10000F954, symSize: 0x30 }
  - { offsetInCU: 0x6655C, offset: 0x6655C, size: 0x8, addend: 0x0, symName: __ZNSt3__117__compressed_pairIPN4spot7formulaENS_9allocatorIS2_EEE6secondB7v160006Ev, symObjAddr: 0xEA74, symBinAddr: 0x10000F984, symSize: 0x24 }
  - { offsetInCU: 0x66582, offset: 0x66582, size: 0x8, addend: 0x0, symName: __ZNSt3__122__compressed_pair_elemINS_9allocatorIN4spot7formulaEEELi1ELb1EE5__getB7v160006Ev, symObjAddr: 0xEA98, symBinAddr: 0x10000F9A8, symSize: 0x14 }
  - { offsetInCU: 0x665A8, offset: 0x665A8, size: 0x8, addend: 0x0, symName: __ZNSt3__16vectorIN4spot7formulaENS_9allocatorIS2_EEE21_ConstructTransactionD2B7v160006Ev, symObjAddr: 0xEAAC, symBinAddr: 0x10000F9BC, symSize: 0x20 }
  - { offsetInCU: 0x665D2, offset: 0x665D2, size: 0x8, addend: 0x0, symName: __ZNKSt3__16vectorIN4spot7formulaENS_9allocatorIS2_EEE11__recommendB7v160006Em, symObjAddr: 0xEACC, symBinAddr: 0x10000F9DC, symSize: 0xB4 }
  - { offsetInCU: 0x66627, offset: 0x66627, size: 0x8, addend: 0x0, symName: __ZNKSt3__16vectorIN4spot7formulaENS_9allocatorIS2_EEE4sizeB7v160006Ev, symObjAddr: 0xEB80, symBinAddr: 0x10000FA90, symSize: 0x28 }
  - { offsetInCU: 0x6664D, offset: 0x6664D, size: 0x8, addend: 0x0, symName: __ZNSt3__114__split_bufferIN4spot7formulaERNS_9allocatorIS2_EEEC1EmmS5_, symObjAddr: 0xEBA8, symBinAddr: 0x10000FAB8, symSize: 0x44 }
  - { offsetInCU: 0x666A3, offset: 0x666A3, size: 0x8, addend: 0x0, symName: __ZNSt3__114__split_bufferIN4spot7formulaERNS_9allocatorIS2_EEED1Ev, symObjAddr: 0xED04, symBinAddr: 0x10000FC14, symSize: 0x2C }
  - { offsetInCU: 0x666CF, offset: 0x666CF, size: 0x8, addend: 0x0, symName: __ZNKSt3__16vectorIN4spot7formulaENS_9allocatorIS2_EEE8max_sizeEv, symObjAddr: 0xED30, symBinAddr: 0x10000FC40, symSize: 0x60 }
  - { offsetInCU: 0x666F7, offset: 0x666F7, size: 0x8, addend: 0x0, symName: __ZNKSt3__16vectorIN4spot7formulaENS_9allocatorIS2_EEE20__throw_length_errorB7v160006Ev, symObjAddr: 0xED90, symBinAddr: 0x10000FCA0, symSize: 0x1C }
  - { offsetInCU: 0x6671D, offset: 0x6671D, size: 0x8, addend: 0x0, symName: __ZNKSt3__16vectorIN4spot7formulaENS_9allocatorIS2_EEE8capacityB7v160006Ev, symObjAddr: 0xEDAC, symBinAddr: 0x10000FCBC, symSize: 0x40 }
  - { offsetInCU: 0x6674E, offset: 0x6674E, size: 0x8, addend: 0x0, symName: __ZNSt3__116allocator_traitsINS_9allocatorIN4spot7formulaEEEE8max_sizeB7v160006IS4_vEEmRKS4_, symObjAddr: 0xEDEC, symBinAddr: 0x10000FCFC, symSize: 0x24 }
  - { offsetInCU: 0x6677C, offset: 0x6677C, size: 0x8, addend: 0x0, symName: __ZNKSt3__16vectorIN4spot7formulaENS_9allocatorIS2_EEE7__allocB7v160006Ev, symObjAddr: 0xEE10, symBinAddr: 0x10000FD20, symSize: 0x28 }
  - { offsetInCU: 0x667A2, offset: 0x667A2, size: 0x8, addend: 0x0, symName: __ZNKSt3__19allocatorIN4spot7formulaEE8max_sizeB7v160006Ev, symObjAddr: 0xEE38, symBinAddr: 0x10000FD48, symSize: 0x14 }
  - { offsetInCU: 0x667C8, offset: 0x667C8, size: 0x8, addend: 0x0, symName: __ZNKSt3__117__compressed_pairIPN4spot7formulaENS_9allocatorIS2_EEE6secondB7v160006Ev, symObjAddr: 0xEE4C, symBinAddr: 0x10000FD5C, symSize: 0x24 }
  - { offsetInCU: 0x667EE, offset: 0x667EE, size: 0x8, addend: 0x0, symName: __ZNKSt3__122__compressed_pair_elemINS_9allocatorIN4spot7formulaEEELi1ELb1EE5__getB7v160006Ev, symObjAddr: 0xEE70, symBinAddr: 0x10000FD80, symSize: 0x14 }
  - { offsetInCU: 0x66814, offset: 0x66814, size: 0x8, addend: 0x0, symName: __ZNKSt3__16vectorIN4spot7formulaENS_9allocatorIS2_EEE9__end_capB7v160006Ev, symObjAddr: 0xEE84, symBinAddr: 0x10000FD94, symSize: 0x28 }
  - { offsetInCU: 0x6683A, offset: 0x6683A, size: 0x8, addend: 0x0, symName: __ZNKSt3__117__compressed_pairIPN4spot7formulaENS_9allocatorIS2_EEE5firstB7v160006Ev, symObjAddr: 0xEEAC, symBinAddr: 0x10000FDBC, symSize: 0x24 }
  - { offsetInCU: 0x66860, offset: 0x66860, size: 0x8, addend: 0x0, symName: __ZNKSt3__122__compressed_pair_elemIPN4spot7formulaELi0ELb0EE5__getB7v160006Ev, symObjAddr: 0xEED0, symBinAddr: 0x10000FDE0, symSize: 0x14 }
  - { offsetInCU: 0x66886, offset: 0x66886, size: 0x8, addend: 0x0, symName: __ZNSt3__114__split_bufferIN4spot7formulaERNS_9allocatorIS2_EEEC2EmmS5_, symObjAddr: 0xEEE4, symBinAddr: 0x10000FDF4, symSize: 0xD4 }
  - { offsetInCU: 0x668FA, offset: 0x668FA, size: 0x8, addend: 0x0, symName: __ZNSt3__117__compressed_pairIPN4spot7formulaERNS_9allocatorIS2_EEEC1B7v160006IDnS6_EEOT_OT0_, symObjAddr: 0xEFB8, symBinAddr: 0x10000FEC8, symSize: 0x3C }
  - { offsetInCU: 0x66952, offset: 0x66952, size: 0x8, addend: 0x0, symName: __ZNSt3__114__split_bufferIN4spot7formulaERNS_9allocatorIS2_EEE7__allocB7v160006Ev, symObjAddr: 0xF034, symBinAddr: 0x10000FF44, symSize: 0x28 }
  - { offsetInCU: 0x66978, offset: 0x66978, size: 0x8, addend: 0x0, symName: __ZNSt3__114__split_bufferIN4spot7formulaERNS_9allocatorIS2_EEE9__end_capB7v160006Ev, symObjAddr: 0xF05C, symBinAddr: 0x10000FF6C, symSize: 0x28 }
  - { offsetInCU: 0x6699E, offset: 0x6699E, size: 0x8, addend: 0x0, symName: __ZNSt3__117__compressed_pairIPN4spot7formulaERNS_9allocatorIS2_EEEC2B7v160006IDnS6_EEOT_OT0_, symObjAddr: 0xF084, symBinAddr: 0x10000FF94, symSize: 0x48 }
  - { offsetInCU: 0x669F6, offset: 0x669F6, size: 0x8, addend: 0x0, symName: __ZNSt3__122__compressed_pair_elemIPN4spot7formulaELi0ELb0EEC2B7v160006IDnvEEOT_, symObjAddr: 0xF0CC, symBinAddr: 0x10000FFDC, symSize: 0x1C }
  - { offsetInCU: 0x66A38, offset: 0x66A38, size: 0x8, addend: 0x0, symName: __ZNSt3__122__compressed_pair_elemIRNS_9allocatorIN4spot7formulaEEELi1ELb0EEC2B7v160006IS5_vEEOT_, symObjAddr: 0xF0E8, symBinAddr: 0x10000FFF8, symSize: 0x20 }
  - { offsetInCU: 0x66A7A, offset: 0x66A7A, size: 0x8, addend: 0x0, symName: __ZNSt3__19allocatorIN4spot7formulaEE8allocateB7v160006Em, symObjAddr: 0xF108, symBinAddr: 0x100010018, symSize: 0x58 }
  - { offsetInCU: 0x66AAE, offset: 0x66AAE, size: 0x8, addend: 0x0, symName: __ZNSt3__117__compressed_pairIPN4spot7formulaERNS_9allocatorIS2_EEE6secondB7v160006Ev, symObjAddr: 0xF160, symBinAddr: 0x100010070, symSize: 0x28 }
  - { offsetInCU: 0x66AD4, offset: 0x66AD4, size: 0x8, addend: 0x0, symName: __ZNSt3__122__compressed_pair_elemIRNS_9allocatorIN4spot7formulaEEELi1ELb0EE5__getB7v160006Ev, symObjAddr: 0xF188, symBinAddr: 0x100010098, symSize: 0x18 }
  - { offsetInCU: 0x66AFA, offset: 0x66AFA, size: 0x8, addend: 0x0, symName: __ZNSt3__117__compressed_pairIPN4spot7formulaERNS_9allocatorIS2_EEE5firstB7v160006Ev, symObjAddr: 0xF1A0, symBinAddr: 0x1000100B0, symSize: 0x24 }
  - { offsetInCU: 0x66B20, offset: 0x66B20, size: 0x8, addend: 0x0, symName: __ZNKSt3__16vectorIN4spot7formulaENS_9allocatorIS2_EEE17__annotate_deleteB7v160006Ev, symObjAddr: 0xF1C4, symBinAddr: 0x1000100D4, symSize: 0xB8 }
  - { offsetInCU: 0x66B46, offset: 0x66B46, size: 0x8, addend: 0x0, symName: __ZNSt3__116reverse_iteratorIPN4spot7formulaEEC1B7v160006ES3_, symObjAddr: 0xF3A8, symBinAddr: 0x1000102B8, symSize: 0x34 }
  - { offsetInCU: 0x66B7E, offset: 0x66B7E, size: 0x8, addend: 0x0, symName: __ZNKSt3__116reverse_iteratorIPN4spot7formulaEE4baseB7v160006Ev, symObjAddr: 0xF3DC, symBinAddr: 0x1000102EC, symSize: 0x18 }
  - { offsetInCU: 0x66BA4, offset: 0x66BA4, size: 0x8, addend: 0x0, symName: __ZNKSt3__16vectorIN4spot7formulaENS_9allocatorIS2_EEE14__annotate_newB7v160006Em, symObjAddr: 0xF430, symBinAddr: 0x100010340, symSize: 0xAC }
  - { offsetInCU: 0x66BD9, offset: 0x66BD9, size: 0x8, addend: 0x0, symName: __ZNKSt3__16vectorIN4spot7formulaENS_9allocatorIS2_EEE31__annotate_contiguous_containerB7v160006EPKvS7_S7_S7_, symObjAddr: 0xF4EC, symBinAddr: 0x1000103FC, symSize: 0x20 }
  - { offsetInCU: 0x66C2B, offset: 0x66C2B, size: 0x8, addend: 0x0, symName: __ZNKSt3__16vectorIN4spot7formulaENS_9allocatorIS2_EEE4dataB7v160006Ev, symObjAddr: 0xF50C, symBinAddr: 0x10001041C, symSize: 0x28 }
  - { offsetInCU: 0x66C51, offset: 0x66C51, size: 0x8, addend: 0x0, symName: __ZNSt3__129_AllocatorDestroyRangeReverseINS_9allocatorIN4spot7formulaEEENS_16reverse_iteratorIPS3_EEEC1B7v160006ERS4_RS7_SA_, symObjAddr: 0xF580, symBinAddr: 0x100010490, symSize: 0x44 }
  - { offsetInCU: 0x66CA8, offset: 0x66CA8, size: 0x8, addend: 0x0, symName: __ZNSt3__116allocator_traitsINS_9allocatorIN4spot7formulaEEEE9constructB7v160006IS3_JS3_EvEEvRS4_PT_DpOT0_, symObjAddr: 0xF60C, symBinAddr: 0x10001051C, symSize: 0x34 }
  - { offsetInCU: 0x66CFF, offset: 0x66CFF, size: 0x8, addend: 0x0, symName: __ZNKSt3__116reverse_iteratorIPN4spot7formulaEEdeB7v160006Ev, symObjAddr: 0xF664, symBinAddr: 0x100010574, symSize: 0x28 }
  - { offsetInCU: 0x66D34, offset: 0x66D34, size: 0x8, addend: 0x0, symName: __ZNSt3__116reverse_iteratorIPN4spot7formulaEEppB7v160006Ev, symObjAddr: 0xF68C, symBinAddr: 0x10001059C, symSize: 0x20 }
  - { offsetInCU: 0x66D5A, offset: 0x66D5A, size: 0x8, addend: 0x0, symName: __ZNSt3__128__exception_guard_exceptionsINS_29_AllocatorDestroyRangeReverseINS_9allocatorIN4spot7formulaEEENS_16reverse_iteratorIPS4_EEEEE10__completeB7v160006Ev, symObjAddr: 0xF6AC, symBinAddr: 0x1000105BC, symSize: 0x1C }
  - { offsetInCU: 0x66D80, offset: 0x66D80, size: 0x8, addend: 0x0, symName: __ZNSt3__128__exception_guard_exceptionsINS_29_AllocatorDestroyRangeReverseINS_9allocatorIN4spot7formulaEEENS_16reverse_iteratorIPS4_EEEEED1B7v160006Ev, symObjAddr: 0xF6C8, symBinAddr: 0x1000105D8, symSize: 0x2C }
  - { offsetInCU: 0x66DAA, offset: 0x66DAA, size: 0x8, addend: 0x0, symName: __ZNSt3__128__exception_guard_exceptionsINS_29_AllocatorDestroyRangeReverseINS_9allocatorIN4spot7formulaEEENS_16reverse_iteratorIPS4_EEEEEC1B7v160006ES9_, symObjAddr: 0xF6F4, symBinAddr: 0x100010604, symSize: 0x34 }
  - { offsetInCU: 0x66DE3, offset: 0x66DE3, size: 0x8, addend: 0x0, symName: __ZNSt3__128__exception_guard_exceptionsINS_29_AllocatorDestroyRangeReverseINS_9allocatorIN4spot7formulaEEENS_16reverse_iteratorIPS4_EEEEEC2B7v160006ES9_, symObjAddr: 0xF728, symBinAddr: 0x100010638, symSize: 0x30 }
  - { offsetInCU: 0x66E1C, offset: 0x66E1C, size: 0x8, addend: 0x0, symName: __ZNSt3__129_AllocatorDestroyRangeReverseINS_9allocatorIN4spot7formulaEEENS_16reverse_iteratorIPS3_EEEC2B7v160006ERS4_RS7_SA_, symObjAddr: 0xF758, symBinAddr: 0x100010668, symSize: 0x38 }
  - { offsetInCU: 0x66E73, offset: 0x66E73, size: 0x8, addend: 0x0, symName: __ZNSt3__19allocatorIN4spot7formulaEE9constructB7v160006IS2_JS2_EEEvPT_DpOT0_, symObjAddr: 0xF790, symBinAddr: 0x1000106A0, symSize: 0x30 }
  - { offsetInCU: 0x66EC9, offset: 0x66EC9, size: 0x8, addend: 0x0, symName: __ZN4spot7formulaC1EOS0_, symObjAddr: 0xF7C0, symBinAddr: 0x1000106D0, symSize: 0x34 }
  - { offsetInCU: 0x66F02, offset: 0x66F02, size: 0x8, addend: 0x0, symName: __ZN4spot7formulaC2EOS0_, symObjAddr: 0xF7F4, symBinAddr: 0x100010704, symSize: 0x2C }
  - { offsetInCU: 0x66F41, offset: 0x66F41, size: 0x8, addend: 0x0, symName: __ZNSt3__119__to_address_helperINS_16reverse_iteratorIPN4spot7formulaEEEvE6__callB7v160006ERKS5_, symObjAddr: 0xF820, symBinAddr: 0x100010730, symSize: 0x38 }
  - { offsetInCU: 0x66F64, offset: 0x66F64, size: 0x8, addend: 0x0, symName: __ZNKSt3__116reverse_iteratorIPN4spot7formulaEEptB7v160006Ev, symObjAddr: 0xF858, symBinAddr: 0x100010768, symSize: 0x24 }
  - { offsetInCU: 0x66F8A, offset: 0x66F8A, size: 0x8, addend: 0x0, symName: __ZNSt3__128__exception_guard_exceptionsINS_29_AllocatorDestroyRangeReverseINS_9allocatorIN4spot7formulaEEENS_16reverse_iteratorIPS4_EEEEED2B7v160006Ev, symObjAddr: 0xF87C, symBinAddr: 0x10001078C, symSize: 0x50 }
  - { offsetInCU: 0x66FB4, offset: 0x66FB4, size: 0x8, addend: 0x0, symName: __ZNKSt3__129_AllocatorDestroyRangeReverseINS_9allocatorIN4spot7formulaEEENS_16reverse_iteratorIPS3_EEEclB7v160006Ev, symObjAddr: 0xF8CC, symBinAddr: 0x1000107DC, symSize: 0xB4 }
  - { offsetInCU: 0x66FDB, offset: 0x66FDB, size: 0x8, addend: 0x0, symName: __ZNSt3__116reverse_iteratorINS0_IPN4spot7formulaEEEEC1B7v160006ES4_, symObjAddr: 0xF9F0, symBinAddr: 0x100010900, symSize: 0x3C }
  - { offsetInCU: 0x67013, offset: 0x67013, size: 0x8, addend: 0x0, symName: __ZNSt3__116allocator_traitsINS_9allocatorIN4spot7formulaEEEE7destroyB7v160006IS3_vEEvRS4_PT_, symObjAddr: 0xFA8C, symBinAddr: 0x10001099C, symSize: 0x2C }
  - { offsetInCU: 0x67050, offset: 0x67050, size: 0x8, addend: 0x0, symName: __ZNSt3__116reverse_iteratorINS0_IPN4spot7formulaEEEEppB7v160006Ev, symObjAddr: 0xFADC, symBinAddr: 0x1000109EC, symSize: 0x30 }
  - { offsetInCU: 0x67076, offset: 0x67076, size: 0x8, addend: 0x0, symName: __ZNKSt3__116reverse_iteratorINS0_IPN4spot7formulaEEEE4baseB7v160006Ev, symObjAddr: 0xFB0C, symBinAddr: 0x100010A1C, symSize: 0x24 }
  - { offsetInCU: 0x6709C, offset: 0x6709C, size: 0x8, addend: 0x0, symName: __ZNSt3__19allocatorIN4spot7formulaEE7destroyB7v160006EPS2_, symObjAddr: 0xFB30, symBinAddr: 0x100010A40, symSize: 0x28 }
  - { offsetInCU: 0x670D6, offset: 0x670D6, size: 0x8, addend: 0x0, symName: __ZNSt3__119__to_address_helperINS_16reverse_iteratorINS1_IPN4spot7formulaEEEEEvE6__callB7v160006ERKS6_, symObjAddr: 0xFB58, symBinAddr: 0x100010A68, symSize: 0x38 }
  - { offsetInCU: 0x670F9, offset: 0x670F9, size: 0x8, addend: 0x0, symName: __ZNKSt3__116reverse_iteratorINS0_IPN4spot7formulaEEEEptB7v160006Ev, symObjAddr: 0xFB90, symBinAddr: 0x100010AA0, symSize: 0x24 }
  - { offsetInCU: 0x6711F, offset: 0x6711F, size: 0x8, addend: 0x0, symName: __ZNKSt3__116reverse_iteratorINS0_IPN4spot7formulaEEEEdeB7v160006Ev, symObjAddr: 0xFBB4, symBinAddr: 0x100010AC4, symSize: 0x34 }
  - { offsetInCU: 0x67154, offset: 0x67154, size: 0x8, addend: 0x0, symName: __ZNSt3__116reverse_iteratorIPN4spot7formulaEEmmB7v160006Ev, symObjAddr: 0xFBE8, symBinAddr: 0x100010AF8, symSize: 0x20 }
  - { offsetInCU: 0x6717A, offset: 0x6717A, size: 0x8, addend: 0x0, symName: __ZNSt3__116reverse_iteratorINS0_IPN4spot7formulaEEEEC2B7v160006ES4_, symObjAddr: 0xFC08, symBinAddr: 0x100010B18, symSize: 0x2C }
  - { offsetInCU: 0x671B2, offset: 0x671B2, size: 0x8, addend: 0x0, symName: __ZNSt3__116reverse_iteratorIPN4spot7formulaEEC2B7v160006ES3_, symObjAddr: 0xFC34, symBinAddr: 0x100010B44, symSize: 0x28 }
  - { offsetInCU: 0x671EA, offset: 0x671EA, size: 0x8, addend: 0x0, symName: __ZNSt3__114__split_bufferIN4spot7formulaERNS_9allocatorIS2_EEED2Ev, symObjAddr: 0xFC5C, symBinAddr: 0x100010B6C, symSize: 0x8C }
  - { offsetInCU: 0x67216, offset: 0x67216, size: 0x8, addend: 0x0, symName: __ZNSt3__114__split_bufferIN4spot7formulaERNS_9allocatorIS2_EEE5clearB7v160006Ev, symObjAddr: 0xFCE8, symBinAddr: 0x100010BF8, symSize: 0x28 }
  - { offsetInCU: 0x6723C, offset: 0x6723C, size: 0x8, addend: 0x0, symName: __ZNSt3__116allocator_traitsINS_9allocatorIN4spot7formulaEEEE10deallocateB7v160006ERS4_PS3_m, symObjAddr: 0xFD10, symBinAddr: 0x100010C20, symSize: 0x34 }
  - { offsetInCU: 0x6727E, offset: 0x6727E, size: 0x8, addend: 0x0, symName: __ZNKSt3__114__split_bufferIN4spot7formulaERNS_9allocatorIS2_EEE8capacityB7v160006Ev, symObjAddr: 0xFD44, symBinAddr: 0x100010C54, symSize: 0x40 }
  - { offsetInCU: 0x672A4, offset: 0x672A4, size: 0x8, addend: 0x0, symName: __ZNSt3__114__split_bufferIN4spot7formulaERNS_9allocatorIS2_EEE17__destruct_at_endB7v160006EPS2_, symObjAddr: 0xFD84, symBinAddr: 0x100010C94, symSize: 0x2C }
  - { offsetInCU: 0x672D8, offset: 0x672D8, size: 0x8, addend: 0x0, symName: __ZNSt3__114__split_bufferIN4spot7formulaERNS_9allocatorIS2_EEE17__destruct_at_endB7v160006EPS2_NS_17integral_constantIbLb0EEE, symObjAddr: 0xFDB0, symBinAddr: 0x100010CC0, symSize: 0x80 }
  - { offsetInCU: 0x67318, offset: 0x67318, size: 0x8, addend: 0x0, symName: __ZNSt3__19allocatorIN4spot7formulaEE10deallocateB7v160006EPS2_m, symObjAddr: 0xFE30, symBinAddr: 0x100010D40, symSize: 0x40 }
  - { offsetInCU: 0x6735A, offset: 0x6735A, size: 0x8, addend: 0x0, symName: __ZNKSt3__114__split_bufferIN4spot7formulaERNS_9allocatorIS2_EEE9__end_capB7v160006Ev, symObjAddr: 0xFE70, symBinAddr: 0x100010D80, symSize: 0x28 }
  - { offsetInCU: 0x67380, offset: 0x67380, size: 0x8, addend: 0x0, symName: __ZNKSt3__117__compressed_pairIPN4spot7formulaERNS_9allocatorIS2_EEE5firstB7v160006Ev, symObjAddr: 0xFE98, symBinAddr: 0x100010DA8, symSize: 0x24 }
  - { offsetInCU: 0x673A6, offset: 0x673A6, size: 0x8, addend: 0x0, symName: __ZN3bddaSEOS_, symObjAddr: 0xFEBC, symBinAddr: 0x100010DCC, symSize: 0x6C }
  - { offsetInCU: 0x673DD, offset: 0x673DD, size: 0x8, addend: 0x0, symName: __ZNK4spot9twa_graph10num_statesEv, symObjAddr: 0xFF28, symBinAddr: 0x100010E38, symSize: 0x28 }
  - { offsetInCU: 0x67403, offset: 0x67403, size: 0x8, addend: 0x0, symName: __ZNK4spot7digraphINS_15twa_graph_stateENS_19twa_graph_edge_dataEE10num_statesEv, symObjAddr: 0xFF50, symBinAddr: 0x100010E60, symSize: 0x24 }
  - { offsetInCU: 0x67429, offset: 0x67429, size: 0x8, addend: 0x0, symName: __ZN4spot8acc_condD2Ev, symObjAddr: 0xFF74, symBinAddr: 0x100010E84, symSize: 0x30 }
  - { offsetInCU: 0x67453, offset: 0x67453, size: 0x8, addend: 0x0, symName: __ZN4spot8acc_cond8acc_code3finENS0_6mark_tE, symObjAddr: 0xFFA4, symBinAddr: 0x100010EB4, symSize: 0xF4 }
  - { offsetInCU: 0x67487, offset: 0x67487, size: 0x8, addend: 0x0, symName: __ZN4spot8acc_cond8acc_codeC1Ev, symObjAddr: 0x10098, symBinAddr: 0x100010FA8, symSize: 0x2C }
  - { offsetInCU: 0x674B1, offset: 0x674B1, size: 0x8, addend: 0x0, symName: __ZNSt3__16vectorIN4spot8acc_cond8acc_wordENS_9allocatorIS3_EEE6resizeEm, symObjAddr: 0x100C4, symBinAddr: 0x100010FD4, symSize: 0x94 }
  - { offsetInCU: 0x674F7, offset: 0x674F7, size: 0x8, addend: 0x0, symName: __ZNSt3__16vectorIN4spot8acc_cond8acc_wordENS_9allocatorIS3_EEEixB7v160006Em, symObjAddr: 0x10158, symBinAddr: 0x100011068, symSize: 0x24 }
  - { offsetInCU: 0x6752E, offset: 0x6752E, size: 0x8, addend: 0x0, symName: __ZN4spot8acc_cond8acc_codeC2Ev, symObjAddr: 0x1017C, symBinAddr: 0x10001108C, symSize: 0x2C }
  - { offsetInCU: 0x67558, offset: 0x67558, size: 0x8, addend: 0x0, symName: __ZNSt3__16vectorIN4spot8acc_cond8acc_wordENS_9allocatorIS3_EEEC2B7v160006Ev, symObjAddr: 0x101A8, symBinAddr: 0x1000110B8, symSize: 0x54 }
  - { offsetInCU: 0x67582, offset: 0x67582, size: 0x8, addend: 0x0, symName: __ZNSt3__117__compressed_pairIPN4spot8acc_cond8acc_wordENS_9allocatorIS3_EEEC1B7v160006IDnNS_18__default_init_tagEEEOT_OT0_, symObjAddr: 0x101FC, symBinAddr: 0x10001110C, symSize: 0x3C }
  - { offsetInCU: 0x675DA, offset: 0x675DA, size: 0x8, addend: 0x0, symName: __ZNSt3__117__compressed_pairIPN4spot8acc_cond8acc_wordENS_9allocatorIS3_EEEC2B7v160006IDnNS_18__default_init_tagEEEOT_OT0_, symObjAddr: 0x10238, symBinAddr: 0x100011148, symSize: 0x40 }
  - { offsetInCU: 0x67632, offset: 0x67632, size: 0x8, addend: 0x0, symName: __ZNSt3__122__compressed_pair_elemINS_9allocatorIN4spot8acc_cond8acc_wordEEELi1ELb1EEC2B7v160006ENS_18__default_init_tagE, symObjAddr: 0x10278, symBinAddr: 0x100011188, symSize: 0x2C }
  - { offsetInCU: 0x67666, offset: 0x67666, size: 0x8, addend: 0x0, symName: __ZNSt3__19allocatorIN4spot8acc_cond8acc_wordEEC2B7v160006Ev, symObjAddr: 0x102A4, symBinAddr: 0x1000111B4, symSize: 0x2C }
  - { offsetInCU: 0x67690, offset: 0x67690, size: 0x8, addend: 0x0, symName: __ZNSt3__116__non_trivial_ifILb1ENS_9allocatorIN4spot8acc_cond8acc_wordEEEEC2B7v160006Ev, symObjAddr: 0x102D0, symBinAddr: 0x1000111E0, symSize: 0x14 }
  - { offsetInCU: 0x676BA, offset: 0x676BA, size: 0x8, addend: 0x0, symName: __ZNSt3__16vectorIN4spot8acc_cond8acc_wordENS_9allocatorIS3_EEE8__appendEm, symObjAddr: 0x102E4, symBinAddr: 0x1000111F4, symSize: 0x108 }
  - { offsetInCU: 0x67716, offset: 0x67716, size: 0x8, addend: 0x0, symName: __ZNSt3__16vectorIN4spot8acc_cond8acc_wordENS_9allocatorIS3_EEE17__destruct_at_endB7v160006EPS3_, symObjAddr: 0x103EC, symBinAddr: 0x1000112FC, symSize: 0x60 }
  - { offsetInCU: 0x6775A, offset: 0x6775A, size: 0x8, addend: 0x0, symName: __ZNSt3__16vectorIN4spot8acc_cond8acc_wordENS_9allocatorIS3_EEE18__construct_at_endEm, symObjAddr: 0x1044C, symBinAddr: 0x10001135C, symSize: 0xC8 }
  - { offsetInCU: 0x677CD, offset: 0x677CD, size: 0x8, addend: 0x0, symName: __ZNKSt3__16vectorIN4spot8acc_cond8acc_wordENS_9allocatorIS3_EEE11__recommendB7v160006Em, symObjAddr: 0x10514, symBinAddr: 0x100011424, symSize: 0xB4 }
  - { offsetInCU: 0x67822, offset: 0x67822, size: 0x8, addend: 0x0, symName: __ZNSt3__114__split_bufferIN4spot8acc_cond8acc_wordERNS_9allocatorIS3_EEEC1EmmS6_, symObjAddr: 0x105C8, symBinAddr: 0x1000114D8, symSize: 0x44 }
  - { offsetInCU: 0x67878, offset: 0x67878, size: 0x8, addend: 0x0, symName: __ZNSt3__114__split_bufferIN4spot8acc_cond8acc_wordERNS_9allocatorIS3_EEE18__construct_at_endEm, symObjAddr: 0x1060C, symBinAddr: 0x10001151C, symSize: 0xB4 }
  - { offsetInCU: 0x678BC, offset: 0x678BC, size: 0x8, addend: 0x0, symName: __ZNSt3__114__split_bufferIN4spot8acc_cond8acc_wordERNS_9allocatorIS3_EEED1Ev, symObjAddr: 0x107D8, symBinAddr: 0x1000116E8, symSize: 0x2C }
  - { offsetInCU: 0x678E8, offset: 0x678E8, size: 0x8, addend: 0x0, symName: __ZNSt3__116allocator_traitsINS_9allocatorIN4spot8acc_cond8acc_wordEEEE9constructB7v160006IS4_JEvEEvRS5_PT_DpOT0_, symObjAddr: 0x10804, symBinAddr: 0x100011714, symSize: 0x2C }
  - { offsetInCU: 0x6792A, offset: 0x6792A, size: 0x8, addend: 0x0, symName: __ZNSt3__19allocatorIN4spot8acc_cond8acc_wordEE9constructB7v160006IS3_JEEEvPT_DpOT0_, symObjAddr: 0x10830, symBinAddr: 0x100011740, symSize: 0x1C }
  - { offsetInCU: 0x6796C, offset: 0x6796C, size: 0x8, addend: 0x0, symName: __ZNSt3__114__split_bufferIN4spot8acc_cond8acc_wordERNS_9allocatorIS3_EEEC2EmmS6_, symObjAddr: 0x1084C, symBinAddr: 0x10001175C, symSize: 0xD4 }
  - { offsetInCU: 0x679E0, offset: 0x679E0, size: 0x8, addend: 0x0, symName: __ZNSt3__117__compressed_pairIPN4spot8acc_cond8acc_wordERNS_9allocatorIS3_EEEC1B7v160006IDnS7_EEOT_OT0_, symObjAddr: 0x10920, symBinAddr: 0x100011830, symSize: 0x3C }
  - { offsetInCU: 0x67A38, offset: 0x67A38, size: 0x8, addend: 0x0, symName: __ZNSt3__114__split_bufferIN4spot8acc_cond8acc_wordERNS_9allocatorIS3_EEE7__allocB7v160006Ev, symObjAddr: 0x1095C, symBinAddr: 0x10001186C, symSize: 0x28 }
  - { offsetInCU: 0x67A5E, offset: 0x67A5E, size: 0x8, addend: 0x0, symName: __ZNSt3__114__split_bufferIN4spot8acc_cond8acc_wordERNS_9allocatorIS3_EEE9__end_capB7v160006Ev, symObjAddr: 0x10984, symBinAddr: 0x100011894, symSize: 0x28 }
  - { offsetInCU: 0x67A84, offset: 0x67A84, size: 0x8, addend: 0x0, symName: __ZNSt3__117__compressed_pairIPN4spot8acc_cond8acc_wordERNS_9allocatorIS3_EEEC2B7v160006IDnS7_EEOT_OT0_, symObjAddr: 0x109AC, symBinAddr: 0x1000118BC, symSize: 0x48 }
  - { offsetInCU: 0x67ADC, offset: 0x67ADC, size: 0x8, addend: 0x0, symName: __ZNSt3__122__compressed_pair_elemIRNS_9allocatorIN4spot8acc_cond8acc_wordEEELi1ELb0EEC2B7v160006IS6_vEEOT_, symObjAddr: 0x109F4, symBinAddr: 0x100011904, symSize: 0x20 }
  - { offsetInCU: 0x67B1E, offset: 0x67B1E, size: 0x8, addend: 0x0, symName: __ZNSt3__117__compressed_pairIPN4spot8acc_cond8acc_wordERNS_9allocatorIS3_EEE6secondB7v160006Ev, symObjAddr: 0x10A14, symBinAddr: 0x100011924, symSize: 0x28 }
  - { offsetInCU: 0x67B44, offset: 0x67B44, size: 0x8, addend: 0x0, symName: __ZNSt3__122__compressed_pair_elemIRNS_9allocatorIN4spot8acc_cond8acc_wordEEELi1ELb0EE5__getB7v160006Ev, symObjAddr: 0x10A3C, symBinAddr: 0x10001194C, symSize: 0x18 }
  - { offsetInCU: 0x67B6A, offset: 0x67B6A, size: 0x8, addend: 0x0, symName: __ZNSt3__117__compressed_pairIPN4spot8acc_cond8acc_wordERNS_9allocatorIS3_EEE5firstB7v160006Ev, symObjAddr: 0x10A54, symBinAddr: 0x100011964, symSize: 0x24 }
  - { offsetInCU: 0x67B9A, offset: 0x67B9A, size: 0x8, addend: 0x0, symName: __ZNSt3__114__split_bufferIN4spot8acc_cond8acc_wordERNS_9allocatorIS3_EEE21_ConstructTransactionC1B7v160006EPPS3_m, symObjAddr: 0x10A78, symBinAddr: 0x100011988, symSize: 0x3C }
  - { offsetInCU: 0x67BE0, offset: 0x67BE0, size: 0x8, addend: 0x0, symName: __ZNSt3__114__split_bufferIN4spot8acc_cond8acc_wordERNS_9allocatorIS3_EEE21_ConstructTransactionD1B7v160006Ev, symObjAddr: 0x10AB4, symBinAddr: 0x1000119C4, symSize: 0x2C }
  - { offsetInCU: 0x67C0A, offset: 0x67C0A, size: 0x8, addend: 0x0, symName: __ZNSt3__114__split_bufferIN4spot8acc_cond8acc_wordERNS_9allocatorIS3_EEE21_ConstructTransactionC2B7v160006EPPS3_m, symObjAddr: 0x10AE0, symBinAddr: 0x1000119F0, symSize: 0x44 }
  - { offsetInCU: 0x67C50, offset: 0x67C50, size: 0x8, addend: 0x0, symName: __ZNSt3__114__split_bufferIN4spot8acc_cond8acc_wordERNS_9allocatorIS3_EEE21_ConstructTransactionD2B7v160006Ev, symObjAddr: 0x10B24, symBinAddr: 0x100011A34, symSize: 0x20 }
  - { offsetInCU: 0x67CA0, offset: 0x67CA0, size: 0x8, addend: 0x0, symName: __ZNKSt3__111__move_loopINS_17_ClassicAlgPolicyEEclB7v160006INS_16reverse_iteratorIPN4spot8acc_cond8acc_wordEEES9_S9_EENS_4pairIT_T1_EESB_T0_SC_, symObjAddr: 0x10EF8, symBinAddr: 0x100011E08, symSize: 0xA0 }
  - { offsetInCU: 0x67D11, offset: 0x67D11, size: 0x8, addend: 0x0, symName: __ZNSt3__18_IterOpsINS_17_ClassicAlgPolicyEE11__iter_moveB7v160006IRNS_16reverse_iteratorIPN4spot8acc_cond8acc_wordEEEEENS_9enable_ifIXsr12is_referenceIDTdeclsr3stdE7declvalIRT_EEEEE5valueEDTclsr3stdE4movedeclsr3stdE7declvalISD_EEEEE4typeEOSC_, symObjAddr: 0x110E4, symBinAddr: 0x100011FF4, symSize: 0x28 }
  - { offsetInCU: 0x67D3D, offset: 0x67D3D, size: 0x8, addend: 0x0, symName: __ZNSt3__18_IterOpsINS_17_ClassicAlgPolicyEE25__validate_iter_referenceB7v160006IRNS_16reverse_iteratorIPN4spot8acc_cond8acc_wordEEEEEvv, symObjAddr: 0x1110C, symBinAddr: 0x10001201C, symSize: 0x4 }
  - { offsetInCU: 0x67D5B, offset: 0x67D5B, size: 0x8, addend: 0x0, symName: __ZNSt3__118__unwrap_iter_implINS_16reverse_iteratorIPN4spot8acc_cond8acc_wordEEELb0EE8__unwrapB7v160006ES6_, symObjAddr: 0x11110, symBinAddr: 0x100012020, symSize: 0x24 }
  - { offsetInCU: 0x67D84, offset: 0x67D84, size: 0x8, addend: 0x0, symName: __ZNSt3__14pairINS_16reverse_iteratorIPN4spot8acc_cond8acc_wordEEES6_EC1B7v160006IS6_S6_LPv0EEEOT_OT0_, symObjAddr: 0x11134, symBinAddr: 0x100012044, symSize: 0x3C }
  - { offsetInCU: 0x67DE2, offset: 0x67DE2, size: 0x8, addend: 0x0, symName: __ZNSt3__14pairINS_16reverse_iteratorIPN4spot8acc_cond8acc_wordEEES6_EC2B7v160006IS6_S6_LPv0EEEOT_OT0_, symObjAddr: 0x11170, symBinAddr: 0x100012080, symSize: 0x34 }
  - { offsetInCU: 0x67E40, offset: 0x67E40, size: 0x8, addend: 0x0, symName: __ZNSt3__118__unwrap_iter_implINS_16reverse_iteratorIPN4spot8acc_cond8acc_wordEEELb0EE8__rewrapB7v160006ES6_S6_, symObjAddr: 0x111A4, symBinAddr: 0x1000120B4, symSize: 0x2C }
  - { offsetInCU: 0x67E6D, offset: 0x67E6D, size: 0x8, addend: 0x0, symName: __ZNSt3__114__split_bufferIN4spot8acc_cond8acc_wordERNS_9allocatorIS3_EEED2Ev, symObjAddr: 0x111D0, symBinAddr: 0x1000120E0, symSize: 0x8C }
  - { offsetInCU: 0x67E99, offset: 0x67E99, size: 0x8, addend: 0x0, symName: __ZNSt3__114__split_bufferIN4spot8acc_cond8acc_wordERNS_9allocatorIS3_EEE5clearB7v160006Ev, symObjAddr: 0x1125C, symBinAddr: 0x10001216C, symSize: 0x28 }
  - { offsetInCU: 0x67EBF, offset: 0x67EBF, size: 0x8, addend: 0x0, symName: __ZNKSt3__114__split_bufferIN4spot8acc_cond8acc_wordERNS_9allocatorIS3_EEE8capacityB7v160006Ev, symObjAddr: 0x11284, symBinAddr: 0x100012194, symSize: 0x40 }
  - { offsetInCU: 0x67EE5, offset: 0x67EE5, size: 0x8, addend: 0x0, symName: __ZNSt3__114__split_bufferIN4spot8acc_cond8acc_wordERNS_9allocatorIS3_EEE17__destruct_at_endB7v160006EPS3_, symObjAddr: 0x112C4, symBinAddr: 0x1000121D4, symSize: 0x2C }
  - { offsetInCU: 0x67F19, offset: 0x67F19, size: 0x8, addend: 0x0, symName: __ZNSt3__114__split_bufferIN4spot8acc_cond8acc_wordERNS_9allocatorIS3_EEE17__destruct_at_endB7v160006EPS3_NS_17integral_constantIbLb0EEE, symObjAddr: 0x112F0, symBinAddr: 0x100012200, symSize: 0x80 }
  - { offsetInCU: 0x67F59, offset: 0x67F59, size: 0x8, addend: 0x0, symName: __ZNKSt3__114__split_bufferIN4spot8acc_cond8acc_wordERNS_9allocatorIS3_EEE9__end_capB7v160006Ev, symObjAddr: 0x11370, symBinAddr: 0x100012280, symSize: 0x28 }
  - { offsetInCU: 0x67F7F, offset: 0x67F7F, size: 0x8, addend: 0x0, symName: __ZNKSt3__117__compressed_pairIPN4spot8acc_cond8acc_wordERNS_9allocatorIS3_EEE5firstB7v160006Ev, symObjAddr: 0x11398, symBinAddr: 0x1000122A8, symSize: 0x24 }
  - { offsetInCU: 0x67FA5, offset: 0x67FA5, size: 0x8, addend: 0x0, symName: __ZNSt3__16vectorIN4spot8acc_cond8acc_wordENS_9allocatorIS3_EEE27__invalidate_iterators_pastB7v160006EPS3_, symObjAddr: 0x113BC, symBinAddr: 0x1000122CC, symSize: 0x14 }
  - { offsetInCU: 0x67FDC, offset: 0x67FDC, size: 0x8, addend: 0x0, symName: __ZNKSt3__16vectorIN4spot8acc_cond8acc_wordENS_9allocatorIS3_EEE17__annotate_shrinkB7v160006Em, symObjAddr: 0x113D0, symBinAddr: 0x1000122E0, symSize: 0xB4 }
  - { offsetInCU: 0x68011, offset: 0x68011, size: 0x8, addend: 0x0, symName: __ZN4spot8acc_cond8acc_codeD2Ev, symObjAddr: 0x11484, symBinAddr: 0x100012394, symSize: 0x2C }
  - { offsetInCU: 0x6803E, offset: 0x6803E, size: 0x8, addend: 0x0, symName: __ZNSt3__16vectorIN4spot8acc_cond8acc_wordENS_9allocatorIS3_EEED2B7v160006Ev, symObjAddr: 0x114B0, symBinAddr: 0x1000123C0, symSize: 0x44 }
  - { offsetInCU: 0x68068, offset: 0x68068, size: 0x8, addend: 0x0, symName: __ZN4spot8acc_cond8acc_codeaSERKS1_, symObjAddr: 0x114F4, symBinAddr: 0x100012404, symSize: 0x34 }
  - { offsetInCU: 0x6809A, offset: 0x6809A, size: 0x8, addend: 0x0, symName: __ZNSt3__16vectorIN4spot8acc_cond8acc_wordENS_9allocatorIS3_EEEaSB7v160006ERKS6_, symObjAddr: 0x11528, symBinAddr: 0x100012438, symSize: 0x68 }
  - { offsetInCU: 0x680D1, offset: 0x680D1, size: 0x8, addend: 0x0, symName: __ZNSt3__16vectorIN4spot8acc_cond8acc_wordENS_9allocatorIS3_EEE19__copy_assign_allocB7v160006ERKS6_, symObjAddr: 0x11590, symBinAddr: 0x1000124A0, symSize: 0x2C }
  - { offsetInCU: 0x68106, offset: 0x68106, size: 0x8, addend: 0x0, symName: __ZNSt3__16vectorIN4spot8acc_cond8acc_wordENS_9allocatorIS3_EEE6assignIPS3_Li0EEEvT_S9_, symObjAddr: 0x115BC, symBinAddr: 0x1000124CC, symSize: 0x17C }
  - { offsetInCU: 0x681A6, offset: 0x681A6, size: 0x8, addend: 0x0, symName: __ZNSt3__16vectorIN4spot8acc_cond8acc_wordENS_9allocatorIS3_EEE19__copy_assign_allocB7v160006ERKS6_NS_17integral_constantIbLb0EEE, symObjAddr: 0x11738, symBinAddr: 0x100012648, symSize: 0x14 }
  - { offsetInCU: 0x681E2, offset: 0x681E2, size: 0x8, addend: 0x0, symName: __ZNSt3__16vectorIN4spot8acc_cond8acc_wordENS_9allocatorIS3_EEE13__vdeallocateEv, symObjAddr: 0x11808, symBinAddr: 0x100012718, symSize: 0x8C }
  - { offsetInCU: 0x68230, offset: 0x68230, size: 0x8, addend: 0x0, symName: __ZNKSt3__114__copy_trivialclB7v160006IN4spot8acc_cond8acc_wordES4_Li0EEENS_4pairIPT_PT0_EES7_S7_S9_, symObjAddr: 0x11A94, symBinAddr: 0x1000129A4, symSize: 0x48 }
  - { offsetInCU: 0x6829E, offset: 0x6829E, size: 0x8, addend: 0x0, symName: __ZNSt3__14pairIPN4spot8acc_cond8acc_wordES4_EC1B7v160006IRS4_S4_LPv0EEEOT_OT0_, symObjAddr: 0x11C5C, symBinAddr: 0x100012B6C, symSize: 0x3C }
  - { offsetInCU: 0x682FC, offset: 0x682FC, size: 0x8, addend: 0x0, symName: __ZNSt3__14pairIPN4spot8acc_cond8acc_wordES4_EC2B7v160006IRS4_S4_LPv0EEEOT_OT0_, symObjAddr: 0x11C98, symBinAddr: 0x100012BA8, symSize: 0x34 }
  - { offsetInCU: 0x6835A, offset: 0x6835A, size: 0x8, addend: 0x0, symName: __ZNSt3__118__unwrap_iter_implIPN4spot8acc_cond8acc_wordELb1EE8__unwrapB7v160006ES4_, symObjAddr: 0x11CCC, symBinAddr: 0x100012BDC, symSize: 0x24 }
  - { offsetInCU: 0x6837D, offset: 0x6837D, size: 0x8, addend: 0x0, symName: __ZNSt3__14pairIPN4spot8acc_cond8acc_wordES4_EC1B7v160006IS4_S4_LPv0EEEOT_OT0_, symObjAddr: 0x11CF0, symBinAddr: 0x100012C00, symSize: 0x3C }
  - { offsetInCU: 0x683DB, offset: 0x683DB, size: 0x8, addend: 0x0, symName: __ZNSt3__14pairIPN4spot8acc_cond8acc_wordES4_EC2B7v160006IS4_S4_LPv0EEEOT_OT0_, symObjAddr: 0x11D2C, symBinAddr: 0x100012C3C, symSize: 0x34 }
  - { offsetInCU: 0x68439, offset: 0x68439, size: 0x8, addend: 0x0, symName: __ZNSt3__118__unwrap_iter_implIPN4spot8acc_cond8acc_wordELb1EE8__rewrapB7v160006ES4_S4_, symObjAddr: 0x11D60, symBinAddr: 0x100012C70, symSize: 0x50 }
  - { offsetInCU: 0x6846A, offset: 0x6846A, size: 0x8, addend: 0x0, symName: __ZNSt3__16vectorIN4spot8acc_cond8acc_wordENS_9allocatorIS3_EEE5clearB7v160006Ev, symObjAddr: 0x11DB0, symBinAddr: 0x100012CC0, symSize: 0x4C }
  - { offsetInCU: 0x6849F, offset: 0x6849F, size: 0x8, addend: 0x0, symName: __ZNK4spot8acc_cond4is_tEv, symObjAddr: 0x11DFC, symBinAddr: 0x100012D0C, symSize: 0x2C }
  - { offsetInCU: 0x684C5, offset: 0x684C5, size: 0x8, addend: 0x0, symName: __ZNK4spot8acc_cond8acc_code4is_tEv, symObjAddr: 0x11E28, symBinAddr: 0x100012D38, symSize: 0xB4 }
  - { offsetInCU: 0x684FA, offset: 0x684FA, size: 0x8, addend: 0x0, symName: __ZNK4spot8acc_cond6mark_tcvbEv, symObjAddr: 0x11EDC, symBinAddr: 0x100012DEC, symSize: 0x34 }
  - { offsetInCU: 0x68520, offset: 0x68520, size: 0x8, addend: 0x0, symName: __ZNK4spot6trivalcvbEv, symObjAddr: 0x11F10, symBinAddr: 0x100012E20, symSize: 0x24 }
  - { offsetInCU: 0x6854C, offset: 0x6854C, size: 0x8, addend: 0x0, symName: __ZNSt3__120__shared_ptr_emplaceIN4spot9twa_graphENS_9allocatorIS2_EEEC1B7v160006IJRKNS_10shared_ptrIS2_EERNS1_3twa8prop_setEEEES4_DpOT_, symObjAddr: 0x1201C, symBinAddr: 0x100012F2C, symSize: 0x3C }
  - { offsetInCU: 0x685B3, offset: 0x685B3, size: 0x8, addend: 0x0, symName: __ZNSt3__120__shared_ptr_emplaceIN4spot9twa_graphENS_9allocatorIS2_EEEC2B7v160006IJRKNS_10shared_ptrIS2_EERNS1_3twa8prop_setEEEES4_DpOT_, symObjAddr: 0x12058, symBinAddr: 0x100012F68, symSize: 0x108 }
  - { offsetInCU: 0x6861A, offset: 0x6861A, size: 0x8, addend: 0x0, symName: __ZN4spot9twa_graphC1ERKNSt3__110shared_ptrIKS0_EENS_3twa8prop_setE, symObjAddr: 0x12160, symBinAddr: 0x100013070, symSize: 0x5C }
  - { offsetInCU: 0x68660, offset: 0x68660, size: 0x8, addend: 0x0, symName: __ZN4spot9twa_graphC2ERKNSt3__110shared_ptrIKS0_EENS_3twa8prop_setE, symObjAddr: 0x121BC, symBinAddr: 0x1000130CC, symSize: 0x1EC }
  - { offsetInCU: 0x686A6, offset: 0x686A6, size: 0x8, addend: 0x0, symName: __ZNKSt3__110shared_ptrIKN4spot9twa_graphEEptB7v160006Ev, symObjAddr: 0x123A8, symBinAddr: 0x1000132B8, symSize: 0x18 }
  - { offsetInCU: 0x686D2, offset: 0x686D2, size: 0x8, addend: 0x0, symName: __ZN4spot7digraphINS_15twa_graph_stateENS_19twa_graph_edge_dataEEC1ERKS3_, symObjAddr: 0x123C0, symBinAddr: 0x1000132D0, symSize: 0x34 }
  - { offsetInCU: 0x68708, offset: 0x68708, size: 0x8, addend: 0x0, symName: __ZNSt3__110shared_ptrIKN4spot3twaEEC1B7v160006IKNS1_9twa_graphEvEERKNS0_IT_EE, symObjAddr: 0x123F4, symBinAddr: 0x100013304, symSize: 0x34 }
  - { offsetInCU: 0x6874B, offset: 0x6874B, size: 0x8, addend: 0x0, symName: __ZN4spot3twa9prop_copyERKNSt3__110shared_ptrIKS0_EENS0_8prop_setE, symObjAddr: 0x12428, symBinAddr: 0x100013338, symSize: 0x2E4 }
  - { offsetInCU: 0x6878F, offset: 0x6878F, size: 0x8, addend: 0x0, symName: __ZN4spot7digraphINS_15twa_graph_stateENS_19twa_graph_edge_dataEEC2ERKS3_, symObjAddr: 0x1270C, symBinAddr: 0x10001361C, symSize: 0xB4 }
  - { offsetInCU: 0x687C5, offset: 0x687C5, size: 0x8, addend: 0x0, symName: __ZNSt3__16vectorIN4spot8internal15distate_storageIjNS2_11boxed_labelINS1_15twa_graph_stateELb0EEEEENS_9allocatorIS7_EEEC1ERKSA_, symObjAddr: 0x127C0, symBinAddr: 0x1000136D0, symSize: 0x34 }
  - { offsetInCU: 0x68800, offset: 0x68800, size: 0x8, addend: 0x0, symName: __ZNSt3__16vectorIN4spot8internal12edge_storageIjjjNS2_11boxed_labelINS1_19twa_graph_edge_dataELb0EEEEENS_9allocatorIS7_EEEC1ERKSA_, symObjAddr: 0x127F4, symBinAddr: 0x100013704, symSize: 0x34 }
  - { offsetInCU: 0x6883B, offset: 0x6883B, size: 0x8, addend: 0x0, symName: __ZNSt3__16vectorIjNS_9allocatorIjEEEC1ERKS3_, symObjAddr: 0x12828, symBinAddr: 0x100013738, symSize: 0x34 }
  - { offsetInCU: 0x68876, offset: 0x68876, size: 0x8, addend: 0x0, symName: __ZNSt3__16vectorIN4spot8internal15distate_storageIjNS2_11boxed_labelINS1_15twa_graph_stateELb0EEEEENS_9allocatorIS7_EEEC2ERKSA_, symObjAddr: 0x1285C, symBinAddr: 0x10001376C, symSize: 0x110 }
  - { offsetInCU: 0x688D6, offset: 0x688D6, size: 0x8, addend: 0x0, symName: __ZNSt3__116allocator_traitsINS_9allocatorIN4spot8internal15distate_storageIjNS3_11boxed_labelINS2_15twa_graph_stateELb0EEEEEEEE37select_on_container_copy_constructionB7v160006IS9_vvEES9_RKS9_, symObjAddr: 0x1296C, symBinAddr: 0x10001387C, symSize: 0x10 }
  - { offsetInCU: 0x6890B, offset: 0x6890B, size: 0x8, addend: 0x0, symName: __ZNSt3__117__compressed_pairIPN4spot8internal15distate_storageIjNS2_11boxed_labelINS1_15twa_graph_stateELb0EEEEENS_9allocatorIS7_EEEC1B7v160006IDnSA_EEOT_OT0_, symObjAddr: 0x1297C, symBinAddr: 0x10001388C, symSize: 0x3C }
  - { offsetInCU: 0x68963, offset: 0x68963, size: 0x8, addend: 0x0, symName: __ZNSt3__16vectorIN4spot8internal15distate_storageIjNS2_11boxed_labelINS1_15twa_graph_stateELb0EEEEENS_9allocatorIS7_EEE11__vallocateB7v160006Em, symObjAddr: 0x129F8, symBinAddr: 0x100013908, symSize: 0xAC }
  - { offsetInCU: 0x689A7, offset: 0x689A7, size: 0x8, addend: 0x0, symName: __ZNSt3__16vectorIN4spot8internal15distate_storageIjNS2_11boxed_labelINS1_15twa_graph_stateELb0EEEEENS_9allocatorIS7_EEE18__construct_at_endIPS7_Li0EEEvT_SD_m, symObjAddr: 0x12AA4, symBinAddr: 0x1000139B4, symSize: 0x8C }
  - { offsetInCU: 0x68A1A, offset: 0x68A1A, size: 0x8, addend: 0x0, symName: __ZNSt3__128__exception_guard_exceptionsINS_6vectorIN4spot8internal15distate_storageIjNS3_11boxed_labelINS2_15twa_graph_stateELb0EEEEENS_9allocatorIS8_EEE16__destroy_vectorEE10__completeB7v160006Ev, symObjAddr: 0x12B30, symBinAddr: 0x100013A40, symSize: 0x1C }
  - { offsetInCU: 0x68A40, offset: 0x68A40, size: 0x8, addend: 0x0, symName: __ZNSt3__128__exception_guard_exceptionsINS_6vectorIN4spot8internal15distate_storageIjNS3_11boxed_labelINS2_15twa_graph_stateELb0EEEEENS_9allocatorIS8_EEE16__destroy_vectorEED1B7v160006Ev, symObjAddr: 0x12B4C, symBinAddr: 0x100013A5C, symSize: 0x2C }
  - { offsetInCU: 0x68A6A, offset: 0x68A6A, size: 0x8, addend: 0x0, symName: __ZNSt3__117__compressed_pairIPN4spot8internal15distate_storageIjNS2_11boxed_labelINS1_15twa_graph_stateELb0EEEEENS_9allocatorIS7_EEEC2B7v160006IDnSA_EEOT_OT0_, symObjAddr: 0x12B78, symBinAddr: 0x100013A88, symSize: 0x44 }
  - { offsetInCU: 0x68AC2, offset: 0x68AC2, size: 0x8, addend: 0x0, symName: __ZNSt3__122__compressed_pair_elemINS_9allocatorIN4spot8internal15distate_storageIjNS3_11boxed_labelINS2_15twa_graph_stateELb0EEEEEEELi1ELb1EEC2B7v160006IS9_vEEOT_, symObjAddr: 0x12BBC, symBinAddr: 0x100013ACC, symSize: 0x18 }
  - { offsetInCU: 0x68B04, offset: 0x68B04, size: 0x8, addend: 0x0, symName: __ZNSt3__128__exception_guard_exceptionsINS_6vectorIN4spot8internal15distate_storageIjNS3_11boxed_labelINS2_15twa_graph_stateELb0EEEEENS_9allocatorIS8_EEE16__destroy_vectorEEC1B7v160006ESC_, symObjAddr: 0x12BD4, symBinAddr: 0x100013AE4, symSize: 0x34 }
  - { offsetInCU: 0x68B3C, offset: 0x68B3C, size: 0x8, addend: 0x0, symName: __ZNSt3__128__exception_guard_exceptionsINS_6vectorIN4spot8internal15distate_storageIjNS3_11boxed_labelINS2_15twa_graph_stateELb0EEEEENS_9allocatorIS8_EEE16__destroy_vectorEEC2B7v160006ESC_, symObjAddr: 0x12C08, symBinAddr: 0x100013B18, symSize: 0x24 }
  - { offsetInCU: 0x68B74, offset: 0x68B74, size: 0x8, addend: 0x0, symName: __ZNSt3__129_AllocatorDestroyRangeReverseINS_9allocatorIN4spot8internal15distate_storageIjNS3_11boxed_labelINS2_15twa_graph_stateELb0EEEEEEEPS8_EC1B7v160006ERS9_RSA_SD_, symObjAddr: 0x12D6C, symBinAddr: 0x100013C7C, symSize: 0x44 }
  - { offsetInCU: 0x68BCB, offset: 0x68BCB, size: 0x8, addend: 0x0, symName: __ZNSt3__116allocator_traitsINS_9allocatorIN4spot8internal15distate_storageIjNS3_11boxed_labelINS2_15twa_graph_stateELb0EEEEEEEE9constructB7v160006IS8_JRS8_EvEEvRS9_PT_DpOT0_, symObjAddr: 0x12DB0, symBinAddr: 0x100013CC0, symSize: 0x34 }
  - { offsetInCU: 0x68C22, offset: 0x68C22, size: 0x8, addend: 0x0, symName: __ZNSt3__128__exception_guard_exceptionsINS_29_AllocatorDestroyRangeReverseINS_9allocatorIN4spot8internal15distate_storageIjNS4_11boxed_labelINS3_15twa_graph_stateELb0EEEEEEEPS9_EEE10__completeB7v160006Ev, symObjAddr: 0x12DE4, symBinAddr: 0x100013CF4, symSize: 0x1C }
  - { offsetInCU: 0x68C48, offset: 0x68C48, size: 0x8, addend: 0x0, symName: __ZNSt3__128__exception_guard_exceptionsINS_29_AllocatorDestroyRangeReverseINS_9allocatorIN4spot8internal15distate_storageIjNS4_11boxed_labelINS3_15twa_graph_stateELb0EEEEEEEPS9_EEED1B7v160006Ev, symObjAddr: 0x12E00, symBinAddr: 0x100013D10, symSize: 0x2C }
  - { offsetInCU: 0x68C72, offset: 0x68C72, size: 0x8, addend: 0x0, symName: __ZNSt3__128__exception_guard_exceptionsINS_29_AllocatorDestroyRangeReverseINS_9allocatorIN4spot8internal15distate_storageIjNS4_11boxed_labelINS3_15twa_graph_stateELb0EEEEEEEPS9_EEEC1B7v160006ESC_, symObjAddr: 0x12E2C, symBinAddr: 0x100013D3C, symSize: 0x34 }
  - { offsetInCU: 0x68CAB, offset: 0x68CAB, size: 0x8, addend: 0x0, symName: __ZNSt3__128__exception_guard_exceptionsINS_29_AllocatorDestroyRangeReverseINS_9allocatorIN4spot8internal15distate_storageIjNS4_11boxed_labelINS3_15twa_graph_stateELb0EEEEEEEPS9_EEEC2B7v160006ESC_, symObjAddr: 0x12E60, symBinAddr: 0x100013D70, symSize: 0x30 }
  - { offsetInCU: 0x68CE4, offset: 0x68CE4, size: 0x8, addend: 0x0, symName: __ZNSt3__129_AllocatorDestroyRangeReverseINS_9allocatorIN4spot8internal15distate_storageIjNS3_11boxed_labelINS2_15twa_graph_stateELb0EEEEEEEPS8_EC2B7v160006ERS9_RSA_SD_, symObjAddr: 0x12E90, symBinAddr: 0x100013DA0, symSize: 0x38 }
  - { offsetInCU: 0x68D3B, offset: 0x68D3B, size: 0x8, addend: 0x0, symName: __ZNSt3__19allocatorIN4spot8internal15distate_storageIjNS2_11boxed_labelINS1_15twa_graph_stateELb0EEEEEE9constructB7v160006IS7_JRS7_EEEvPT_DpOT0_, symObjAddr: 0x12EC8, symBinAddr: 0x100013DD8, symSize: 0x30 }
  - { offsetInCU: 0x68D91, offset: 0x68D91, size: 0x8, addend: 0x0, symName: __ZN4spot8internal15distate_storageIjNS0_11boxed_labelINS_15twa_graph_stateELb0EEEEC1ERKS5_, symObjAddr: 0x12EF8, symBinAddr: 0x100013E08, symSize: 0x34 }
  - { offsetInCU: 0x68DC6, offset: 0x68DC6, size: 0x8, addend: 0x0, symName: __ZN4spot8internal15distate_storageIjNS0_11boxed_labelINS_15twa_graph_stateELb0EEEEC2ERKS5_, symObjAddr: 0x12F2C, symBinAddr: 0x100013E3C, symSize: 0x58 }
  - { offsetInCU: 0x68E01, offset: 0x68E01, size: 0x8, addend: 0x0, symName: __ZN4spot8internal11boxed_labelINS_15twa_graph_stateELb0EEC2ERKS3_, symObjAddr: 0x12F84, symBinAddr: 0x100013E94, symSize: 0x4C }
  - { offsetInCU: 0x68E36, offset: 0x68E36, size: 0x8, addend: 0x0, symName: __ZNSt3__128__exception_guard_exceptionsINS_29_AllocatorDestroyRangeReverseINS_9allocatorIN4spot8internal15distate_storageIjNS4_11boxed_labelINS3_15twa_graph_stateELb0EEEEEEEPS9_EEED2B7v160006Ev, symObjAddr: 0x12FD0, symBinAddr: 0x100013EE0, symSize: 0x50 }
  - { offsetInCU: 0x68E60, offset: 0x68E60, size: 0x8, addend: 0x0, symName: __ZNKSt3__129_AllocatorDestroyRangeReverseINS_9allocatorIN4spot8internal15distate_storageIjNS3_11boxed_labelINS2_15twa_graph_stateELb0EEEEEEEPS8_EclB7v160006Ev, symObjAddr: 0x13020, symBinAddr: 0x100013F30, symSize: 0x68 }
  - { offsetInCU: 0x68E86, offset: 0x68E86, size: 0x8, addend: 0x0, symName: __ZNSt3__128__exception_guard_exceptionsINS_6vectorIN4spot8internal15distate_storageIjNS3_11boxed_labelINS2_15twa_graph_stateELb0EEEEENS_9allocatorIS8_EEE16__destroy_vectorEED2B7v160006Ev, symObjAddr: 0x130F8, symBinAddr: 0x100014008, symSize: 0x50 }
  - { offsetInCU: 0x68EB0, offset: 0x68EB0, size: 0x8, addend: 0x0, symName: __ZNSt3__16vectorIN4spot8internal12edge_storageIjjjNS2_11boxed_labelINS1_19twa_graph_edge_dataELb0EEEEENS_9allocatorIS7_EEEC2ERKSA_, symObjAddr: 0x13148, symBinAddr: 0x100014058, symSize: 0x110 }
  - { offsetInCU: 0x68F10, offset: 0x68F10, size: 0x8, addend: 0x0, symName: __ZNSt3__116allocator_traitsINS_9allocatorIN4spot8internal12edge_storageIjjjNS3_11boxed_labelINS2_19twa_graph_edge_dataELb0EEEEEEEE37select_on_container_copy_constructionB7v160006IS9_vvEES9_RKS9_, symObjAddr: 0x13258, symBinAddr: 0x100014168, symSize: 0x10 }
  - { offsetInCU: 0x68F45, offset: 0x68F45, size: 0x8, addend: 0x0, symName: __ZNSt3__117__compressed_pairIPN4spot8internal12edge_storageIjjjNS2_11boxed_labelINS1_19twa_graph_edge_dataELb0EEEEENS_9allocatorIS7_EEEC1B7v160006IDnSA_EEOT_OT0_, symObjAddr: 0x13268, symBinAddr: 0x100014178, symSize: 0x3C }
  - { offsetInCU: 0x68F9D, offset: 0x68F9D, size: 0x8, addend: 0x0, symName: __ZNSt3__16vectorIN4spot8internal12edge_storageIjjjNS2_11boxed_labelINS1_19twa_graph_edge_dataELb0EEEEENS_9allocatorIS7_EEE11__vallocateB7v160006Em, symObjAddr: 0x132E4, symBinAddr: 0x1000141F4, symSize: 0xB4 }
  - { offsetInCU: 0x68FE1, offset: 0x68FE1, size: 0x8, addend: 0x0, symName: __ZNSt3__16vectorIN4spot8internal12edge_storageIjjjNS2_11boxed_labelINS1_19twa_graph_edge_dataELb0EEEEENS_9allocatorIS7_EEE18__construct_at_endIPS7_Li0EEEvT_SD_m, symObjAddr: 0x13398, symBinAddr: 0x1000142A8, symSize: 0x8C }
  - { offsetInCU: 0x69054, offset: 0x69054, size: 0x8, addend: 0x0, symName: __ZNSt3__128__exception_guard_exceptionsINS_6vectorIN4spot8internal12edge_storageIjjjNS3_11boxed_labelINS2_19twa_graph_edge_dataELb0EEEEENS_9allocatorIS8_EEE16__destroy_vectorEE10__completeB7v160006Ev, symObjAddr: 0x13424, symBinAddr: 0x100014334, symSize: 0x1C }
  - { offsetInCU: 0x6907A, offset: 0x6907A, size: 0x8, addend: 0x0, symName: __ZNSt3__128__exception_guard_exceptionsINS_6vectorIN4spot8internal12edge_storageIjjjNS3_11boxed_labelINS2_19twa_graph_edge_dataELb0EEEEENS_9allocatorIS8_EEE16__destroy_vectorEED1B7v160006Ev, symObjAddr: 0x13440, symBinAddr: 0x100014350, symSize: 0x2C }
  - { offsetInCU: 0x690A4, offset: 0x690A4, size: 0x8, addend: 0x0, symName: __ZNSt3__117__compressed_pairIPN4spot8internal12edge_storageIjjjNS2_11boxed_labelINS1_19twa_graph_edge_dataELb0EEEEENS_9allocatorIS7_EEEC2B7v160006IDnSA_EEOT_OT0_, symObjAddr: 0x1346C, symBinAddr: 0x10001437C, symSize: 0x44 }
  - { offsetInCU: 0x690FC, offset: 0x690FC, size: 0x8, addend: 0x0, symName: __ZNSt3__122__compressed_pair_elemINS_9allocatorIN4spot8internal12edge_storageIjjjNS3_11boxed_labelINS2_19twa_graph_edge_dataELb0EEEEEEELi1ELb1EEC2B7v160006IS9_vEEOT_, symObjAddr: 0x134B0, symBinAddr: 0x1000143C0, symSize: 0x18 }
  - { offsetInCU: 0x6913E, offset: 0x6913E, size: 0x8, addend: 0x0, symName: __ZNSt3__128__exception_guard_exceptionsINS_6vectorIN4spot8internal12edge_storageIjjjNS3_11boxed_labelINS2_19twa_graph_edge_dataELb0EEEEENS_9allocatorIS8_EEE16__destroy_vectorEEC1B7v160006ESC_, symObjAddr: 0x134C8, symBinAddr: 0x1000143D8, symSize: 0x34 }
  - { offsetInCU: 0x69176, offset: 0x69176, size: 0x8, addend: 0x0, symName: __ZNSt3__128__exception_guard_exceptionsINS_6vectorIN4spot8internal12edge_storageIjjjNS3_11boxed_labelINS2_19twa_graph_edge_dataELb0EEEEENS_9allocatorIS8_EEE16__destroy_vectorEEC2B7v160006ESC_, symObjAddr: 0x134FC, symBinAddr: 0x10001440C, symSize: 0x24 }
  - { offsetInCU: 0x691AE, offset: 0x691AE, size: 0x8, addend: 0x0, symName: __ZNSt3__129_AllocatorDestroyRangeReverseINS_9allocatorIN4spot8internal12edge_storageIjjjNS3_11boxed_labelINS2_19twa_graph_edge_dataELb0EEEEEEEPS8_EC1B7v160006ERS9_RSA_SD_, symObjAddr: 0x13660, symBinAddr: 0x100014570, symSize: 0x44 }
  - { offsetInCU: 0x69205, offset: 0x69205, size: 0x8, addend: 0x0, symName: __ZNSt3__116allocator_traitsINS_9allocatorIN4spot8internal12edge_storageIjjjNS3_11boxed_labelINS2_19twa_graph_edge_dataELb0EEEEEEEE9constructB7v160006IS8_JRS8_EvEEvRS9_PT_DpOT0_, symObjAddr: 0x136A4, symBinAddr: 0x1000145B4, symSize: 0x34 }
  - { offsetInCU: 0x6925C, offset: 0x6925C, size: 0x8, addend: 0x0, symName: __ZNSt3__128__exception_guard_exceptionsINS_29_AllocatorDestroyRangeReverseINS_9allocatorIN4spot8internal12edge_storageIjjjNS4_11boxed_labelINS3_19twa_graph_edge_dataELb0EEEEEEEPS9_EEE10__completeB7v160006Ev, symObjAddr: 0x136D8, symBinAddr: 0x1000145E8, symSize: 0x1C }
  - { offsetInCU: 0x69282, offset: 0x69282, size: 0x8, addend: 0x0, symName: __ZNSt3__128__exception_guard_exceptionsINS_29_AllocatorDestroyRangeReverseINS_9allocatorIN4spot8internal12edge_storageIjjjNS4_11boxed_labelINS3_19twa_graph_edge_dataELb0EEEEEEEPS9_EEED1B7v160006Ev, symObjAddr: 0x136F4, symBinAddr: 0x100014604, symSize: 0x2C }
  - { offsetInCU: 0x692AC, offset: 0x692AC, size: 0x8, addend: 0x0, symName: __ZNSt3__128__exception_guard_exceptionsINS_29_AllocatorDestroyRangeReverseINS_9allocatorIN4spot8internal12edge_storageIjjjNS4_11boxed_labelINS3_19twa_graph_edge_dataELb0EEEEEEEPS9_EEEC1B7v160006ESC_, symObjAddr: 0x13720, symBinAddr: 0x100014630, symSize: 0x34 }
  - { offsetInCU: 0x692E5, offset: 0x692E5, size: 0x8, addend: 0x0, symName: __ZNSt3__128__exception_guard_exceptionsINS_29_AllocatorDestroyRangeReverseINS_9allocatorIN4spot8internal12edge_storageIjjjNS4_11boxed_labelINS3_19twa_graph_edge_dataELb0EEEEEEEPS9_EEEC2B7v160006ESC_, symObjAddr: 0x13754, symBinAddr: 0x100014664, symSize: 0x30 }
  - { offsetInCU: 0x6931E, offset: 0x6931E, size: 0x8, addend: 0x0, symName: __ZNSt3__129_AllocatorDestroyRangeReverseINS_9allocatorIN4spot8internal12edge_storageIjjjNS3_11boxed_labelINS2_19twa_graph_edge_dataELb0EEEEEEEPS8_EC2B7v160006ERS9_RSA_SD_, symObjAddr: 0x13784, symBinAddr: 0x100014694, symSize: 0x38 }
  - { offsetInCU: 0x69375, offset: 0x69375, size: 0x8, addend: 0x0, symName: __ZNSt3__19allocatorIN4spot8internal12edge_storageIjjjNS2_11boxed_labelINS1_19twa_graph_edge_dataELb0EEEEEE9constructB7v160006IS7_JRS7_EEEvPT_DpOT0_, symObjAddr: 0x137BC, symBinAddr: 0x1000146CC, symSize: 0x30 }
  - { offsetInCU: 0x693CB, offset: 0x693CB, size: 0x8, addend: 0x0, symName: __ZNSt3__128__exception_guard_exceptionsINS_29_AllocatorDestroyRangeReverseINS_9allocatorIN4spot8internal12edge_storageIjjjNS4_11boxed_labelINS3_19twa_graph_edge_dataELb0EEEEEEEPS9_EEED2B7v160006Ev, symObjAddr: 0x137EC, symBinAddr: 0x1000146FC, symSize: 0x50 }
  - { offsetInCU: 0x693F5, offset: 0x693F5, size: 0x8, addend: 0x0, symName: __ZNKSt3__129_AllocatorDestroyRangeReverseINS_9allocatorIN4spot8internal12edge_storageIjjjNS3_11boxed_labelINS2_19twa_graph_edge_dataELb0EEEEEEEPS8_EclB7v160006Ev, symObjAddr: 0x1383C, symBinAddr: 0x10001474C, symSize: 0x68 }
  - { offsetInCU: 0x6941B, offset: 0x6941B, size: 0x8, addend: 0x0, symName: __ZNSt3__128__exception_guard_exceptionsINS_6vectorIN4spot8internal12edge_storageIjjjNS3_11boxed_labelINS2_19twa_graph_edge_dataELb0EEEEENS_9allocatorIS8_EEE16__destroy_vectorEED2B7v160006Ev, symObjAddr: 0x13914, symBinAddr: 0x100014824, symSize: 0x50 }
  - { offsetInCU: 0x69445, offset: 0x69445, size: 0x8, addend: 0x0, symName: __ZNSt3__16vectorIjNS_9allocatorIjEEEC2ERKS3_, symObjAddr: 0x13964, symBinAddr: 0x100014874, symSize: 0x114 }
  - { offsetInCU: 0x694B0, offset: 0x694B0, size: 0x8, addend: 0x0, symName: __ZNSt3__116allocator_traitsINS_9allocatorIjEEE37select_on_container_copy_constructionB7v160006IS2_vvEES2_RKS2_, symObjAddr: 0x13A78, symBinAddr: 0x100014988, symSize: 0x10 }
  - { offsetInCU: 0x694DF, offset: 0x694DF, size: 0x8, addend: 0x0, symName: __ZNKSt3__16vectorIjNS_9allocatorIjEEE7__allocB7v160006Ev, symObjAddr: 0x13A88, symBinAddr: 0x100014998, symSize: 0x28 }
  - { offsetInCU: 0x6950B, offset: 0x6950B, size: 0x8, addend: 0x0, symName: __ZNSt3__117__compressed_pairIPjNS_9allocatorIjEEEC1B7v160006IDnS3_EEOT_OT0_, symObjAddr: 0x13AB0, symBinAddr: 0x1000149C0, symSize: 0x3C }
  - { offsetInCU: 0x69563, offset: 0x69563, size: 0x8, addend: 0x0, symName: __ZNSt3__16vectorIjNS_9allocatorIjEEE16__destroy_vectorC1ERS3_, symObjAddr: 0x13B2C, symBinAddr: 0x100014A3C, symSize: 0x34 }
  - { offsetInCU: 0x6959C, offset: 0x6959C, size: 0x8, addend: 0x0, symName: __ZNKSt3__16vectorIjNS_9allocatorIjEEE4sizeB7v160006Ev, symObjAddr: 0x13B70, symBinAddr: 0x100014A80, symSize: 0x28 }
  - { offsetInCU: 0x695C2, offset: 0x695C2, size: 0x8, addend: 0x0, symName: __ZNSt3__16vectorIjNS_9allocatorIjEEE11__vallocateB7v160006Em, symObjAddr: 0x13B98, symBinAddr: 0x100014AA8, symSize: 0xAC }
  - { offsetInCU: 0x69606, offset: 0x69606, size: 0x8, addend: 0x0, symName: __ZNSt3__16vectorIjNS_9allocatorIjEEE18__construct_at_endIPjLi0EEEvT_S6_m, symObjAddr: 0x13C44, symBinAddr: 0x100014B54, symSize: 0x8C }
  - { offsetInCU: 0x69679, offset: 0x69679, size: 0x8, addend: 0x0, symName: __ZNSt3__128__exception_guard_exceptionsINS_6vectorIjNS_9allocatorIjEEE16__destroy_vectorEE10__completeB7v160006Ev, symObjAddr: 0x13CD0, symBinAddr: 0x100014BE0, symSize: 0x1C }
  - { offsetInCU: 0x6969F, offset: 0x6969F, size: 0x8, addend: 0x0, symName: __ZNSt3__128__exception_guard_exceptionsINS_6vectorIjNS_9allocatorIjEEE16__destroy_vectorEED1B7v160006Ev, symObjAddr: 0x13CEC, symBinAddr: 0x100014BFC, symSize: 0x2C }
  - { offsetInCU: 0x696C9, offset: 0x696C9, size: 0x8, addend: 0x0, symName: __ZNKSt3__117__compressed_pairIPjNS_9allocatorIjEEE6secondB7v160006Ev, symObjAddr: 0x13D18, symBinAddr: 0x100014C28, symSize: 0x24 }
  - { offsetInCU: 0x696EF, offset: 0x696EF, size: 0x8, addend: 0x0, symName: __ZNKSt3__122__compressed_pair_elemINS_9allocatorIjEELi1ELb1EE5__getB7v160006Ev, symObjAddr: 0x13D3C, symBinAddr: 0x100014C4C, symSize: 0x14 }
  - { offsetInCU: 0x69715, offset: 0x69715, size: 0x8, addend: 0x0, symName: __ZNSt3__117__compressed_pairIPjNS_9allocatorIjEEEC2B7v160006IDnS3_EEOT_OT0_, symObjAddr: 0x13D50, symBinAddr: 0x100014C60, symSize: 0x44 }
  - { offsetInCU: 0x6976D, offset: 0x6976D, size: 0x8, addend: 0x0, symName: __ZNSt3__122__compressed_pair_elemIPjLi0ELb0EEC2B7v160006IDnvEEOT_, symObjAddr: 0x13D94, symBinAddr: 0x100014CA4, symSize: 0x1C }
  - { offsetInCU: 0x697AF, offset: 0x697AF, size: 0x8, addend: 0x0, symName: __ZNSt3__122__compressed_pair_elemINS_9allocatorIjEELi1ELb1EEC2B7v160006IS2_vEEOT_, symObjAddr: 0x13DB0, symBinAddr: 0x100014CC0, symSize: 0x18 }
  - { offsetInCU: 0x697F1, offset: 0x697F1, size: 0x8, addend: 0x0, symName: __ZNSt3__128__exception_guard_exceptionsINS_6vectorIjNS_9allocatorIjEEE16__destroy_vectorEEC1B7v160006ES5_, symObjAddr: 0x13DC8, symBinAddr: 0x100014CD8, symSize: 0x34 }
  - { offsetInCU: 0x69829, offset: 0x69829, size: 0x8, addend: 0x0, symName: __ZNSt3__128__exception_guard_exceptionsINS_6vectorIjNS_9allocatorIjEEE16__destroy_vectorEEC2B7v160006ES5_, symObjAddr: 0x13DFC, symBinAddr: 0x100014D0C, symSize: 0x24 }
  - { offsetInCU: 0x69861, offset: 0x69861, size: 0x8, addend: 0x0, symName: __ZNSt3__16vectorIjNS_9allocatorIjEEE16__destroy_vectorC2ERS3_, symObjAddr: 0x13E20, symBinAddr: 0x100014D30, symSize: 0x20 }
  - { offsetInCU: 0x6989A, offset: 0x6989A, size: 0x8, addend: 0x0, symName: __ZNKSt3__16vectorIjNS_9allocatorIjEEE8max_sizeEv, symObjAddr: 0x13E40, symBinAddr: 0x100014D50, symSize: 0x60 }
  - { offsetInCU: 0x698C2, offset: 0x698C2, size: 0x8, addend: 0x0, symName: __ZNKSt3__16vectorIjNS_9allocatorIjEEE20__throw_length_errorB7v160006Ev, symObjAddr: 0x13EA0, symBinAddr: 0x100014DB0, symSize: 0x1C }
  - { offsetInCU: 0x698E8, offset: 0x698E8, size: 0x8, addend: 0x0, symName: __ZNSt3__16vectorIjNS_9allocatorIjEEE7__allocB7v160006Ev, symObjAddr: 0x13EFC, symBinAddr: 0x100014E0C, symSize: 0x28 }
  - { offsetInCU: 0x6990E, offset: 0x6990E, size: 0x8, addend: 0x0, symName: __ZNSt3__16vectorIjNS_9allocatorIjEEE9__end_capB7v160006Ev, symObjAddr: 0x13F24, symBinAddr: 0x100014E34, symSize: 0x28 }
  - { offsetInCU: 0x69934, offset: 0x69934, size: 0x8, addend: 0x0, symName: __ZNKSt3__16vectorIjNS_9allocatorIjEEE14__annotate_newB7v160006Em, symObjAddr: 0x13F4C, symBinAddr: 0x100014E5C, symSize: 0xAC }
  - { offsetInCU: 0x69969, offset: 0x69969, size: 0x8, addend: 0x0, symName: __ZNSt3__116allocator_traitsINS_9allocatorIjEEE8max_sizeB7v160006IS2_vEEmRKS2_, symObjAddr: 0x13FF8, symBinAddr: 0x100014F08, symSize: 0x24 }
  - { offsetInCU: 0x69997, offset: 0x69997, size: 0x8, addend: 0x0, symName: __ZNKSt3__19allocatorIjE8max_sizeB7v160006Ev, symObjAddr: 0x1401C, symBinAddr: 0x100014F2C, symSize: 0x14 }
  - { offsetInCU: 0x699BD, offset: 0x699BD, size: 0x8, addend: 0x0, symName: __ZNSt3__19allocatorIjE8allocateB7v160006Em, symObjAddr: 0x14030, symBinAddr: 0x100014F40, symSize: 0x58 }
  - { offsetInCU: 0x699F1, offset: 0x699F1, size: 0x8, addend: 0x0, symName: __ZNSt3__117__compressed_pairIPjNS_9allocatorIjEEE6secondB7v160006Ev, symObjAddr: 0x14088, symBinAddr: 0x100014F98, symSize: 0x24 }
  - { offsetInCU: 0x69A17, offset: 0x69A17, size: 0x8, addend: 0x0, symName: __ZNSt3__122__compressed_pair_elemINS_9allocatorIjEELi1ELb1EE5__getB7v160006Ev, symObjAddr: 0x140AC, symBinAddr: 0x100014FBC, symSize: 0x14 }
  - { offsetInCU: 0x69A3D, offset: 0x69A3D, size: 0x8, addend: 0x0, symName: __ZNSt3__117__compressed_pairIPjNS_9allocatorIjEEE5firstB7v160006Ev, symObjAddr: 0x140C0, symBinAddr: 0x100014FD0, symSize: 0x24 }
  - { offsetInCU: 0x69A63, offset: 0x69A63, size: 0x8, addend: 0x0, symName: __ZNSt3__122__compressed_pair_elemIPjLi0ELb0EE5__getB7v160006Ev, symObjAddr: 0x140E4, symBinAddr: 0x100014FF4, symSize: 0x14 }
  - { offsetInCU: 0x69A89, offset: 0x69A89, size: 0x8, addend: 0x0, symName: __ZNKSt3__16vectorIjNS_9allocatorIjEEE31__annotate_contiguous_containerB7v160006EPKvS5_S5_S5_, symObjAddr: 0x140F8, symBinAddr: 0x100015008, symSize: 0x20 }
  - { offsetInCU: 0x69ADB, offset: 0x69ADB, size: 0x8, addend: 0x0, symName: __ZNKSt3__16vectorIjNS_9allocatorIjEEE8capacityB7v160006Ev, symObjAddr: 0x14118, symBinAddr: 0x100015028, symSize: 0x40 }
  - { offsetInCU: 0x69B01, offset: 0x69B01, size: 0x8, addend: 0x0, symName: __ZNKSt3__16vectorIjNS_9allocatorIjEEE9__end_capB7v160006Ev, symObjAddr: 0x14158, symBinAddr: 0x100015068, symSize: 0x28 }
  - { offsetInCU: 0x69B27, offset: 0x69B27, size: 0x8, addend: 0x0, symName: __ZNKSt3__117__compressed_pairIPjNS_9allocatorIjEEE5firstB7v160006Ev, symObjAddr: 0x14180, symBinAddr: 0x100015090, symSize: 0x24 }
  - { offsetInCU: 0x69B4D, offset: 0x69B4D, size: 0x8, addend: 0x0, symName: __ZNKSt3__122__compressed_pair_elemIPjLi0ELb0EE5__getB7v160006Ev, symObjAddr: 0x141A4, symBinAddr: 0x1000150B4, symSize: 0x14 }
  - { offsetInCU: 0x69B8E, offset: 0x69B8E, size: 0x8, addend: 0x0, symName: __ZNSt3__16vectorIjNS_9allocatorIjEEE21_ConstructTransactionC1B7v160006ERS3_m, symObjAddr: 0x141B8, symBinAddr: 0x1000150C8, symSize: 0x3C }
  - { offsetInCU: 0x69BD6, offset: 0x69BD6, size: 0x8, addend: 0x0, symName: __ZNSt3__16vectorIjNS_9allocatorIjEEE21_ConstructTransactionD1B7v160006Ev, symObjAddr: 0x142E8, symBinAddr: 0x1000151F8, symSize: 0x2C }
  - { offsetInCU: 0x69C00, offset: 0x69C00, size: 0x8, addend: 0x0, symName: __ZNSt3__16vectorIjNS_9allocatorIjEEE21_ConstructTransactionC2B7v160006ERS3_m, symObjAddr: 0x14314, symBinAddr: 0x100015224, symSize: 0x44 }
  - { offsetInCU: 0x69C48, offset: 0x69C48, size: 0x8, addend: 0x0, symName: __ZNSt3__129_AllocatorDestroyRangeReverseINS_9allocatorIjEEPjEC1B7v160006ERS2_RS3_S6_, symObjAddr: 0x143A4, symBinAddr: 0x1000152B4, symSize: 0x44 }
  - { offsetInCU: 0x69C9F, offset: 0x69C9F, size: 0x8, addend: 0x0, symName: __ZNSt3__116allocator_traitsINS_9allocatorIjEEE9constructB7v160006IjJRjEvEEvRS2_PT_DpOT0_, symObjAddr: 0x143E8, symBinAddr: 0x1000152F8, symSize: 0x34 }
  - { offsetInCU: 0x69CF6, offset: 0x69CF6, size: 0x8, addend: 0x0, symName: __ZNSt3__128__exception_guard_exceptionsINS_29_AllocatorDestroyRangeReverseINS_9allocatorIjEEPjEEE10__completeB7v160006Ev, symObjAddr: 0x1441C, symBinAddr: 0x10001532C, symSize: 0x1C }
  - { offsetInCU: 0x69D1C, offset: 0x69D1C, size: 0x8, addend: 0x0, symName: __ZNSt3__128__exception_guard_exceptionsINS_29_AllocatorDestroyRangeReverseINS_9allocatorIjEEPjEEED1B7v160006Ev, symObjAddr: 0x14438, symBinAddr: 0x100015348, symSize: 0x2C }
  - { offsetInCU: 0x69D46, offset: 0x69D46, size: 0x8, addend: 0x0, symName: __ZNSt3__128__exception_guard_exceptionsINS_29_AllocatorDestroyRangeReverseINS_9allocatorIjEEPjEEEC1B7v160006ES5_, symObjAddr: 0x14464, symBinAddr: 0x100015374, symSize: 0x34 }
  - { offsetInCU: 0x69D7F, offset: 0x69D7F, size: 0x8, addend: 0x0, symName: __ZNSt3__128__exception_guard_exceptionsINS_29_AllocatorDestroyRangeReverseINS_9allocatorIjEEPjEEEC2B7v160006ES5_, symObjAddr: 0x14498, symBinAddr: 0x1000153A8, symSize: 0x30 }
  - { offsetInCU: 0x69DB8, offset: 0x69DB8, size: 0x8, addend: 0x0, symName: __ZNSt3__129_AllocatorDestroyRangeReverseINS_9allocatorIjEEPjEC2B7v160006ERS2_RS3_S6_, symObjAddr: 0x144C8, symBinAddr: 0x1000153D8, symSize: 0x38 }
  - { offsetInCU: 0x69E0F, offset: 0x69E0F, size: 0x8, addend: 0x0, symName: __ZNSt3__19allocatorIjE9constructB7v160006IjJRjEEEvPT_DpOT0_, symObjAddr: 0x14500, symBinAddr: 0x100015410, symSize: 0x28 }
  - { offsetInCU: 0x69E65, offset: 0x69E65, size: 0x8, addend: 0x0, symName: __ZNSt3__128__exception_guard_exceptionsINS_29_AllocatorDestroyRangeReverseINS_9allocatorIjEEPjEEED2B7v160006Ev, symObjAddr: 0x14528, symBinAddr: 0x100015438, symSize: 0x50 }
  - { offsetInCU: 0x69E8F, offset: 0x69E8F, size: 0x8, addend: 0x0, symName: __ZNKSt3__129_AllocatorDestroyRangeReverseINS_9allocatorIjEEPjEclB7v160006Ev, symObjAddr: 0x14578, symBinAddr: 0x100015488, symSize: 0x68 }
  - { offsetInCU: 0x69EB5, offset: 0x69EB5, size: 0x8, addend: 0x0, symName: __ZNSt3__116reverse_iteratorIPjEC1B7v160006ES1_, symObjAddr: 0x14650, symBinAddr: 0x100015560, symSize: 0x34 }
  - { offsetInCU: 0x69EED, offset: 0x69EED, size: 0x8, addend: 0x0, symName: __ZNSt3__116allocator_traitsINS_9allocatorIjEEE7destroyB7v160006IjvEEvRS2_PT_, symObjAddr: 0x146CC, symBinAddr: 0x1000155DC, symSize: 0x2C }
  - { offsetInCU: 0x69F2A, offset: 0x69F2A, size: 0x8, addend: 0x0, symName: __ZNSt3__116reverse_iteratorIPjEppB7v160006Ev, symObjAddr: 0x1471C, symBinAddr: 0x10001562C, symSize: 0x20 }
  - { offsetInCU: 0x69F50, offset: 0x69F50, size: 0x8, addend: 0x0, symName: __ZNKSt3__116reverse_iteratorIPjE4baseB7v160006Ev, symObjAddr: 0x1473C, symBinAddr: 0x10001564C, symSize: 0x18 }
  - { offsetInCU: 0x69F76, offset: 0x69F76, size: 0x8, addend: 0x0, symName: __ZNSt3__19allocatorIjE7destroyB7v160006EPj, symObjAddr: 0x14754, symBinAddr: 0x100015664, symSize: 0x14 }
  - { offsetInCU: 0x69FB0, offset: 0x69FB0, size: 0x8, addend: 0x0, symName: __ZNSt3__119__to_address_helperINS_16reverse_iteratorIPjEEvE6__callB7v160006ERKS3_, symObjAddr: 0x14768, symBinAddr: 0x100015678, symSize: 0x38 }
  - { offsetInCU: 0x69FD3, offset: 0x69FD3, size: 0x8, addend: 0x0, symName: __ZNKSt3__116reverse_iteratorIPjEptB7v160006Ev, symObjAddr: 0x147A0, symBinAddr: 0x1000156B0, symSize: 0x24 }
  - { offsetInCU: 0x69FF9, offset: 0x69FF9, size: 0x8, addend: 0x0, symName: __ZNKSt3__116reverse_iteratorIPjEdeB7v160006Ev, symObjAddr: 0x147C4, symBinAddr: 0x1000156D4, symSize: 0x28 }
  - { offsetInCU: 0x6A02E, offset: 0x6A02E, size: 0x8, addend: 0x0, symName: __ZNSt3__116reverse_iteratorIPjEC2B7v160006ES1_, symObjAddr: 0x147EC, symBinAddr: 0x1000156FC, symSize: 0x28 }
  - { offsetInCU: 0x6A066, offset: 0x6A066, size: 0x8, addend: 0x0, symName: __ZNSt3__16vectorIjNS_9allocatorIjEEE21_ConstructTransactionD2B7v160006Ev, symObjAddr: 0x14814, symBinAddr: 0x100015724, symSize: 0x20 }
  - { offsetInCU: 0x6A090, offset: 0x6A090, size: 0x8, addend: 0x0, symName: __ZNSt3__128__exception_guard_exceptionsINS_6vectorIjNS_9allocatorIjEEE16__destroy_vectorEED2B7v160006Ev, symObjAddr: 0x14834, symBinAddr: 0x100015744, symSize: 0x50 }
  - { offsetInCU: 0x6A0BA, offset: 0x6A0BA, size: 0x8, addend: 0x0, symName: __ZNSt3__16vectorIjNS_9allocatorIjEEE16__destroy_vectorclB7v160006Ev, symObjAddr: 0x14884, symBinAddr: 0x100015794, symSize: 0x9C }
  - { offsetInCU: 0x6A0E0, offset: 0x6A0E0, size: 0x8, addend: 0x0, symName: __ZNKSt3__16vectorIjNS_9allocatorIjEEE17__annotate_deleteB7v160006Ev, symObjAddr: 0x14920, symBinAddr: 0x100015830, symSize: 0xB8 }
  - { offsetInCU: 0x6A106, offset: 0x6A106, size: 0x8, addend: 0x0, symName: __ZNSt3__16vectorIjNS_9allocatorIjEEE7__clearB7v160006Ev, symObjAddr: 0x149E8, symBinAddr: 0x1000158F8, symSize: 0x28 }
  - { offsetInCU: 0x6A12C, offset: 0x6A12C, size: 0x8, addend: 0x0, symName: __ZNSt3__116allocator_traitsINS_9allocatorIjEEE10deallocateB7v160006ERS2_Pjm, symObjAddr: 0x14A10, symBinAddr: 0x100015920, symSize: 0x34 }
  - { offsetInCU: 0x6A16E, offset: 0x6A16E, size: 0x8, addend: 0x0, symName: __ZNSt3__16vectorIjNS_9allocatorIjEEE22__base_destruct_at_endB7v160006EPj, symObjAddr: 0x14A44, symBinAddr: 0x100015954, symSize: 0x8C }
  - { offsetInCU: 0x6A1B2, offset: 0x6A1B2, size: 0x8, addend: 0x0, symName: __ZNSt3__19allocatorIjE10deallocateB7v160006EPjm, symObjAddr: 0x14AD0, symBinAddr: 0x1000159E0, symSize: 0x40 }
  - { offsetInCU: 0x6A1F4, offset: 0x6A1F4, size: 0x8, addend: 0x0, symName: __ZNSt3__110shared_ptrIKN4spot3twaEEC2B7v160006IKNS1_9twa_graphEvEERKNS0_IT_EE, symObjAddr: 0x14B10, symBinAddr: 0x100015A20, symSize: 0x70 }
  - { offsetInCU: 0x6A237, offset: 0x6A237, size: 0x8, addend: 0x0, symName: __ZNK4spot3twa14prop_state_accEv, symObjAddr: 0x14B80, symBinAddr: 0x100015A90, symSize: 0x80 }
  - { offsetInCU: 0x6A25D, offset: 0x6A25D, size: 0x8, addend: 0x0, symName: __ZN4spot3twa13prop_terminalENS_6trivalE, symObjAddr: 0x14C00, symBinAddr: 0x100015B10, symSize: 0xF4 }
  - { offsetInCU: 0x6A292, offset: 0x6A292, size: 0x8, addend: 0x0, symName: __ZNK4spot3twa13prop_terminalEv, symObjAddr: 0x14CF4, symBinAddr: 0x100015C04, symSize: 0x4C }
  - { offsetInCU: 0x6A2B8, offset: 0x6A2B8, size: 0x8, addend: 0x0, symName: __ZN4spot3twa9prop_weakENS_6trivalE, symObjAddr: 0x14D40, symBinAddr: 0x100015C50, symSize: 0x150 }
  - { offsetInCU: 0x6A2ED, offset: 0x6A2ED, size: 0x8, addend: 0x0, symName: __ZNK4spot3twa9prop_weakEv, symObjAddr: 0x14E90, symBinAddr: 0x100015DA0, symSize: 0x4C }
  - { offsetInCU: 0x6A313, offset: 0x6A313, size: 0x8, addend: 0x0, symName: __ZN4spot3twa14prop_very_weakENS_6trivalE, symObjAddr: 0x14EDC, symBinAddr: 0x100015DEC, symSize: 0xF4 }
  - { offsetInCU: 0x6A348, offset: 0x6A348, size: 0x8, addend: 0x0, symName: __ZNK4spot3twa14prop_very_weakEv, symObjAddr: 0x14FD0, symBinAddr: 0x100015EE0, symSize: 0x4C }
  - { offsetInCU: 0x6A36E, offset: 0x6A36E, size: 0x8, addend: 0x0, symName: __ZN4spot3twa20prop_inherently_weakENS_6trivalE, symObjAddr: 0x1501C, symBinAddr: 0x100015F2C, symSize: 0x13C }
  - { offsetInCU: 0x6A3A3, offset: 0x6A3A3, size: 0x8, addend: 0x0, symName: __ZNK4spot3twa20prop_inherently_weakEv, symObjAddr: 0x15158, symBinAddr: 0x100016068, symSize: 0x4C }
  - { offsetInCU: 0x6A3C9, offset: 0x6A3C9, size: 0x8, addend: 0x0, symName: __ZN4spot3twa23prop_semi_deterministicENS_6trivalE, symObjAddr: 0x151A4, symBinAddr: 0x1000160B4, symSize: 0xCC }
  - { offsetInCU: 0x6A3FE, offset: 0x6A3FE, size: 0x8, addend: 0x0, symName: __ZNK4spot3twa23prop_semi_deterministicEv, symObjAddr: 0x15270, symBinAddr: 0x100016180, symSize: 0x4C }
  - { offsetInCU: 0x6A424, offset: 0x6A424, size: 0x8, addend: 0x0, symName: __ZN4spot3twa16prop_unambiguousENS_6trivalE, symObjAddr: 0x152BC, symBinAddr: 0x1000161CC, symSize: 0xCC }
  - { offsetInCU: 0x6A459, offset: 0x6A459, size: 0x8, addend: 0x0, symName: __ZNK4spot3twa16prop_unambiguousEv, symObjAddr: 0x15388, symBinAddr: 0x100016298, symSize: 0x4C }
  - { offsetInCU: 0x6A47F, offset: 0x6A47F, size: 0x8, addend: 0x0, symName: __ZNK4spot6trival7is_trueEv, symObjAddr: 0x153D4, symBinAddr: 0x1000162E4, symSize: 0x24 }
  - { offsetInCU: 0x6A4A5, offset: 0x6A4A5, size: 0x8, addend: 0x0, symName: __ZN4spot3twa13prop_completeENS_6trivalE, symObjAddr: 0x153F8, symBinAddr: 0x100016308, symSize: 0x68 }
  - { offsetInCU: 0x6A4DA, offset: 0x6A4DA, size: 0x8, addend: 0x0, symName: __ZNK4spot3twa13prop_completeEv, symObjAddr: 0x15460, symBinAddr: 0x100016370, symSize: 0x4C }
  - { offsetInCU: 0x6A500, offset: 0x6A500, size: 0x8, addend: 0x0, symName: __ZN4spot3twa22prop_stutter_invariantENS_6trivalE, symObjAddr: 0x154AC, symBinAddr: 0x1000163BC, symSize: 0x68 }
  - { offsetInCU: 0x6A535, offset: 0x6A535, size: 0x8, addend: 0x0, symName: __ZNK4spot3twa22prop_stutter_invariantEv, symObjAddr: 0x15514, symBinAddr: 0x100016424, symSize: 0x4C }
  - { offsetInCU: 0x6A55B, offset: 0x6A55B, size: 0x8, addend: 0x0, symName: __ZNK4spot3twa8num_setsEv, symObjAddr: 0x15560, symBinAddr: 0x100016470, symSize: 0x28 }
  - { offsetInCU: 0x6A581, offset: 0x6A581, size: 0x8, addend: 0x0, symName: __ZNK4spot6trivalntEv, symObjAddr: 0x15588, symBinAddr: 0x100016498, symSize: 0x80 }
  - { offsetInCU: 0x6A5A7, offset: 0x6A5A7, size: 0x8, addend: 0x0, symName: __ZN4spot3twa8prop_setC1Ebbbbbb, symObjAddr: 0x15608, symBinAddr: 0x100016518, symSize: 0x90 }
  - { offsetInCU: 0x6A62B, offset: 0x6A62B, size: 0x8, addend: 0x0, symName: __ZN4spot3twa8prop_setC2Ebbbbbb, symObjAddr: 0x15698, symBinAddr: 0x1000165A8, symSize: 0x90 }
  - { offsetInCU: 0x6A6AF, offset: 0x6A6AF, size: 0x8, addend: 0x0, symName: __ZNSt3__19allocatorIN4spot8twa_wordEEC1B7v160006Ev, symObjAddr: 0x15800, symBinAddr: 0x100016710, symSize: 0x2C }
  - { offsetInCU: 0x6A718, offset: 0x6A718, size: 0x8, addend: 0x0, symName: __ZNSt3__118__allocation_guardINS_9allocatorINS_20__shared_ptr_emplaceIN4spot8twa_wordENS1_IS4_EEEEEEEC1B7v160006IS5_EET_m, symObjAddr: 0x1582C, symBinAddr: 0x10001673C, symSize: 0x34 }
  - { offsetInCU: 0x6A767, offset: 0x6A767, size: 0x8, addend: 0x0, symName: __ZNKSt3__118__allocation_guardINS_9allocatorINS_20__shared_ptr_emplaceIN4spot8twa_wordENS1_IS4_EEEEEEE5__getB7v160006Ev, symObjAddr: 0x15860, symBinAddr: 0x100016770, symSize: 0x18 }
  - { offsetInCU: 0x6A78D, offset: 0x6A78D, size: 0x8, addend: 0x0, symName: __ZNSt3__120__shared_ptr_emplaceIN4spot8twa_wordENS_9allocatorIS2_EEEC1B7v160006IJRKNS_10shared_ptrINS1_8bdd_dictEEEEEES4_DpOT_, symObjAddr: 0x15878, symBinAddr: 0x100016788, symSize: 0x34 }
  - { offsetInCU: 0x6A7E0, offset: 0x6A7E0, size: 0x8, addend: 0x0, symName: __ZNSt3__118__allocation_guardINS_9allocatorINS_20__shared_ptr_emplaceIN4spot8twa_wordENS1_IS4_EEEEEEE13__release_ptrB7v160006Ev, symObjAddr: 0x158AC, symBinAddr: 0x1000167BC, symSize: 0x24 }
  - { offsetInCU: 0x6A815, offset: 0x6A815, size: 0x8, addend: 0x0, symName: __ZNSt3__110shared_ptrIN4spot8twa_wordEE27__create_with_control_blockB7v160006IS2_NS_20__shared_ptr_emplaceIS2_NS_9allocatorIS2_EEEEEES3_PT_PT0_, symObjAddr: 0x158D0, symBinAddr: 0x1000167E0, symSize: 0xA4 }
  - { offsetInCU: 0x6A86A, offset: 0x6A86A, size: 0x8, addend: 0x0, symName: __ZNSt3__120__shared_ptr_emplaceIN4spot8twa_wordENS_9allocatorIS2_EEE10__get_elemB7v160006Ev, symObjAddr: 0x15974, symBinAddr: 0x100016884, symSize: 0x28 }
  - { offsetInCU: 0x6A890, offset: 0x6A890, size: 0x8, addend: 0x0, symName: __ZNSt3__118__allocation_guardINS_9allocatorINS_20__shared_ptr_emplaceIN4spot8twa_wordENS1_IS4_EEEEEEED1B7v160006Ev, symObjAddr: 0x1599C, symBinAddr: 0x1000168AC, symSize: 0x2C }
  - { offsetInCU: 0x6A8BA, offset: 0x6A8BA, size: 0x8, addend: 0x0, symName: __ZNSt3__118__allocation_guardINS_9allocatorINS_20__shared_ptr_emplaceIN4spot8twa_wordENS1_IS4_EEEEEEEC2B7v160006IS5_EET_m, symObjAddr: 0x159C8, symBinAddr: 0x1000168D8, symSize: 0x50 }
  - { offsetInCU: 0x6A909, offset: 0x6A909, size: 0x8, addend: 0x0, symName: __ZNSt3__19allocatorINS_20__shared_ptr_emplaceIN4spot8twa_wordENS0_IS3_EEEEEC1B7v160006IS3_EERKNS0_IT_EE, symObjAddr: 0x15A18, symBinAddr: 0x100016928, symSize: 0x34 }
  - { offsetInCU: 0x6A946, offset: 0x6A946, size: 0x8, addend: 0x0, symName: __ZNSt3__116allocator_traitsINS_9allocatorINS_20__shared_ptr_emplaceIN4spot8twa_wordENS1_IS4_EEEEEEE8allocateB7v160006ERS7_m, symObjAddr: 0x15A4C, symBinAddr: 0x10001695C, symSize: 0x2C }
  - { offsetInCU: 0x6A979, offset: 0x6A979, size: 0x8, addend: 0x0, symName: __ZNSt3__19allocatorINS_20__shared_ptr_emplaceIN4spot8twa_wordENS0_IS3_EEEEEC2B7v160006IS3_EERKNS0_IT_EE, symObjAddr: 0x15A78, symBinAddr: 0x100016988, symSize: 0x30 }
  - { offsetInCU: 0x6A9B6, offset: 0x6A9B6, size: 0x8, addend: 0x0, symName: __ZNSt3__116__non_trivial_ifILb1ENS_9allocatorINS_20__shared_ptr_emplaceIN4spot8twa_wordENS1_IS4_EEEEEEEC2B7v160006Ev, symObjAddr: 0x15AA8, symBinAddr: 0x1000169B8, symSize: 0x14 }
  - { offsetInCU: 0x6A9E0, offset: 0x6A9E0, size: 0x8, addend: 0x0, symName: __ZNSt3__19allocatorINS_20__shared_ptr_emplaceIN4spot8twa_wordENS0_IS3_EEEEE8allocateB7v160006Em, symObjAddr: 0x15ABC, symBinAddr: 0x1000169CC, symSize: 0x5C }
  - { offsetInCU: 0x6AA1F, offset: 0x6AA1F, size: 0x8, addend: 0x0, symName: __ZNSt3__116allocator_traitsINS_9allocatorINS_20__shared_ptr_emplaceIN4spot8twa_wordENS1_IS4_EEEEEEE8max_sizeB7v160006IS7_vEEmRKS7_, symObjAddr: 0x15B18, symBinAddr: 0x100016A28, symSize: 0x24 }
  - { offsetInCU: 0x6AA4D, offset: 0x6AA4D, size: 0x8, addend: 0x0, symName: __ZNKSt3__19allocatorINS_20__shared_ptr_emplaceIN4spot8twa_wordENS0_IS3_EEEEE8max_sizeB7v160006Ev, symObjAddr: 0x15B3C, symBinAddr: 0x100016A4C, symSize: 0x20 }
  - { offsetInCU: 0x6AA73, offset: 0x6AA73, size: 0x8, addend: 0x0, symName: __ZNSt3__120__shared_ptr_emplaceIN4spot8twa_wordENS_9allocatorIS2_EEEC2B7v160006IJRKNS_10shared_ptrINS1_8bdd_dictEEEEEES4_DpOT_, symObjAddr: 0x15B5C, symBinAddr: 0x100016A6C, symSize: 0x94 }
  - { offsetInCU: 0x6AAC6, offset: 0x6AAC6, size: 0x8, addend: 0x0, symName: __ZNSt3__120__shared_ptr_emplaceIN4spot8twa_wordENS_9allocatorIS2_EEE8_StorageC1B7v160006EOS4_, symObjAddr: 0x15BF0, symBinAddr: 0x100016B00, symSize: 0x34 }
  - { offsetInCU: 0x6AAFF, offset: 0x6AAFF, size: 0x8, addend: 0x0, symName: __ZNSt3__120__shared_ptr_emplaceIN4spot8twa_wordENS_9allocatorIS2_EEED1Ev, symObjAddr: 0x15C24, symBinAddr: 0x100016B34, symSize: 0x2C }
  - { offsetInCU: 0x6AB2C, offset: 0x6AB2C, size: 0x8, addend: 0x0, symName: __ZNSt3__120__shared_ptr_emplaceIN4spot8twa_wordENS_9allocatorIS2_EEED0Ev, symObjAddr: 0x15C50, symBinAddr: 0x100016B60, symSize: 0x30 }
  - { offsetInCU: 0x6AB59, offset: 0x6AB59, size: 0x8, addend: 0x0, symName: __ZNSt3__120__shared_ptr_emplaceIN4spot8twa_wordENS_9allocatorIS2_EEE16__on_zero_sharedEv, symObjAddr: 0x15C80, symBinAddr: 0x100016B90, symSize: 0x28 }
  - { offsetInCU: 0x6AB7F, offset: 0x6AB7F, size: 0x8, addend: 0x0, symName: __ZNSt3__120__shared_ptr_emplaceIN4spot8twa_wordENS_9allocatorIS2_EEE21__on_zero_shared_weakEv, symObjAddr: 0x15CA8, symBinAddr: 0x100016BB8, symSize: 0x5C }
  - { offsetInCU: 0x6ABC0, offset: 0x6ABC0, size: 0x8, addend: 0x0, symName: __ZNSt3__120__shared_ptr_emplaceIN4spot8twa_wordENS_9allocatorIS2_EEE8_StorageC2B7v160006EOS4_, symObjAddr: 0x15D04, symBinAddr: 0x100016C14, symSize: 0x30 }
  - { offsetInCU: 0x6ABF9, offset: 0x6ABF9, size: 0x8, addend: 0x0, symName: __ZNSt3__120__shared_ptr_emplaceIN4spot8twa_wordENS_9allocatorIS2_EEE8_Storage11__get_allocEv, symObjAddr: 0x15D34, symBinAddr: 0x100016C44, symSize: 0x3C }
  - { offsetInCU: 0x6AC4C, offset: 0x6AC4C, size: 0x8, addend: 0x0, symName: __ZNSt3__117__compressed_pairINS_9allocatorIN4spot8twa_wordEEES3_E16__get_first_baseB7v160006EPS5_, symObjAddr: 0x15D70, symBinAddr: 0x100016C80, symSize: 0x14 }
  - { offsetInCU: 0x6AC6F, offset: 0x6AC6F, size: 0x8, addend: 0x0, symName: __ZNSt3__120__shared_ptr_emplaceIN4spot8twa_wordENS_9allocatorIS2_EEED2Ev, symObjAddr: 0x15D84, symBinAddr: 0x100016C94, symSize: 0x48 }
  - { offsetInCU: 0x6AC9C, offset: 0x6AC9C, size: 0x8, addend: 0x0, symName: __ZNSt3__120__shared_ptr_emplaceIN4spot8twa_wordENS_9allocatorIS2_EEE8_StorageD1B7v160006Ev, symObjAddr: 0x15DCC, symBinAddr: 0x100016CDC, symSize: 0x2C }
  - { offsetInCU: 0x6ACC6, offset: 0x6ACC6, size: 0x8, addend: 0x0, symName: __ZNSt3__120__shared_ptr_emplaceIN4spot8twa_wordENS_9allocatorIS2_EEE8_StorageD2B7v160006Ev, symObjAddr: 0x15DF8, symBinAddr: 0x100016D08, symSize: 0x2C }
  - { offsetInCU: 0x6ACF0, offset: 0x6ACF0, size: 0x8, addend: 0x0, symName: __ZN4spot8twa_wordD1Ev, symObjAddr: 0x15E24, symBinAddr: 0x100016D34, symSize: 0x2C }
  - { offsetInCU: 0x6AD1A, offset: 0x6AD1A, size: 0x8, addend: 0x0, symName: __ZN4spot8twa_wordD2Ev, symObjAddr: 0x15E50, symBinAddr: 0x100016D60, symSize: 0x60 }
  - { offsetInCU: 0x6AD44, offset: 0x6AD44, size: 0x8, addend: 0x0, symName: __ZNSt3__120__shared_ptr_emplaceIN4spot8twa_wordENS_9allocatorIS2_EEE11__get_allocB7v160006Ev, symObjAddr: 0x15EB0, symBinAddr: 0x100016DC0, symSize: 0x28 }
  - { offsetInCU: 0x6AD6A, offset: 0x6AD6A, size: 0x8, addend: 0x0, symName: __ZNSt3__116allocator_traitsINS_9allocatorINS_20__shared_ptr_emplaceIN4spot8twa_wordENS1_IS4_EEEEEEE10deallocateB7v160006ERS7_PS6_m, symObjAddr: 0x15ED8, symBinAddr: 0x100016DE8, symSize: 0x34 }
  - { offsetInCU: 0x6ADAC, offset: 0x6ADAC, size: 0x8, addend: 0x0, symName: __ZNSt3__114pointer_traitsIPNS_20__shared_ptr_emplaceIN4spot8twa_wordENS_9allocatorIS3_EEEEE10pointer_toB7v160006ERS6_, symObjAddr: 0x15F0C, symBinAddr: 0x100016E1C, symSize: 0x14 }
  - { offsetInCU: 0x6ADCF, offset: 0x6ADCF, size: 0x8, addend: 0x0, symName: __ZNSt3__19allocatorINS_20__shared_ptr_emplaceIN4spot8twa_wordENS0_IS3_EEEEE10deallocateB7v160006EPS5_m, symObjAddr: 0x15F20, symBinAddr: 0x100016E30, symSize: 0x44 }
  - { offsetInCU: 0x6AE11, offset: 0x6AE11, size: 0x8, addend: 0x0, symName: __ZNSt3__110shared_ptrIN4spot8twa_wordEEC1B7v160006Ev, symObjAddr: 0x15F64, symBinAddr: 0x100016E74, symSize: 0x2C }
  - { offsetInCU: 0x6AE3B, offset: 0x6AE3B, size: 0x8, addend: 0x0, symName: __ZNSt3__110shared_ptrIN4spot8twa_wordEE18__enable_weak_thisB7v160006Ez, symObjAddr: 0x15F90, symBinAddr: 0x100016EA0, symSize: 0x10 }
  - { offsetInCU: 0x6AE63, offset: 0x6AE63, size: 0x8, addend: 0x0, symName: __ZNSt3__110shared_ptrIN4spot8twa_wordEEC2B7v160006Ev, symObjAddr: 0x15FA0, symBinAddr: 0x100016EB0, symSize: 0x1C }
  - { offsetInCU: 0x6AE8D, offset: 0x6AE8D, size: 0x8, addend: 0x0, symName: __ZNSt3__120__shared_ptr_emplaceIN4spot8twa_wordENS_9allocatorIS2_EEE8_Storage10__get_elemEv, symObjAddr: 0x15FBC, symBinAddr: 0x100016ECC, symSize: 0x3C }
  - { offsetInCU: 0x6AEE0, offset: 0x6AEE0, size: 0x8, addend: 0x0, symName: __ZNSt3__117__compressed_pairINS_9allocatorIN4spot8twa_wordEEES3_E17__get_second_baseB7v160006EPS5_, symObjAddr: 0x15FF8, symBinAddr: 0x100016F08, symSize: 0x14 }
  - { offsetInCU: 0x6AF03, offset: 0x6AF03, size: 0x8, addend: 0x0, symName: __ZNSt3__118__allocation_guardINS_9allocatorINS_20__shared_ptr_emplaceIN4spot8twa_wordENS1_IS4_EEEEEEED2B7v160006Ev, symObjAddr: 0x1600C, symBinAddr: 0x100016F1C, symSize: 0x58 }
  - { offsetInCU: 0x6AF2D, offset: 0x6AF2D, size: 0x8, addend: 0x0, symName: __ZNSt3__19allocatorIN4spot8twa_wordEEC2B7v160006Ev, symObjAddr: 0x16064, symBinAddr: 0x100016F74, symSize: 0x2C }
  - { offsetInCU: 0x6AF57, offset: 0x6AF57, size: 0x8, addend: 0x0, symName: __ZNSt3__116__non_trivial_ifILb1ENS_9allocatorIN4spot8twa_wordEEEEC2B7v160006Ev, symObjAddr: 0x16090, symBinAddr: 0x100016FA0, symSize: 0x14 }
  - { offsetInCU: 0x6AF81, offset: 0x6AF81, size: 0x8, addend: 0x0, symName: __ZNKSt3__111__wrap_iterIPcE4baseB7v160006Ev, symObjAddr: 0x160EC, symBinAddr: 0x100016FFC, symSize: 0x18 }
  - { offsetInCU: 0x6AFA7, offset: 0x6AFA7, size: 0x8, addend: 0x0, symName: __ZN4spot7formulaC1EPKNS_5fnodeE, symObjAddr: 0x16104, symBinAddr: 0x100017014, symSize: 0x34 }
  - { offsetInCU: 0x6AFE0, offset: 0x6AFE0, size: 0x8, addend: 0x0, symName: __ZN4spot7formulaC2EPKNS_5fnodeE, symObjAddr: 0x16138, symBinAddr: 0x100017048, symSize: 0x20 }
  - { offsetInCU: 0x6B019, offset: 0x6B019, size: 0x8, addend: 0x0, symName: __ZN3bddC1Ei, symObjAddr: 0x16158, symBinAddr: 0x100017068, symSize: 0x34 }
  - { offsetInCU: 0x6B052, offset: 0x6B052, size: 0x8, addend: 0x0, symName: __ZN3bddC2Ei, symObjAddr: 0x1618C, symBinAddr: 0x10001709C, symSize: 0x68 }
  - { offsetInCU: 0x6B08B, offset: 0x6B08B, size: 0x8, addend: 0x0, symName: __ZN4spot7formulaD2Ev, symObjAddr: 0x161F4, symBinAddr: 0x100017104, symSize: 0x5C }
  - { offsetInCU: 0x6B0B5, offset: 0x6B0B5, size: 0x8, addend: 0x0, symName: __ZNK4spot5fnode7destroyEv, symObjAddr: 0x16250, symBinAddr: 0x100017160, symSize: 0x78 }
  - { offsetInCU: 0x6B0DB, offset: 0x6B0DB, size: 0x8, addend: 0x0, symName: __ZN3bddC2ERKS_, symObjAddr: 0x162C8, symBinAddr: 0x1000171D8, symSize: 0x6C }
  - { offsetInCU: 0x6B114, offset: 0x6B114, size: 0x8, addend: 0x0, symName: __ZNSt3__118basic_stringstreamIcNS_11char_traitsIcEENS_9allocatorIcEEED2Ev, symObjAddr: 0x16334, symBinAddr: 0x100017244, symSize: 0x6C }
  - { offsetInCU: 0x6B14E, offset: 0x6B14E, size: 0x8, addend: 0x0, symName: __ZThn16_NSt3__118basic_stringstreamIcNS_11char_traitsIcEENS_9allocatorIcEEED1Ev, symObjAddr: 0x163A0, symBinAddr: 0x1000172B0, symSize: 0x1C }
  - { offsetInCU: 0x6B165, offset: 0x6B165, size: 0x8, addend: 0x0, symName: __ZTv0_n24_NSt3__118basic_stringstreamIcNS_11char_traitsIcEENS_9allocatorIcEEED1Ev, symObjAddr: 0x163BC, symBinAddr: 0x1000172CC, symSize: 0x28 }
  - { offsetInCU: 0x6B181, offset: 0x6B181, size: 0x8, addend: 0x0, symName: __ZNSt3__115basic_stringbufIcNS_11char_traitsIcEENS_9allocatorIcEEED1Ev, symObjAddr: 0x163E4, symBinAddr: 0x1000172F4, symSize: 0x2C }
  - { offsetInCU: 0x6B1AE, offset: 0x6B1AE, size: 0x8, addend: 0x0, symName: __ZNSt3__115basic_stringbufIcNS_11char_traitsIcEENS_9allocatorIcEEED2Ev, symObjAddr: 0x16410, symBinAddr: 0x100017320, symSize: 0x48 }
  - { offsetInCU: 0x6B1DB, offset: 0x6B1DB, size: 0x8, addend: 0x0, symName: __ZNKSt3__116reverse_iteratorINS_11__wrap_iterIPjEEE4baseB7v160006Ev, symObjAddr: 0x1648C, symBinAddr: 0x10001739C, symSize: 0x20 }
  - { offsetInCU: 0x6B201, offset: 0x6B201, size: 0x8, addend: 0x0, symName: __ZNKSt3__111__wrap_iterIPjE4baseB7v160006Ev, symObjAddr: 0x164F4, symBinAddr: 0x100017404, symSize: 0x18 }
  - { offsetInCU: 0x6B227, offset: 0x6B227, size: 0x8, addend: 0x0, symName: __ZNSt3__111__wrap_iterIPjEmmB7v160006Ev, symObjAddr: 0x1650C, symBinAddr: 0x10001741C, symSize: 0x20 }
  - { offsetInCU: 0x6B24D, offset: 0x6B24D, size: 0x8, addend: 0x0, symName: __ZNKSt3__111__wrap_iterIPjEdeB7v160006Ev, symObjAddr: 0x1652C, symBinAddr: 0x10001743C, symSize: 0x18 }
  - { offsetInCU: 0x6B273, offset: 0x6B273, size: 0x8, addend: 0x0, symName: __ZNSt3__14listI3bddNS_9allocatorIS1_EEED2Ev, symObjAddr: 0x16544, symBinAddr: 0x100017454, symSize: 0x2C }
  - { offsetInCU: 0x6B2A0, offset: 0x6B2A0, size: 0x8, addend: 0x0, symName: __ZNSt3__110__list_impI3bddNS_9allocatorIS1_EEED2Ev, symObjAddr: 0x16570, symBinAddr: 0x100017480, symSize: 0x3C }
  - { offsetInCU: 0x6B2CC, offset: 0x6B2CC, size: 0x8, addend: 0x0, symName: __ZNSt3__110__list_impI3bddNS_9allocatorIS1_EEE5clearEv, symObjAddr: 0x165AC, symBinAddr: 0x1000174BC, symSize: 0xEC }
  - { offsetInCU: 0x6B33E, offset: 0x6B33E, size: 0x8, addend: 0x0, symName: __ZNKSt3__110__list_impI3bddNS_9allocatorIS1_EEE5emptyB7v160006Ev, symObjAddr: 0x166A8, symBinAddr: 0x1000175B8, symSize: 0x34 }
  - { offsetInCU: 0x6B364, offset: 0x6B364, size: 0x8, addend: 0x0, symName: __ZNSt3__110__list_impI3bddNS_9allocatorIS1_EEE12__node_allocB7v160006Ev, symObjAddr: 0x166DC, symBinAddr: 0x1000175EC, symSize: 0x28 }
  - { offsetInCU: 0x6B38A, offset: 0x6B38A, size: 0x8, addend: 0x0, symName: __ZNKSt3__110__list_impI3bddNS_9allocatorIS1_EEE13__end_as_linkB7v160006Ev, symObjAddr: 0x16704, symBinAddr: 0x100017614, symSize: 0x44 }
  - { offsetInCU: 0x6B3B0, offset: 0x6B3B0, size: 0x8, addend: 0x0, symName: __ZNSt3__110__list_impI3bddNS_9allocatorIS1_EEE14__unlink_nodesEPNS_16__list_node_baseIS1_PvEES8_, symObjAddr: 0x16748, symBinAddr: 0x100017658, symSize: 0x3C }
  - { offsetInCU: 0x6B3E5, offset: 0x6B3E5, size: 0x8, addend: 0x0, symName: __ZNSt3__110__list_impI3bddNS_9allocatorIS1_EEE4__szB7v160006Ev, symObjAddr: 0x16784, symBinAddr: 0x100017694, symSize: 0x28 }
  - { offsetInCU: 0x6B40B, offset: 0x6B40B, size: 0x8, addend: 0x0, symName: __ZNSt3__116__list_node_baseI3bddPvE9__as_nodeB7v160006Ev, symObjAddr: 0x167AC, symBinAddr: 0x1000176BC, symSize: 0x24 }
  - { offsetInCU: 0x6B431, offset: 0x6B431, size: 0x8, addend: 0x0, symName: __ZNSt3__116allocator_traitsINS_9allocatorINS_11__list_nodeI3bddPvEEEEE7destroyB7v160006IS3_vvEEvRS6_PT_, symObjAddr: 0x167D0, symBinAddr: 0x1000176E0, symSize: 0x28 }
  - { offsetInCU: 0x6B46B, offset: 0x6B46B, size: 0x8, addend: 0x0, symName: __ZNSt3__116allocator_traitsINS_9allocatorINS_11__list_nodeI3bddPvEEEEE10deallocateB7v160006ERS6_PS5_m, symObjAddr: 0x167F8, symBinAddr: 0x100017708, symSize: 0x34 }
  - { offsetInCU: 0x6B4AD, offset: 0x6B4AD, size: 0x8, addend: 0x0, symName: __ZNKSt3__110__list_impI3bddNS_9allocatorIS1_EEE4__szB7v160006Ev, symObjAddr: 0x1683C, symBinAddr: 0x10001774C, symSize: 0x28 }
  - { offsetInCU: 0x6B4D3, offset: 0x6B4D3, size: 0x8, addend: 0x0, symName: __ZNKSt3__117__compressed_pairImNS_9allocatorINS_11__list_nodeI3bddPvEEEEE5firstB7v160006Ev, symObjAddr: 0x16864, symBinAddr: 0x100017774, symSize: 0x24 }
  - { offsetInCU: 0x6B4F9, offset: 0x6B4F9, size: 0x8, addend: 0x0, symName: __ZNKSt3__122__compressed_pair_elemImLi0ELb0EE5__getB7v160006Ev, symObjAddr: 0x16888, symBinAddr: 0x100017798, symSize: 0x14 }
  - { offsetInCU: 0x6B51F, offset: 0x6B51F, size: 0x8, addend: 0x0, symName: __ZNSt3__117__compressed_pairImNS_9allocatorINS_11__list_nodeI3bddPvEEEEE6secondB7v160006Ev, symObjAddr: 0x1689C, symBinAddr: 0x1000177AC, symSize: 0x24 }
  - { offsetInCU: 0x6B545, offset: 0x6B545, size: 0x8, addend: 0x0, symName: __ZNSt3__122__compressed_pair_elemINS_9allocatorINS_11__list_nodeI3bddPvEEEELi1ELb1EE5__getB7v160006Ev, symObjAddr: 0x168C0, symBinAddr: 0x1000177D0, symSize: 0x14 }
  - { offsetInCU: 0x6B56B, offset: 0x6B56B, size: 0x8, addend: 0x0, symName: __ZNSt3__126__list_node_pointer_traitsI3bddPvE26__unsafe_link_pointer_castB7v160006EPNS_16__list_node_baseIS1_S2_EE, symObjAddr: 0x168D4, symBinAddr: 0x1000177E4, symSize: 0x14 }
  - { offsetInCU: 0x6B58F, offset: 0x6B58F, size: 0x8, addend: 0x0, symName: __ZNSt3__116__list_node_baseI3bddPvE6__selfB7v160006Ev, symObjAddr: 0x168E8, symBinAddr: 0x1000177F8, symSize: 0x24 }
  - { offsetInCU: 0x6B5BB, offset: 0x6B5BB, size: 0x8, addend: 0x0, symName: __ZNSt3__114pointer_traitsIPNS_16__list_node_baseI3bddPvEEE10pointer_toB7v160006ERS4_, symObjAddr: 0x1690C, symBinAddr: 0x10001781C, symSize: 0x14 }
  - { offsetInCU: 0x6B5DE, offset: 0x6B5DE, size: 0x8, addend: 0x0, symName: __ZNSt3__117__compressed_pairImNS_9allocatorINS_11__list_nodeI3bddPvEEEEE5firstB7v160006Ev, symObjAddr: 0x16920, symBinAddr: 0x100017830, symSize: 0x24 }
  - { offsetInCU: 0x6B604, offset: 0x6B604, size: 0x8, addend: 0x0, symName: __ZNSt3__122__compressed_pair_elemImLi0ELb0EE5__getB7v160006Ev, symObjAddr: 0x16944, symBinAddr: 0x100017854, symSize: 0x14 }
  - { offsetInCU: 0x6B62A, offset: 0x6B62A, size: 0x8, addend: 0x0, symName: __ZNSt3__19allocatorINS_11__list_nodeI3bddPvEEE10deallocateB7v160006EPS4_m, symObjAddr: 0x16958, symBinAddr: 0x100017868, symSize: 0x44 }
  - { offsetInCU: 0x6B66C, offset: 0x6B66C, size: 0x8, addend: 0x0, symName: __ZN4spot10translatorC2EPKNS_10option_mapE, symObjAddr: 0x1699C, symBinAddr: 0x1000178AC, symSize: 0xA8 }
  - { offsetInCU: 0x6B6A4, offset: 0x6B6A4, size: 0x8, addend: 0x0, symName: __ZNSt3__19allocatorIN4spot8bdd_dictEEC1B7v160006Ev, symObjAddr: 0x16B30, symBinAddr: 0x100017A40, symSize: 0x2C }
  - { offsetInCU: 0x6B70D, offset: 0x6B70D, size: 0x8, addend: 0x0, symName: __ZNSt3__118__allocation_guardINS_9allocatorINS_20__shared_ptr_emplaceIN4spot8bdd_dictENS1_IS4_EEEEEEEC1B7v160006IS5_EET_m, symObjAddr: 0x16B5C, symBinAddr: 0x100017A6C, symSize: 0x34 }
  - { offsetInCU: 0x6B75C, offset: 0x6B75C, size: 0x8, addend: 0x0, symName: __ZNKSt3__118__allocation_guardINS_9allocatorINS_20__shared_ptr_emplaceIN4spot8bdd_dictENS1_IS4_EEEEEEE5__getB7v160006Ev, symObjAddr: 0x16B90, symBinAddr: 0x100017AA0, symSize: 0x18 }
  - { offsetInCU: 0x6B782, offset: 0x6B782, size: 0x8, addend: 0x0, symName: __ZNSt3__120__shared_ptr_emplaceIN4spot8bdd_dictENS_9allocatorIS2_EEEC1B7v160006IJEEES4_DpOT_, symObjAddr: 0x16BA8, symBinAddr: 0x100017AB8, symSize: 0x2C }
  - { offsetInCU: 0x6B7C0, offset: 0x6B7C0, size: 0x8, addend: 0x0, symName: __ZNSt3__118__allocation_guardINS_9allocatorINS_20__shared_ptr_emplaceIN4spot8bdd_dictENS1_IS4_EEEEEEE13__release_ptrB7v160006Ev, symObjAddr: 0x16BD4, symBinAddr: 0x100017AE4, symSize: 0x24 }
  - { offsetInCU: 0x6B7F5, offset: 0x6B7F5, size: 0x8, addend: 0x0, symName: __ZNSt3__110shared_ptrIN4spot8bdd_dictEE27__create_with_control_blockB7v160006IS2_NS_20__shared_ptr_emplaceIS2_NS_9allocatorIS2_EEEEEES3_PT_PT0_, symObjAddr: 0x16BF8, symBinAddr: 0x100017B08, symSize: 0xA4 }
  - { offsetInCU: 0x6B84A, offset: 0x6B84A, size: 0x8, addend: 0x0, symName: __ZNSt3__120__shared_ptr_emplaceIN4spot8bdd_dictENS_9allocatorIS2_EEE10__get_elemB7v160006Ev, symObjAddr: 0x16C9C, symBinAddr: 0x100017BAC, symSize: 0x28 }
  - { offsetInCU: 0x6B870, offset: 0x6B870, size: 0x8, addend: 0x0, symName: __ZNSt3__118__allocation_guardINS_9allocatorINS_20__shared_ptr_emplaceIN4spot8bdd_dictENS1_IS4_EEEEEEED1B7v160006Ev, symObjAddr: 0x16CC4, symBinAddr: 0x100017BD4, symSize: 0x2C }
  - { offsetInCU: 0x6B89A, offset: 0x6B89A, size: 0x8, addend: 0x0, symName: __ZNSt3__118__allocation_guardINS_9allocatorINS_20__shared_ptr_emplaceIN4spot8bdd_dictENS1_IS4_EEEEEEEC2B7v160006IS5_EET_m, symObjAddr: 0x16CF0, symBinAddr: 0x100017C00, symSize: 0x50 }
  - { offsetInCU: 0x6B8E9, offset: 0x6B8E9, size: 0x8, addend: 0x0, symName: __ZNSt3__19allocatorINS_20__shared_ptr_emplaceIN4spot8bdd_dictENS0_IS3_EEEEEC1B7v160006IS3_EERKNS0_IT_EE, symObjAddr: 0x16D40, symBinAddr: 0x100017C50, symSize: 0x34 }
  - { offsetInCU: 0x6B926, offset: 0x6B926, size: 0x8, addend: 0x0, symName: __ZNSt3__116allocator_traitsINS_9allocatorINS_20__shared_ptr_emplaceIN4spot8bdd_dictENS1_IS4_EEEEEEE8allocateB7v160006ERS7_m, symObjAddr: 0x16D74, symBinAddr: 0x100017C84, symSize: 0x2C }
  - { offsetInCU: 0x6B959, offset: 0x6B959, size: 0x8, addend: 0x0, symName: __ZNSt3__19allocatorINS_20__shared_ptr_emplaceIN4spot8bdd_dictENS0_IS3_EEEEEC2B7v160006IS3_EERKNS0_IT_EE, symObjAddr: 0x16DA0, symBinAddr: 0x100017CB0, symSize: 0x30 }
  - { offsetInCU: 0x6B996, offset: 0x6B996, size: 0x8, addend: 0x0, symName: __ZNSt3__116__non_trivial_ifILb1ENS_9allocatorINS_20__shared_ptr_emplaceIN4spot8bdd_dictENS1_IS4_EEEEEEEC2B7v160006Ev, symObjAddr: 0x16DD0, symBinAddr: 0x100017CE0, symSize: 0x14 }
  - { offsetInCU: 0x6B9C0, offset: 0x6B9C0, size: 0x8, addend: 0x0, symName: __ZNSt3__19allocatorINS_20__shared_ptr_emplaceIN4spot8bdd_dictENS0_IS3_EEEEE8allocateB7v160006Em, symObjAddr: 0x16DE4, symBinAddr: 0x100017CF4, symSize: 0x5C }
  - { offsetInCU: 0x6B9FF, offset: 0x6B9FF, size: 0x8, addend: 0x0, symName: __ZNSt3__116allocator_traitsINS_9allocatorINS_20__shared_ptr_emplaceIN4spot8bdd_dictENS1_IS4_EEEEEEE8max_sizeB7v160006IS7_vEEmRKS7_, symObjAddr: 0x16E40, symBinAddr: 0x100017D50, symSize: 0x24 }
  - { offsetInCU: 0x6BA2D, offset: 0x6BA2D, size: 0x8, addend: 0x0, symName: __ZNKSt3__19allocatorINS_20__shared_ptr_emplaceIN4spot8bdd_dictENS0_IS3_EEEEE8max_sizeB7v160006Ev, symObjAddr: 0x16E64, symBinAddr: 0x100017D74, symSize: 0x20 }
  - { offsetInCU: 0x6BA53, offset: 0x6BA53, size: 0x8, addend: 0x0, symName: __ZNSt3__120__shared_ptr_emplaceIN4spot8bdd_dictENS_9allocatorIS2_EEEC2B7v160006IJEEES4_DpOT_, symObjAddr: 0x16E84, symBinAddr: 0x100017D94, symSize: 0xB0 }
  - { offsetInCU: 0x6BA91, offset: 0x6BA91, size: 0x8, addend: 0x0, symName: __ZNSt3__120__shared_ptr_emplaceIN4spot8bdd_dictENS_9allocatorIS2_EEE8_StorageC1B7v160006EOS4_, symObjAddr: 0x16F34, symBinAddr: 0x100017E44, symSize: 0x34 }
  - { offsetInCU: 0x6BACA, offset: 0x6BACA, size: 0x8, addend: 0x0, symName: __ZNSt3__120__shared_ptr_emplaceIN4spot8bdd_dictENS_9allocatorIS2_EEE8_StorageD1B7v160006Ev, symObjAddr: 0x16F68, symBinAddr: 0x100017E78, symSize: 0x2C }
  - { offsetInCU: 0x6BAF4, offset: 0x6BAF4, size: 0x8, addend: 0x0, symName: __ZNSt3__120__shared_ptr_emplaceIN4spot8bdd_dictENS_9allocatorIS2_EEED1Ev, symObjAddr: 0x16F94, symBinAddr: 0x100017EA4, symSize: 0x2C }
  - { offsetInCU: 0x6BB21, offset: 0x6BB21, size: 0x8, addend: 0x0, symName: __ZNSt3__120__shared_ptr_emplaceIN4spot8bdd_dictENS_9allocatorIS2_EEED0Ev, symObjAddr: 0x16FC0, symBinAddr: 0x100017ED0, symSize: 0x30 }
  - { offsetInCU: 0x6BB4E, offset: 0x6BB4E, size: 0x8, addend: 0x0, symName: __ZNSt3__120__shared_ptr_emplaceIN4spot8bdd_dictENS_9allocatorIS2_EEE16__on_zero_sharedEv, symObjAddr: 0x16FF0, symBinAddr: 0x100017F00, symSize: 0x28 }
  - { offsetInCU: 0x6BB74, offset: 0x6BB74, size: 0x8, addend: 0x0, symName: __ZNSt3__120__shared_ptr_emplaceIN4spot8bdd_dictENS_9allocatorIS2_EEE21__on_zero_shared_weakEv, symObjAddr: 0x17018, symBinAddr: 0x100017F28, symSize: 0x5C }
  - { offsetInCU: 0x6BBB5, offset: 0x6BBB5, size: 0x8, addend: 0x0, symName: __ZNSt3__120__shared_ptr_emplaceIN4spot8bdd_dictENS_9allocatorIS2_EEE8_StorageC2B7v160006EOS4_, symObjAddr: 0x17074, symBinAddr: 0x100017F84, symSize: 0x30 }
  - { offsetInCU: 0x6BBEE, offset: 0x6BBEE, size: 0x8, addend: 0x0, symName: __ZNSt3__120__shared_ptr_emplaceIN4spot8bdd_dictENS_9allocatorIS2_EEE8_Storage11__get_allocEv, symObjAddr: 0x170A4, symBinAddr: 0x100017FB4, symSize: 0x3C }
  - { offsetInCU: 0x6BC41, offset: 0x6BC41, size: 0x8, addend: 0x0, symName: __ZNSt3__117__compressed_pairINS_9allocatorIN4spot8bdd_dictEEES3_E16__get_first_baseB7v160006EPS5_, symObjAddr: 0x170E0, symBinAddr: 0x100017FF0, symSize: 0x14 }
  - { offsetInCU: 0x6BC64, offset: 0x6BC64, size: 0x8, addend: 0x0, symName: __ZNSt3__120__shared_ptr_emplaceIN4spot8bdd_dictENS_9allocatorIS2_EEE8_StorageD2B7v160006Ev, symObjAddr: 0x170F4, symBinAddr: 0x100018004, symSize: 0x2C }
  - { offsetInCU: 0x6BC8E, offset: 0x6BC8E, size: 0x8, addend: 0x0, symName: __ZNSt3__120__shared_ptr_emplaceIN4spot8bdd_dictENS_9allocatorIS2_EEED2Ev, symObjAddr: 0x17120, symBinAddr: 0x100018030, symSize: 0x48 }
  - { offsetInCU: 0x6BCBB, offset: 0x6BCBB, size: 0x8, addend: 0x0, symName: __ZNSt3__120__shared_ptr_emplaceIN4spot8bdd_dictENS_9allocatorIS2_EEE11__get_allocB7v160006Ev, symObjAddr: 0x17168, symBinAddr: 0x100018078, symSize: 0x28 }
  - { offsetInCU: 0x6BCE1, offset: 0x6BCE1, size: 0x8, addend: 0x0, symName: __ZNSt3__116allocator_traitsINS_9allocatorINS_20__shared_ptr_emplaceIN4spot8bdd_dictENS1_IS4_EEEEEEE10deallocateB7v160006ERS7_PS6_m, symObjAddr: 0x17190, symBinAddr: 0x1000180A0, symSize: 0x34 }
  - { offsetInCU: 0x6BD23, offset: 0x6BD23, size: 0x8, addend: 0x0, symName: __ZNSt3__114pointer_traitsIPNS_20__shared_ptr_emplaceIN4spot8bdd_dictENS_9allocatorIS3_EEEEE10pointer_toB7v160006ERS6_, symObjAddr: 0x171C4, symBinAddr: 0x1000180D4, symSize: 0x14 }
  - { offsetInCU: 0x6BD46, offset: 0x6BD46, size: 0x8, addend: 0x0, symName: __ZNSt3__19allocatorINS_20__shared_ptr_emplaceIN4spot8bdd_dictENS0_IS3_EEEEE10deallocateB7v160006EPS5_m, symObjAddr: 0x171D8, symBinAddr: 0x1000180E8, symSize: 0x44 }
  - { offsetInCU: 0x6BD88, offset: 0x6BD88, size: 0x8, addend: 0x0, symName: __ZNSt3__110shared_ptrIN4spot8bdd_dictEEC1B7v160006Ev, symObjAddr: 0x1721C, symBinAddr: 0x10001812C, symSize: 0x2C }
  - { offsetInCU: 0x6BDB2, offset: 0x6BDB2, size: 0x8, addend: 0x0, symName: __ZNSt3__110shared_ptrIN4spot8bdd_dictEE18__enable_weak_thisB7v160006Ez, symObjAddr: 0x17248, symBinAddr: 0x100018158, symSize: 0x10 }
  - { offsetInCU: 0x6BDDA, offset: 0x6BDDA, size: 0x8, addend: 0x0, symName: __ZNSt3__110shared_ptrIN4spot8bdd_dictEEC2B7v160006Ev, symObjAddr: 0x17258, symBinAddr: 0x100018168, symSize: 0x1C }
  - { offsetInCU: 0x6BE04, offset: 0x6BE04, size: 0x8, addend: 0x0, symName: __ZNSt3__120__shared_ptr_emplaceIN4spot8bdd_dictENS_9allocatorIS2_EEE8_Storage10__get_elemEv, symObjAddr: 0x17274, symBinAddr: 0x100018184, symSize: 0x3C }
  - { offsetInCU: 0x6BE57, offset: 0x6BE57, size: 0x8, addend: 0x0, symName: __ZNSt3__117__compressed_pairINS_9allocatorIN4spot8bdd_dictEEES3_E17__get_second_baseB7v160006EPS5_, symObjAddr: 0x172B0, symBinAddr: 0x1000181C0, symSize: 0x14 }
  - { offsetInCU: 0x6BE7A, offset: 0x6BE7A, size: 0x8, addend: 0x0, symName: __ZNSt3__118__allocation_guardINS_9allocatorINS_20__shared_ptr_emplaceIN4spot8bdd_dictENS1_IS4_EEEEEEED2B7v160006Ev, symObjAddr: 0x172C4, symBinAddr: 0x1000181D4, symSize: 0x58 }
  - { offsetInCU: 0x6BEA4, offset: 0x6BEA4, size: 0x8, addend: 0x0, symName: __ZNSt3__19allocatorIN4spot8bdd_dictEEC2B7v160006Ev, symObjAddr: 0x1731C, symBinAddr: 0x10001822C, symSize: 0x2C }
  - { offsetInCU: 0x6BECE, offset: 0x6BECE, size: 0x8, addend: 0x0, symName: __ZNSt3__116__non_trivial_ifILb1ENS_9allocatorIN4spot8bdd_dictEEEEC2B7v160006Ev, symObjAddr: 0x17348, symBinAddr: 0x100018258, symSize: 0x14 }
  - { offsetInCU: 0x6BEF8, offset: 0x6BEF8, size: 0x8, addend: 0x0, symName: __ZN4spot13postprocessor8set_typeENS0_11output_typeE, symObjAddr: 0x1735C, symBinAddr: 0x10001826C, symSize: 0x20 }
  - { offsetInCU: 0x6BF2C, offset: 0x6BF2C, size: 0x8, addend: 0x0, symName: __ZN4spot13postprocessor8set_prefEi, symObjAddr: 0x1737C, symBinAddr: 0x10001828C, symSize: 0x20 }
  - { offsetInCU: 0x6BF60, offset: 0x6BF60, size: 0x8, addend: 0x0, symName: __ZN4spot7formulaC2ERKS0_, symObjAddr: 0x1739C, symBinAddr: 0x1000182AC, symSize: 0x6C }
  - { offsetInCU: 0x6BF99, offset: 0x6BF99, size: 0x8, addend: 0x0, symName: __ZNK4spot5fnode5cloneEv, symObjAddr: 0x17408, symBinAddr: 0x100018318, symSize: 0x4C }
  - { offsetInCU: 0x6BFBF, offset: 0x6BFBF, size: 0x8, addend: 0x0, symName: __ZN4spot10translatorD2Ev, symObjAddr: 0x17454, symBinAddr: 0x100018364, symSize: 0x58 }
  - { offsetInCU: 0x6BFE9, offset: 0x6BFE9, size: 0x8, addend: 0x0, symName: __ZNSt3__114basic_ofstreamIcNS_11char_traitsIcEEED2Ev, symObjAddr: 0x174AC, symBinAddr: 0x1000183BC, symSize: 0x64 }
  - { offsetInCU: 0x6C023, offset: 0x6C023, size: 0x8, addend: 0x0, symName: __ZTv0_n24_NSt3__114basic_ofstreamIcNS_11char_traitsIcEEED1Ev, symObjAddr: 0x17510, symBinAddr: 0x100018420, symSize: 0x28 }
  - { offsetInCU: 0x6C03A, offset: 0x6C03A, size: 0x8, addend: 0x0, symName: __ZN4spot7formula4unopENS_2opERKS0_, symObjAddr: 0x17538, symBinAddr: 0x100018448, symSize: 0x54 }
  - { offsetInCU: 0x6C06D, offset: 0x6C06D, size: 0x8, addend: 0x0, symName: __ZNKSt3__112basic_stringIcNS_11char_traitsIcEENS_9allocatorIcEEE4dataB7v160006Ev, symObjAddr: 0x1758C, symBinAddr: 0x10001849C, symSize: 0x28 }
  - { offsetInCU: 0x6C093, offset: 0x6C093, size: 0x8, addend: 0x0, symName: __ZNKSt3__112basic_stringIcNS_11char_traitsIcEENS_9allocatorIcEEE13__get_pointerB7v160006Ev, symObjAddr: 0x175C8, symBinAddr: 0x1000184D8, symSize: 0x54 }
  - { offsetInCU: 0x6C0B9, offset: 0x6C0B9, size: 0x8, addend: 0x0, symName: __ZNKSt3__112basic_stringIcNS_11char_traitsIcEENS_9allocatorIcEEE9__is_longB7v160006Ev, symObjAddr: 0x1761C, symBinAddr: 0x10001852C, symSize: 0x38 }
  - { offsetInCU: 0x6C0DF, offset: 0x6C0DF, size: 0x8, addend: 0x0, symName: __ZNKSt3__112basic_stringIcNS_11char_traitsIcEENS_9allocatorIcEEE18__get_long_pointerB7v160006Ev, symObjAddr: 0x17654, symBinAddr: 0x100018564, symSize: 0x28 }
  - { offsetInCU: 0x6C105, offset: 0x6C105, size: 0x8, addend: 0x0, symName: __ZNKSt3__112basic_stringIcNS_11char_traitsIcEENS_9allocatorIcEEE19__get_short_pointerB7v160006Ev, symObjAddr: 0x1767C, symBinAddr: 0x10001858C, symSize: 0x28 }
  - { offsetInCU: 0x6C12B, offset: 0x6C12B, size: 0x8, addend: 0x0, symName: __ZNKSt3__117__compressed_pairINS_12basic_stringIcNS_11char_traitsIcEENS_9allocatorIcEEE5__repES5_E5firstB7v160006Ev, symObjAddr: 0x176A4, symBinAddr: 0x1000185B4, symSize: 0x24 }
  - { offsetInCU: 0x6C151, offset: 0x6C151, size: 0x8, addend: 0x0, symName: __ZNKSt3__122__compressed_pair_elemINS_12basic_stringIcNS_11char_traitsIcEENS_9allocatorIcEEE5__repELi0ELb0EE5__getB7v160006Ev, symObjAddr: 0x176C8, symBinAddr: 0x1000185D8, symSize: 0x14 }
  - { offsetInCU: 0x6C177, offset: 0x6C177, size: 0x8, addend: 0x0, symName: __ZNSt3__114pointer_traitsIPKcE10pointer_toB7v160006ERS1_, symObjAddr: 0x176DC, symBinAddr: 0x1000185EC, symSize: 0x14 }
  - { offsetInCU: 0x6C19A, offset: 0x6C19A, size: 0x8, addend: 0x0, symName: __ZNKSt3__112basic_stringIcNS_11char_traitsIcEENS_9allocatorIcEEE4sizeB7v160006Ev, symObjAddr: 0x176F0, symBinAddr: 0x100018600, symSize: 0x54 }
  - { offsetInCU: 0x6C1C0, offset: 0x6C1C0, size: 0x8, addend: 0x0, symName: __ZNKSt3__112basic_stringIcNS_11char_traitsIcEENS_9allocatorIcEEE15__get_long_sizeB7v160006Ev, symObjAddr: 0x17744, symBinAddr: 0x100018654, symSize: 0x28 }
  - { offsetInCU: 0x6C1E6, offset: 0x6C1E6, size: 0x8, addend: 0x0, symName: __ZNKSt3__112basic_stringIcNS_11char_traitsIcEENS_9allocatorIcEEE16__get_short_sizeB7v160006Ev, symObjAddr: 0x1776C, symBinAddr: 0x10001867C, symSize: 0x34 }
  - { offsetInCU: 0x6C20C, offset: 0x6C20C, size: 0x8, addend: 0x0, symName: __ZNSt3__16__treeINS_12__value_typeIN4spot7formulaEiEENS_19__map_value_compareIS3_S4_NS_4lessIS3_EELb1EEENS_9allocatorIS4_EEE12__find_equalIS3_EERPNS_16__tree_node_baseIPvEERPNS_15__tree_end_nodeISG_EERKT_, symObjAddr: 0x177A0, symBinAddr: 0x1000186B0, symSize: 0x184 }
  - { offsetInCU: 0x6C279, offset: 0x6C279, size: 0x8, addend: 0x0, symName: __ZNSt3__112__value_typeIN4spot7formulaEiE11__get_valueB7v160006Ev, symObjAddr: 0x17988, symBinAddr: 0x100018898, symSize: 0x24 }
  - { offsetInCU: 0x6C29F, offset: 0x6C29F, size: 0x8, addend: 0x0, symName: __ZNKSt3__16__treeINS_12__value_typeIN4spot7formulaEiEENS_19__map_value_compareIS3_S4_NS_4lessIS3_EELb1EEENS_9allocatorIS4_EEE6__rootB7v160006Ev, symObjAddr: 0x179AC, symBinAddr: 0x1000188BC, symSize: 0x28 }
  - { offsetInCU: 0x6C2C5, offset: 0x6C2C5, size: 0x8, addend: 0x0, symName: __ZNKSt3__16__treeINS_12__value_typeIN4spot7formulaEiEENS_19__map_value_compareIS3_S4_NS_4lessIS3_EELb1EEENS_9allocatorIS4_EEE10__root_ptrEv, symObjAddr: 0x179D4, symBinAddr: 0x1000188E4, symSize: 0x24 }
  - { offsetInCU: 0x6C2EB, offset: 0x6C2EB, size: 0x8, addend: 0x0, symName: __ZNSt3__16__treeINS_12__value_typeIN4spot7formulaEiEENS_19__map_value_compareIS3_S4_NS_4lessIS3_EELb1EEENS_9allocatorIS4_EEE10value_compB7v160006Ev, symObjAddr: 0x179F8, symBinAddr: 0x100018908, symSize: 0x28 }
  - { offsetInCU: 0x6C311, offset: 0x6C311, size: 0x8, addend: 0x0, symName: __ZNKSt3__119__map_value_compareIN4spot7formulaENS_12__value_typeIS2_iEENS_4lessIS2_EELb1EEclB7v160006ERKS2_RKS4_, symObjAddr: 0x17A20, symBinAddr: 0x100018930, symSize: 0x50 }
  - { offsetInCU: 0x6C355, offset: 0x6C355, size: 0x8, addend: 0x0, symName: __ZNKSt3__119__map_value_compareIN4spot7formulaENS_12__value_typeIS2_iEENS_4lessIS2_EELb1EEclB7v160006ERKS4_RKS2_, symObjAddr: 0x17A70, symBinAddr: 0x100018980, symSize: 0x48 }
  - { offsetInCU: 0x6C399, offset: 0x6C399, size: 0x8, addend: 0x0, symName: __ZNSt3__16__treeINS_12__value_typeIN4spot7formulaEiEENS_19__map_value_compareIS3_S4_NS_4lessIS3_EELb1EEENS_9allocatorIS4_EEE10__end_nodeB7v160006Ev, symObjAddr: 0x17AB8, symBinAddr: 0x1000189C8, symSize: 0x2C }
  - { offsetInCU: 0x6C3BF, offset: 0x6C3BF, size: 0x8, addend: 0x0, symName: __ZNKSt3__16__treeINS_12__value_typeIN4spot7formulaEiEENS_19__map_value_compareIS3_S4_NS_4lessIS3_EELb1EEENS_9allocatorIS4_EEE10__end_nodeB7v160006Ev, symObjAddr: 0x17AE4, symBinAddr: 0x1000189F4, symSize: 0x2C }
  - { offsetInCU: 0x6C3E5, offset: 0x6C3E5, size: 0x8, addend: 0x0, symName: __ZNSt3__114pointer_traitsIPNS_15__tree_end_nodeIPNS_16__tree_node_baseIPvEEEEE10pointer_toB7v160006ERS6_, symObjAddr: 0x17B10, symBinAddr: 0x100018A20, symSize: 0x14 }
  - { offsetInCU: 0x6C408, offset: 0x6C408, size: 0x8, addend: 0x0, symName: __ZNKSt3__117__compressed_pairINS_15__tree_end_nodeIPNS_16__tree_node_baseIPvEEEENS_9allocatorINS_11__tree_nodeINS_12__value_typeIN4spot7formulaEiEES3_EEEEE5firstB7v160006Ev, symObjAddr: 0x17B24, symBinAddr: 0x100018A34, symSize: 0x24 }
  - { offsetInCU: 0x6C42E, offset: 0x6C42E, size: 0x8, addend: 0x0, symName: __ZNKSt3__122__compressed_pair_elemINS_15__tree_end_nodeIPNS_16__tree_node_baseIPvEEEELi0ELb0EE5__getB7v160006Ev, symObjAddr: 0x17B48, symBinAddr: 0x100018A58, symSize: 0x14 }
  - { offsetInCU: 0x6C454, offset: 0x6C454, size: 0x8, addend: 0x0, symName: __ZNSt3__117__compressed_pairImNS_19__map_value_compareIN4spot7formulaENS_12__value_typeIS3_iEENS_4lessIS3_EELb1EEEE6secondB7v160006Ev, symObjAddr: 0x17B5C, symBinAddr: 0x100018A6C, symSize: 0x24 }
  - { offsetInCU: 0x6C47A, offset: 0x6C47A, size: 0x8, addend: 0x0, symName: __ZNSt3__122__compressed_pair_elemINS_19__map_value_compareIN4spot7formulaENS_12__value_typeIS3_iEENS_4lessIS3_EELb1EEELi1ELb1EE5__getB7v160006Ev, symObjAddr: 0x17B80, symBinAddr: 0x100018A90, symSize: 0x14 }
  - { offsetInCU: 0x6C4A0, offset: 0x6C4A0, size: 0x8, addend: 0x0, symName: __ZNKSt3__14lessIN4spot7formulaEEclB7v160006ERKS2_S5_, symObjAddr: 0x17B94, symBinAddr: 0x100018AA4, symSize: 0x34 }
  - { offsetInCU: 0x6C4E4, offset: 0x6C4E4, size: 0x8, addend: 0x0, symName: __ZNKSt3__112__value_typeIN4spot7formulaEiE11__get_valueB7v160006Ev, symObjAddr: 0x17BC8, symBinAddr: 0x100018AD8, symSize: 0x24 }
  - { offsetInCU: 0x6C50A, offset: 0x6C50A, size: 0x8, addend: 0x0, symName: __ZNK4spot7formulaltERKS0_, symObjAddr: 0x17BEC, symBinAddr: 0x100018AFC, symSize: 0x14C }
  - { offsetInCU: 0x6C53F, offset: 0x6C53F, size: 0x8, addend: 0x0, symName: __ZNK4spot7formula2idEv, symObjAddr: 0x17D38, symBinAddr: 0x100018C48, symSize: 0x28 }
  - { offsetInCU: 0x6C565, offset: 0x6C565, size: 0x8, addend: 0x0, symName: __ZNK4spot5fnode2idEv, symObjAddr: 0x17D60, symBinAddr: 0x100018C70, symSize: 0x18 }
  - { offsetInCU: 0x6C58B, offset: 0x6C58B, size: 0x8, addend: 0x0, symName: __ZNSt3__117__compressed_pairINS_15__tree_end_nodeIPNS_16__tree_node_baseIPvEEEENS_9allocatorINS_11__tree_nodeINS_12__value_typeIN4spot7formulaEiEES3_EEEEE5firstB7v160006Ev, symObjAddr: 0x17DB0, symBinAddr: 0x100018CC0, symSize: 0x24 }
  - { offsetInCU: 0x6C5B1, offset: 0x6C5B1, size: 0x8, addend: 0x0, symName: __ZNSt3__122__compressed_pair_elemINS_15__tree_end_nodeIPNS_16__tree_node_baseIPvEEEELi0ELb0EE5__getB7v160006Ev, symObjAddr: 0x17DD4, symBinAddr: 0x100018CE4, symSize: 0x14 }
  - { offsetInCU: 0x6C5D7, offset: 0x6C5D7, size: 0x8, addend: 0x0, symName: __ZNSt12out_of_rangeC1B7v160006EPKc, symObjAddr: 0x17DE8, symBinAddr: 0x100018CF8, symSize: 0x34 }
  - { offsetInCU: 0x6C60F, offset: 0x6C60F, size: 0x8, addend: 0x0, symName: __ZNSt12out_of_rangeC2B7v160006EPKc, symObjAddr: 0x17E1C, symBinAddr: 0x100018D2C, symSize: 0x4C }
  - { offsetInCU: 0x6C647, offset: 0x6C647, size: 0x8, addend: 0x0, symName: __ZNSt3__110shared_ptrIN4spot8bdd_dictEED2B7v160006Ev, symObjAddr: 0x17EA0, symBinAddr: 0x100018DB0, symSize: 0x54 }
  - { offsetInCU: 0x6C671, offset: 0x6C671, size: 0x8, addend: 0x0, symName: __ZNSt3__111char_traitsIcE6lengthEPKc, symObjAddr: 0x180E0, symBinAddr: 0x100018FF0, symSize: 0x34 }
  - { offsetInCU: 0x6C6AF, offset: 0x6C6AF, size: 0x8, addend: 0x0, symName: __ZNKSt3__113basic_ostreamIcNS_11char_traitsIcEEE6sentrycvbB7v160006Ev, symObjAddr: 0x18114, symBinAddr: 0x100019024, symSize: 0x1C }
  - { offsetInCU: 0x6C6D5, offset: 0x6C6D5, size: 0x8, addend: 0x0, symName: __ZNSt3__119ostreambuf_iteratorIcNS_11char_traitsIcEEEC1B7v160006ERNS_13basic_ostreamIcS2_EE, symObjAddr: 0x18370, symBinAddr: 0x100019280, symSize: 0x34 }
  - { offsetInCU: 0x6C70D, offset: 0x6C70D, size: 0x8, addend: 0x0, symName: __ZNKSt3__18ios_base5flagsB7v160006Ev, symObjAddr: 0x183A4, symBinAddr: 0x1000192B4, symSize: 0x18 }
  - { offsetInCU: 0x6C735, offset: 0x6C735, size: 0x8, addend: 0x0, symName: __ZNKSt3__19basic_iosIcNS_11char_traitsIcEEE4fillB7v160006Ev, symObjAddr: 0x183BC, symBinAddr: 0x1000192CC, symSize: 0x64 }
  - { offsetInCU: 0x6C75D, offset: 0x6C75D, size: 0x8, addend: 0x0, symName: __ZNKSt3__119ostreambuf_iteratorIcNS_11char_traitsIcEEE6failedB7v160006Ev, symObjAddr: 0x18420, symBinAddr: 0x100019330, symSize: 0x24 }
  - { offsetInCU: 0x6C783, offset: 0x6C783, size: 0x8, addend: 0x0, symName: __ZNSt3__19basic_iosIcNS_11char_traitsIcEEE8setstateB7v160006Ej, symObjAddr: 0x18444, symBinAddr: 0x100019354, symSize: 0x2C }
  - { offsetInCU: 0x6C7B8, offset: 0x6C7B8, size: 0x8, addend: 0x0, symName: __ZNKSt3__18ios_base5widthB7v160006Ev, symObjAddr: 0x18470, symBinAddr: 0x100019380, symSize: 0x18 }
  - { offsetInCU: 0x6C7E0, offset: 0x6C7E0, size: 0x8, addend: 0x0, symName: __ZNSt3__115basic_streambufIcNS_11char_traitsIcEEE5sputnB7v160006EPKcl, symObjAddr: 0x18488, symBinAddr: 0x100019398, symSize: 0x3C }
  - { offsetInCU: 0x6C822, offset: 0x6C822, size: 0x8, addend: 0x0, symName: __ZNSt3__112basic_stringIcNS_11char_traitsIcEENS_9allocatorIcEEEC1B7v160006Emc, symObjAddr: 0x184C4, symBinAddr: 0x1000193D4, symSize: 0x3C }
  - { offsetInCU: 0x6C86A, offset: 0x6C86A, size: 0x8, addend: 0x0, symName: __ZNSt3__112basic_stringIcNS_11char_traitsIcEENS_9allocatorIcEEE4dataB7v160006Ev, symObjAddr: 0x18500, symBinAddr: 0x100019410, symSize: 0x28 }
  - { offsetInCU: 0x6C890, offset: 0x6C890, size: 0x8, addend: 0x0, symName: __ZNSt3__18ios_base5widthB7v160006El, symObjAddr: 0x18528, symBinAddr: 0x100019438, symSize: 0x2C }
  - { offsetInCU: 0x6C8D6, offset: 0x6C8D6, size: 0x8, addend: 0x0, symName: __ZNSt3__112basic_stringIcNS_11char_traitsIcEENS_9allocatorIcEEEC2B7v160006Emc, symObjAddr: 0x18554, symBinAddr: 0x100019464, symSize: 0x54 }
  - { offsetInCU: 0x6C91E, offset: 0x6C91E, size: 0x8, addend: 0x0, symName: __ZNSt3__117__compressed_pairINS_12basic_stringIcNS_11char_traitsIcEENS_9allocatorIcEEE5__repES5_EC1B7v160006INS_18__default_init_tagESA_EEOT_OT0_, symObjAddr: 0x185A8, symBinAddr: 0x1000194B8, symSize: 0x3C }
  - { offsetInCU: 0x6C976, offset: 0x6C976, size: 0x8, addend: 0x0, symName: __ZNSt3__117__compressed_pairINS_12basic_stringIcNS_11char_traitsIcEENS_9allocatorIcEEE5__repES5_EC2B7v160006INS_18__default_init_tagESA_EEOT_OT0_, symObjAddr: 0x185F4, symBinAddr: 0x100019504, symSize: 0x3C }
  - { offsetInCU: 0x6C9CE, offset: 0x6C9CE, size: 0x8, addend: 0x0, symName: __ZNSt3__122__compressed_pair_elemINS_12basic_stringIcNS_11char_traitsIcEENS_9allocatorIcEEE5__repELi0ELb0EEC2B7v160006ENS_18__default_init_tagE, symObjAddr: 0x18630, symBinAddr: 0x100019540, symSize: 0x14 }
  - { offsetInCU: 0x6CA02, offset: 0x6CA02, size: 0x8, addend: 0x0, symName: __ZNSt3__122__compressed_pair_elemINS_9allocatorIcEELi1ELb1EEC2B7v160006ENS_18__default_init_tagE, symObjAddr: 0x18644, symBinAddr: 0x100019554, symSize: 0x2C }
  - { offsetInCU: 0x6CA36, offset: 0x6CA36, size: 0x8, addend: 0x0, symName: __ZNSt3__19allocatorIcEC2B7v160006Ev, symObjAddr: 0x18670, symBinAddr: 0x100019580, symSize: 0x2C }
  - { offsetInCU: 0x6CA60, offset: 0x6CA60, size: 0x8, addend: 0x0, symName: __ZNSt3__116__non_trivial_ifILb1ENS_9allocatorIcEEEC2B7v160006Ev, symObjAddr: 0x1869C, symBinAddr: 0x1000195AC, symSize: 0x14 }
  - { offsetInCU: 0x6CA8A, offset: 0x6CA8A, size: 0x8, addend: 0x0, symName: __ZNSt3__112basic_stringIcNS_11char_traitsIcEENS_9allocatorIcEEE13__get_pointerB7v160006Ev, symObjAddr: 0x186C4, symBinAddr: 0x1000195D4, symSize: 0x54 }
  - { offsetInCU: 0x6CAB0, offset: 0x6CAB0, size: 0x8, addend: 0x0, symName: __ZNSt3__112basic_stringIcNS_11char_traitsIcEENS_9allocatorIcEEE18__get_long_pointerB7v160006Ev, symObjAddr: 0x18718, symBinAddr: 0x100019628, symSize: 0x28 }
  - { offsetInCU: 0x6CAD6, offset: 0x6CAD6, size: 0x8, addend: 0x0, symName: __ZNSt3__112basic_stringIcNS_11char_traitsIcEENS_9allocatorIcEEE19__get_short_pointerB7v160006Ev, symObjAddr: 0x18740, symBinAddr: 0x100019650, symSize: 0x28 }
  - { offsetInCU: 0x6CAFC, offset: 0x6CAFC, size: 0x8, addend: 0x0, symName: __ZNSt3__117__compressed_pairINS_12basic_stringIcNS_11char_traitsIcEENS_9allocatorIcEEE5__repES5_E5firstB7v160006Ev, symObjAddr: 0x18768, symBinAddr: 0x100019678, symSize: 0x24 }
  - { offsetInCU: 0x6CB22, offset: 0x6CB22, size: 0x8, addend: 0x0, symName: __ZNSt3__122__compressed_pair_elemINS_12basic_stringIcNS_11char_traitsIcEENS_9allocatorIcEEE5__repELi0ELb0EE5__getB7v160006Ev, symObjAddr: 0x1878C, symBinAddr: 0x10001969C, symSize: 0x14 }
  - { offsetInCU: 0x6CB48, offset: 0x6CB48, size: 0x8, addend: 0x0, symName: __ZNSt3__114pointer_traitsIPcE10pointer_toB7v160006ERc, symObjAddr: 0x187A0, symBinAddr: 0x1000196B0, symSize: 0x14 }
  - { offsetInCU: 0x6CB6B, offset: 0x6CB6B, size: 0x8, addend: 0x0, symName: __ZNSt3__119ostreambuf_iteratorIcNS_11char_traitsIcEEEC2B7v160006ERNS_13basic_ostreamIcS2_EE, symObjAddr: 0x187B4, symBinAddr: 0x1000196C4, symSize: 0x54 }
  - { offsetInCU: 0x6CBA3, offset: 0x6CBA3, size: 0x8, addend: 0x0, symName: __ZNKSt3__19basic_iosIcNS_11char_traitsIcEEE5rdbufB7v160006Ev, symObjAddr: 0x18808, symBinAddr: 0x100019718, symSize: 0x24 }
  - { offsetInCU: 0x6CBCB, offset: 0x6CBCB, size: 0x8, addend: 0x0, symName: __ZNKSt3__18ios_base5rdbufB7v160006Ev, symObjAddr: 0x1882C, symBinAddr: 0x10001973C, symSize: 0x18 }
  - { offsetInCU: 0x6CBF1, offset: 0x6CBF1, size: 0x8, addend: 0x0, symName: __ZNSt3__111char_traitsIcE11eq_int_typeEii, symObjAddr: 0x18844, symBinAddr: 0x100019754, symSize: 0x28 }
  - { offsetInCU: 0x6CC22, offset: 0x6CC22, size: 0x8, addend: 0x0, symName: __ZNSt3__111char_traitsIcE3eofEv, symObjAddr: 0x1886C, symBinAddr: 0x10001977C, symSize: 0x8 }
  - { offsetInCU: 0x6CC36, offset: 0x6CC36, size: 0x8, addend: 0x0, symName: __ZNKSt3__19basic_iosIcNS_11char_traitsIcEEE5widenB7v160006Ec, symObjAddr: 0x18874, symBinAddr: 0x100019784, symSize: 0x84 }
  - { offsetInCU: 0x6CC9F, offset: 0x6CC9F, size: 0x8, addend: 0x0, symName: __ZNKSt3__15ctypeIcE5widenB7v160006Ec, symObjAddr: 0x18924, symBinAddr: 0x100019834, symSize: 0x38 }
  - { offsetInCU: 0x6CCD4, offset: 0x6CCD4, size: 0x8, addend: 0x0, symName: __ZNSt3__18ios_base8setstateB7v160006Ej, symObjAddr: 0x1895C, symBinAddr: 0x10001986C, symSize: 0x34 }
  - { offsetInCU: 0x6CD0B, offset: 0x6CD0B, size: 0x8, addend: 0x0, symName: __ZNSt3__110shared_ptrIN4spot8bdd_dictEEC2B7v160006ERKS3_, symObjAddr: 0x189B4, symBinAddr: 0x1000198C4, symSize: 0x70 }
  - { offsetInCU: 0x6CD44, offset: 0x6CD44, size: 0x8, addend: 0x0, symName: __ZNSt3__110shared_ptrIKN4spot3twaEED2B7v160006Ev, symObjAddr: 0x18A24, symBinAddr: 0x100019934, symSize: 0x54 }
  - { offsetInCU: 0x6CD6E, offset: 0x6CD6E, size: 0x8, addend: 0x0, symName: __ZNSt3__16vectorIjNS_9allocatorIjEEED2B7v160006Ev, symObjAddr: 0x18A78, symBinAddr: 0x100019988, symSize: 0x44 }
  - { offsetInCU: 0x6CD98, offset: 0x6CD98, size: 0x8, addend: 0x0, symName: __ZNSt3__110shared_ptrIN4spot9twa_graphEED2B7v160006Ev, symObjAddr: 0x18ABC, symBinAddr: 0x1000199CC, symSize: 0x54 }
  - { offsetInCU: 0x6CDC2, offset: 0x6CDC2, size: 0x8, addend: 0x0, symName: __ZNSt3__110shared_ptrIN4spot8twa_wordEED2B7v160006Ev, symObjAddr: 0x18B10, symBinAddr: 0x100019A20, symSize: 0x54 }
  - { offsetInCU: 0x6CDEC, offset: 0x6CDEC, size: 0x8, addend: 0x0, symName: __ZNSt3__112basic_stringIcNS_11char_traitsIcEENS_9allocatorIcEEEC2B7v160006IDnEEPKc, symObjAddr: 0x18B64, symBinAddr: 0x100019A74, symSize: 0x60 }
  - { offsetInCU: 0x6CE35, offset: 0x6CE35, size: 0x8, addend: 0x0, symName: __ZN5boost6tuples6detail10drop_frontILm0EE5applyINS0_4consIjNS5_IjNS0_9null_typeEEEEEE4callERKS8_, symObjAddr: 0x18BE8, symBinAddr: 0x100019AF8, symSize: 0x14 }
  - { offsetInCU: 0x6CE63, offset: 0x6CE63, size: 0x8, addend: 0x0, symName: __ZN5boost6tuples6detail10drop_frontILm1EE5applyINS0_4consIjNS5_IjNS0_9null_typeEEEEEE4callERKS8_, symObjAddr: 0x18C20, symBinAddr: 0x100019B30, symSize: 0x28 }
  - { offsetInCU: 0x6CE90, offset: 0x6CE90, size: 0x8, addend: 0x0, symName: __ZNK5boost4hashIjEclERKj, symObjAddr: 0x18C6C, symBinAddr: 0x100019B7C, symSize: 0x2C }
  - { offsetInCU: 0x6CEC5, offset: 0x6CEC5, size: 0x8, addend: 0x0, symName: __ZN5boost11hash_detail13hash_mix_implILm64EE2fnEy, symObjAddr: 0x18C98, symBinAddr: 0x100019BA8, symSize: 0x70 }
  - { offsetInCU: 0x6CEF7, offset: 0x6CEF7, size: 0x8, addend: 0x0, symName: __ZN5boost11hash_detail18hash_integral_implIjLb0ELb1ELm64ELm32EE2fnEj, symObjAddr: 0x18D2C, symBinAddr: 0x100019C3C, symSize: 0x18 }
  - { offsetInCU: 0x6CF1A, offset: 0x6CF1A, size: 0x8, addend: 0x0, symName: __ZN4spot8internal13edge_iteratorINS_7digraphINS_15twa_graph_stateENS_19twa_graph_edge_dataEEEEC1EPS5_j, symObjAddr: 0x18D44, symBinAddr: 0x100019C54, symSize: 0x3C }
  - { offsetInCU: 0x6CF62, offset: 0x6CF62, size: 0x8, addend: 0x0, symName: __ZN4spot8internal13edge_iteratorINS_7digraphINS_15twa_graph_stateENS_19twa_graph_edge_dataEEEEC2EPS5_j, symObjAddr: 0x18D80, symBinAddr: 0x100019C90, symSize: 0x2C }
  - { offsetInCU: 0x6CFAA, offset: 0x6CFAA, size: 0x8, addend: 0x0, symName: __ZN4spot8internal13edge_iteratorINS_7digraphINS_15twa_graph_stateENS_19twa_graph_edge_dataEEEEC1Ev, symObjAddr: 0x18DAC, symBinAddr: 0x100019CBC, symSize: 0x2C }
  - { offsetInCU: 0x6CFD4, offset: 0x6CFD4, size: 0x8, addend: 0x0, symName: __ZN4spot8internal13edge_iteratorINS_7digraphINS_15twa_graph_stateENS_19twa_graph_edge_dataEEEEC2Ev, symObjAddr: 0x18DD8, symBinAddr: 0x100019CE8, symSize: 0x1C }
  - { offsetInCU: 0x6CFFE, offset: 0x6CFFE, size: 0x8, addend: 0x0, symName: __ZN4spot7digraphINS_15twa_graph_stateENS_19twa_graph_edge_dataEE12edge_storageEj, symObjAddr: 0x18DF4, symBinAddr: 0x100019D04, symSize: 0x34 }
  - { offsetInCU: 0x6D033, offset: 0x6D033, size: 0x8, addend: 0x0, symName: __ZNSt3__110shared_ptrIN4spot9twa_graphEEC2B7v160006ERKS3_, symObjAddr: 0x18E28, symBinAddr: 0x100019D38, symSize: 0x70 }
  - { offsetInCU: 0x6D06C, offset: 0x6D06C, size: 0x8, addend: 0x0, symName: __ZNK5boost9unordered6detail5tableINS1_3mapINSt3__19allocatorINS4_4pairIK4PairjEEEES7_jNS_4hashIS7_EENS4_8equal_toIS7_EEEEE5beginEv, symObjAddr: 0x18E98, symBinAddr: 0x100019DA8, symSize: 0x90 }
  - { offsetInCU: 0x6D0A1, offset: 0x6D0A1, size: 0x8, addend: 0x0, symName: __ZNK5boost9unordered6detail5tableINS1_3mapINSt3__19allocatorINS4_4pairIK4PairjEEEES7_jNS_4hashIS7_EENS4_8equal_toIS7_EEEEE3endEv, symObjAddr: 0x18F28, symBinAddr: 0x100019E38, symSize: 0x2C }
  - { offsetInCU: 0x6D0C7, offset: 0x6D0C7, size: 0x8, addend: 0x0, symName: __ZNK5boost9unordered6detail20grouped_bucket_arrayINS1_6bucketINS1_4nodeINSt3__14pairIK4PairjEEPvEESA_EENS5_9allocatorIS9_EENS1_15prime_fmod_sizeIvEEE5beginEv, symObjAddr: 0x18F54, symBinAddr: 0x100019E64, symSize: 0x80 }
  - { offsetInCU: 0x6D0ED, offset: 0x6D0ED, size: 0x8, addend: 0x0, symName: __ZNK5boost9unordered6detail23grouped_bucket_iteratorINS1_6bucketINS1_4nodeINSt3__14pairIK4PairjEEPvEESA_EEEptEv, symObjAddr: 0x18FD4, symBinAddr: 0x100019EE4, symSize: 0x28 }
  - { offsetInCU: 0x6D113, offset: 0x6D113, size: 0x8, addend: 0x0, symName: __ZN5boost9unordered6detail15iterator_detail8iteratorINS1_4nodeINSt3__14pairIK4PairjEEPvEENS1_6bucketISB_SA_EEEC1EPSB_NS1_23grouped_bucket_iteratorISD_EE, symObjAddr: 0x18FFC, symBinAddr: 0x100019F0C, symSize: 0x44 }
  - { offsetInCU: 0x6D15B, offset: 0x6D15B, size: 0x8, addend: 0x0, symName: __ZN5boost9unordered6detail15iterator_detail8iteratorINS1_4nodeINSt3__14pairIK4PairjEEPvEENS1_6bucketISB_SA_EEEC1Ev, symObjAddr: 0x19040, symBinAddr: 0x100019F50, symSize: 0x2C }
  - { offsetInCU: 0x6D185, offset: 0x6D185, size: 0x8, addend: 0x0, symName: __ZN5boost9unordered6detail15iterator_detail8iteratorINS1_4nodeINSt3__14pairIK4PairjEEPvEENS1_6bucketISB_SA_EEEC2Ev, symObjAddr: 0x1906C, symBinAddr: 0x100019F7C, symSize: 0x34 }
  - { offsetInCU: 0x6D1AF, offset: 0x6D1AF, size: 0x8, addend: 0x0, symName: __ZN5boost9unordered6detail23grouped_bucket_iteratorINS1_6bucketINS1_4nodeINSt3__14pairIK4PairjEEPvEESA_EEEC1Ev, symObjAddr: 0x190A0, symBinAddr: 0x100019FB0, symSize: 0x2C }
  - { offsetInCU: 0x6D1D9, offset: 0x6D1D9, size: 0x8, addend: 0x0, symName: __ZN5boost9unordered6detail23grouped_bucket_iteratorINS1_6bucketINS1_4nodeINSt3__14pairIK4PairjEEPvEESA_EEEC2Ev, symObjAddr: 0x190CC, symBinAddr: 0x100019FDC, symSize: 0x1C }
  - { offsetInCU: 0x6D203, offset: 0x6D203, size: 0x8, addend: 0x0, symName: __ZNK5boost9unordered6detail20grouped_bucket_arrayINS1_6bucketINS1_4nodeINSt3__14pairIK4PairjEEPvEESA_EENS5_9allocatorIS9_EENS1_15prime_fmod_sizeIvEEE3endEv, symObjAddr: 0x190E8, symBinAddr: 0x100019FF8, symSize: 0x54 }
  - { offsetInCU: 0x6D238, offset: 0x6D238, size: 0x8, addend: 0x0, symName: __ZNK5boost9unordered6detail20grouped_bucket_arrayINS1_6bucketINS1_4nodeINSt3__14pairIK4PairjEEPvEESA_EENS5_9allocatorIS9_EENS1_15prime_fmod_sizeIvEEE2atEm, symObjAddr: 0x1913C, symBinAddr: 0x10001A04C, symSize: 0x8C }
  - { offsetInCU: 0x6D29A, offset: 0x6D29A, size: 0x8, addend: 0x0, symName: __ZN5boost9unordered6detail23grouped_bucket_iteratorINS1_6bucketINS1_4nodeINSt3__14pairIK4PairjEEPvEESA_EEEppEv, symObjAddr: 0x191C8, symBinAddr: 0x10001A0D8, symSize: 0x2C }
  - { offsetInCU: 0x6D2C0, offset: 0x6D2C0, size: 0x8, addend: 0x0, symName: __ZNK5boost9unordered6detail20grouped_bucket_arrayINS1_6bucketINS1_4nodeINSt3__14pairIK4PairjEEPvEESA_EENS5_9allocatorIS9_EENS1_15prime_fmod_sizeIvEEE11buckets_lenEv, symObjAddr: 0x191F4, symBinAddr: 0x10001A104, symSize: 0x1C }
  - { offsetInCU: 0x6D2E6, offset: 0x6D2E6, size: 0x8, addend: 0x0, symName: __ZN5boost9unordered6detail23grouped_bucket_iteratorINS1_6bucketINS1_4nodeINSt3__14pairIK4PairjEEPvEESA_EEEC1EPSC_PNS1_12bucket_groupISC_EE, symObjAddr: 0x19210, symBinAddr: 0x10001A120, symSize: 0x3C }
  - { offsetInCU: 0x6D32C, offset: 0x6D32C, size: 0x8, addend: 0x0, symName: __ZN5boost9unordered6detail23grouped_bucket_iteratorINS1_6bucketINS1_4nodeINSt3__14pairIK4PairjEEPvEESA_EEEC2EPSC_PNS1_12bucket_groupISC_EE, symObjAddr: 0x1924C, symBinAddr: 0x10001A15C, symSize: 0x2C }
  - { offsetInCU: 0x6D372, offset: 0x6D372, size: 0x8, addend: 0x0, symName: __ZN5boost9unordered6detail23grouped_bucket_iteratorINS1_6bucketINS1_4nodeINSt3__14pairIK4PairjEEPvEESA_EEE9incrementEv, symObjAddr: 0x19278, symBinAddr: 0x10001A188, symSize: 0xF4 }
  - { offsetInCU: 0x6D3D4, offset: 0x6D3D4, size: 0x8, addend: 0x0, symName: __ZN5boost9unordered6detail15iterator_detail8iteratorINS1_4nodeINSt3__14pairIK4PairjEEPvEENS1_6bucketISB_SA_EEEC2EPSB_NS1_23grouped_bucket_iteratorISD_EE, symObjAddr: 0x19414, symBinAddr: 0x10001A324, symSize: 0x30 }
  - { offsetInCU: 0x6D41C, offset: 0x6D41C, size: 0x8, addend: 0x0, symName: __ZNK5boost9unordered6detail15iterator_detail8iteratorINS1_4nodeINSt3__14pairIK4PairjEEPvEENS1_6bucketISB_SA_EEE5equalERKSE_, symObjAddr: 0x19444, symBinAddr: 0x10001A354, symSize: 0x30 }
  - { offsetInCU: 0x6D451, offset: 0x6D451, size: 0x8, addend: 0x0, symName: __ZN5boost9unordered6detail15iterator_detail8iteratorINS1_4nodeINSt3__14pairIK4PairjEEPvEENS1_6bucketISB_SA_EEE9incrementEv, symObjAddr: 0x19474, symBinAddr: 0x10001A384, symSize: 0x64 }
  - { offsetInCU: 0x6D477, offset: 0x6D477, size: 0x8, addend: 0x0, symName: __ZNK5boost9unordered6detail15iterator_detail8iteratorINS1_4nodeINSt3__14pairIK4PairjEEPvEENS1_6bucketISB_SA_EEE11dereferenceEv, symObjAddr: 0x194D8, symBinAddr: 0x10001A3E8, symSize: 0x28 }
  - { offsetInCU: 0x6D49D, offset: 0x6D49D, size: 0x8, addend: 0x0, symName: __ZN5boost9unordered6detail4nodeINSt3__14pairIK4PairjEEPvE5valueEv, symObjAddr: 0x19500, symBinAddr: 0x10001A410, symSize: 0x28 }
  - { offsetInCU: 0x6D4C3, offset: 0x6D4C3, size: 0x8, addend: 0x0, symName: __ZN5boost9unordered6detail11opt_storageINSt3__14pairIK4PairjEEE7addressEv, symObjAddr: 0x19528, symBinAddr: 0x10001A438, symSize: 0x14 }
  - { offsetInCU: 0x6D4E9, offset: 0x6D4E9, size: 0x8, addend: 0x0, symName: __ZNK5boost9unordered6detail5tableINS1_3mapINSt3__19allocatorINS4_4pairIK4PairjEEEES7_jNS_4hashIS7_EENS4_8equal_toIS7_EEEEE9find_nodeIS7_EEPNS1_4nodeIS9_PvEERKT_, symObjAddr: 0x1953C, symBinAddr: 0x10001A44C, symSize: 0x80 }
  - { offsetInCU: 0x6D536, offset: 0x6D536, size: 0x8, addend: 0x0, symName: __ZNK5boost9unordered6detail5tableINS1_3mapINSt3__19allocatorINS4_4pairIK4PairjEEEES7_jNS_4hashIS7_EENS4_8equal_toIS7_EEEEE4hashIS7_EEmRKT_, symObjAddr: 0x195BC, symBinAddr: 0x10001A4CC, symSize: 0x30 }
  - { offsetInCU: 0x6D574, offset: 0x6D574, size: 0x8, addend: 0x0, symName: __ZNK5boost9unordered6detail5tableINS1_3mapINSt3__19allocatorINS4_4pairIK4PairjEEEES7_jNS_4hashIS7_EENS4_8equal_toIS7_EEEEE14find_node_implIS7_EEPNS1_4nodeIS9_PvEERKT_NS1_23grouped_bucket_iteratorINS1_6bucketISK_SJ_EEEE, symObjAddr: 0x195EC, symBinAddr: 0x10001A4FC, symSize: 0xF0 }
  - { offsetInCU: 0x6D5EE, offset: 0x6D5EE, size: 0x8, addend: 0x0, symName: __ZNK5boost9unordered6detail20grouped_bucket_arrayINS1_6bucketINS1_4nodeINSt3__14pairIK4PairjEEPvEESA_EENS5_9allocatorIS9_EENS1_15prime_fmod_sizeIvEEE8positionEm, symObjAddr: 0x196DC, symBinAddr: 0x10001A5EC, symSize: 0x30 }
  - { offsetInCU: 0x6D623, offset: 0x6D623, size: 0x8, addend: 0x0, symName: __ZNK5boost9unordered6detail9functionsINS_4hashI4PairEENSt3__18equal_toIS4_EEE13hash_functionEv, symObjAddr: 0x1970C, symBinAddr: 0x10001A61C, symSize: 0x28 }
  - { offsetInCU: 0x6D649, offset: 0x6D649, size: 0x8, addend: 0x0, symName: __ZNK5boost4hashI4PairEclERKS1_, symObjAddr: 0x19734, symBinAddr: 0x10001A644, symSize: 0x28 }
  - { offsetInCU: 0x6D67E, offset: 0x6D67E, size: 0x8, addend: 0x0, symName: __ZNK5boost9unordered6detail9functionsINS_4hashI4PairEENSt3__18equal_toIS4_EEE17current_functionsEv, symObjAddr: 0x1975C, symBinAddr: 0x10001A66C, symSize: 0x38 }
  - { offsetInCU: 0x6D6A4, offset: 0x6D6A4, size: 0x8, addend: 0x0, symName: __ZNK5boost9unordered6detail10compressedINS_4hashI4PairEENSt3__18equal_toIS4_EEE5firstEv, symObjAddr: 0x19794, symBinAddr: 0x10001A6A4, symSize: 0x24 }
  - { offsetInCU: 0x6D6CA, offset: 0x6D6CA, size: 0x8, addend: 0x0, symName: __ZNK5boost9unordered6detail11opt_storageINS1_10compressedINS_4hashI4PairEENSt3__18equal_toIS5_EEEEE7addressEv, symObjAddr: 0x197CC, symBinAddr: 0x10001A6DC, symSize: 0x14 }
  - { offsetInCU: 0x6D6F0, offset: 0x6D6F0, size: 0x8, addend: 0x0, symName: __ZNK5boost9unordered6detail15compressed_baseINS_4hashI4PairEELi1EE3getEv, symObjAddr: 0x197E0, symBinAddr: 0x10001A6F0, symSize: 0x24 }
  - { offsetInCU: 0x6D716, offset: 0x6D716, size: 0x8, addend: 0x0, symName: __ZNK5boost6empty_11empty_valueINS_4hashI4PairEELj0ELb1EE3getEv, symObjAddr: 0x19804, symBinAddr: 0x10001A714, symSize: 0x14 }
  - { offsetInCU: 0x6D73C, offset: 0x6D73C, size: 0x8, addend: 0x0, symName: __ZNK5boost9unordered6detail23grouped_bucket_iteratorINS1_6bucketINS1_4nodeINSt3__14pairIK4PairjEEPvEESA_EEEneERKSD_, symObjAddr: 0x19818, symBinAddr: 0x10001A728, symSize: 0x34 }
  - { offsetInCU: 0x6D770, offset: 0x6D770, size: 0x8, addend: 0x0, symName: __ZNK5boost9unordered6detail9functionsINS_4hashI4PairEENSt3__18equal_toIS4_EEE6key_eqEv, symObjAddr: 0x1984C, symBinAddr: 0x10001A75C, symSize: 0x28 }
  - { offsetInCU: 0x6D796, offset: 0x6D796, size: 0x8, addend: 0x0, symName: __ZNKSt3__18equal_toI4PairEclB7v160006ERKS1_S4_, symObjAddr: 0x19874, symBinAddr: 0x10001A784, symSize: 0x34 }
  - { offsetInCU: 0x6D7F5, offset: 0x6D7F5, size: 0x8, addend: 0x0, symName: __ZN5boost9unordered6detail13map_extractorINSt3__14pairIK4PairjEEE7extractERKS7_, symObjAddr: 0x198A8, symBinAddr: 0x10001A7B8, symSize: 0x14 }
  - { offsetInCU: 0x6D819, offset: 0x6D819, size: 0x8, addend: 0x0, symName: __ZNK5boost9unordered6detail23grouped_bucket_iteratorINS1_6bucketINS1_4nodeINSt3__14pairIK4PairjEEPvEESA_EEE5equalERKSD_, symObjAddr: 0x198BC, symBinAddr: 0x10001A7CC, symSize: 0x30 }
  - { offsetInCU: 0x6D84E, offset: 0x6D84E, size: 0x8, addend: 0x0, symName: __ZNK5boost9unordered6detail10compressedINS_4hashI4PairEENSt3__18equal_toIS4_EEE6secondEv, symObjAddr: 0x198EC, symBinAddr: 0x10001A7FC, symSize: 0x24 }
  - { offsetInCU: 0x6D874, offset: 0x6D874, size: 0x8, addend: 0x0, symName: __ZNK5boost9unordered6detail15compressed_baseINSt3__18equal_toI4PairEELi2EE3getEv, symObjAddr: 0x19910, symBinAddr: 0x10001A820, symSize: 0x24 }
  - { offsetInCU: 0x6D89A, offset: 0x6D89A, size: 0x8, addend: 0x0, symName: __ZNK5boost6empty_11empty_valueINSt3__18equal_toI4PairEELj0ELb1EE3getEv, symObjAddr: 0x19934, symBinAddr: 0x10001A844, symSize: 0x14 }
  - { offsetInCU: 0x6D8C0, offset: 0x6D8C0, size: 0x8, addend: 0x0, symName: __ZN5boost9unordered6detail15prime_fmod_sizeIvE8positionEmm, symObjAddr: 0x19948, symBinAddr: 0x10001A858, symSize: 0xC4 }
  - { offsetInCU: 0x6D900, offset: 0x6D900, size: 0x8, addend: 0x0, symName: __ZN5boost9unordered6detail15prime_fmod_sizeIvE11fast_moduloEjyj, symObjAddr: 0x19A0C, symBinAddr: 0x10001A91C, symSize: 0x40 }
  - { offsetInCU: 0x6D94E, offset: 0x6D94E, size: 0x8, addend: 0x0, symName: __ZN5boost9unordered6detail15prime_fmod_sizeIvE13get_remainderEyj, symObjAddr: 0x19A64, symBinAddr: 0x10001A974, symSize: 0x38 }
  - { offsetInCU: 0x6D97F, offset: 0x6D97F, size: 0x8, addend: 0x0, symName: __ZN5boost9unordered6detail15prime_fmod_sizeIvE8positionILm29ELm6442450939EEEmm, symObjAddr: 0x19A9C, symBinAddr: 0x10001A9AC, symSize: 0x2C }
  - { offsetInCU: 0x6D9BA, offset: 0x6D9BA, size: 0x8, addend: 0x0, symName: __ZN5boost9unordered6detail15prime_fmod_sizeIvE8positionILm30ELm12884901893EEEmm, symObjAddr: 0x19AC8, symBinAddr: 0x10001A9D8, symSize: 0x28 }
  - { offsetInCU: 0x6D9F5, offset: 0x6D9F5, size: 0x8, addend: 0x0, symName: __ZN5boost9unordered6detail15prime_fmod_sizeIvE8positionILm31ELm25769803751EEEmm, symObjAddr: 0x19AF0, symBinAddr: 0x10001AA00, symSize: 0x2C }
  - { offsetInCU: 0x6DA30, offset: 0x6DA30, size: 0x8, addend: 0x0, symName: __ZN5boost9unordered6detail15prime_fmod_sizeIvE8positionILm32ELm51539607551EEEmm, symObjAddr: 0x19B1C, symBinAddr: 0x10001AA2C, symSize: 0x28 }
  - { offsetInCU: 0x6DA6C, offset: 0x6DA6C, size: 0x8, addend: 0x0, symName: __ZN5boost9unordered6detail15prime_fmod_sizeIvE8positionILm33ELm103079215111EEEmm, symObjAddr: 0x19B44, symBinAddr: 0x10001AA54, symSize: 0x28 }
  - { offsetInCU: 0x6DAA8, offset: 0x6DAA8, size: 0x8, addend: 0x0, symName: __ZN5boost9unordered6detail15prime_fmod_sizeIvE8positionILm34ELm206158430209EEEmm, symObjAddr: 0x19B6C, symBinAddr: 0x10001AA7C, symSize: 0x28 }
  - { offsetInCU: 0x6DAE4, offset: 0x6DAE4, size: 0x8, addend: 0x0, symName: __ZN5boost9unordered6detail15prime_fmod_sizeIvE8positionILm35ELm412316860441EEEmm, symObjAddr: 0x19B94, symBinAddr: 0x10001AAA4, symSize: 0x28 }
  - { offsetInCU: 0x6DB20, offset: 0x6DB20, size: 0x8, addend: 0x0, symName: __ZN5boost9unordered6detail15prime_fmod_sizeIvE8positionILm36ELm824633720831EEEmm, symObjAddr: 0x19BBC, symBinAddr: 0x10001AACC, symSize: 0x28 }
  - { offsetInCU: 0x6DB5C, offset: 0x6DB5C, size: 0x8, addend: 0x0, symName: __ZN5boost9unordered6detail15prime_fmod_sizeIvE8positionILm37ELm1649267441651EEEmm, symObjAddr: 0x19BE4, symBinAddr: 0x10001AAF4, symSize: 0x2C }
  - { offsetInCU: 0x6DB98, offset: 0x6DB98, size: 0x8, addend: 0x0, symName: __ZN5boost9unordered6detail5tableINS1_3mapINSt3__19allocatorINS4_4pairIK4PairjEEEES7_jNS_4hashIS7_EENS4_8equal_toIS7_EEEEE18try_emplace_uniqueIRS8_EENS6_INS1_15iterator_detail8iteratorINS1_4nodeIS9_PvEENS1_6bucketISN_SM_EEEEbEEOT_, symObjAddr: 0x19C10, symBinAddr: 0x10001AB20, symSize: 0x270 }
  - { offsetInCU: 0x6DC4B, offset: 0x6DC4B, size: 0x8, addend: 0x0, symName: __ZNK5boost9unordered6detail15iterator_detail8iteratorINS1_4nodeINSt3__14pairIK4PairjEEPvEENS1_6bucketISB_SA_EEEptEv, symObjAddr: 0x19E80, symBinAddr: 0x10001AD90, symSize: 0x30 }
  - { offsetInCU: 0x6DC8C, offset: 0x6DC8C, size: 0x8, addend: 0x0, symName: __ZNSt3__14pairIN5boost9unordered6detail15iterator_detail8iteratorINS3_4nodeINS0_IK4PairjEEPvEENS3_6bucketISB_SA_EEEEbEC1B7v160006ISE_bLSA_0EEEOT_OT0_, symObjAddr: 0x19EB0, symBinAddr: 0x10001ADC0, symSize: 0x3C }
  - { offsetInCU: 0x6DCEA, offset: 0x6DCEA, size: 0x8, addend: 0x0, symName: __ZN5boost9unordered6detail5tableINS1_3mapINSt3__19allocatorINS4_4pairIK4PairjEEEES7_jNS_4hashIS7_EENS4_8equal_toIS7_EEEEE10node_allocEv, symObjAddr: 0x19EEC, symBinAddr: 0x10001ADFC, symSize: 0x28 }
  - { offsetInCU: 0x6DD15, offset: 0x6DD15, size: 0x8, addend: 0x0, symName: __ZN5boost9unordered6detail8node_tmpINSt3__19allocatorINS1_4nodeINS3_4pairIK4PairjEEPvEEEEEC1EPSB_RSC_, symObjAddr: 0x19F44, symBinAddr: 0x10001AE54, symSize: 0x3C }
  - { offsetInCU: 0x6DD5D, offset: 0x6DD5D, size: 0x8, addend: 0x0, symName: __ZN5boost9unordered6detail5tableINS1_3mapINSt3__19allocatorINS4_4pairIK4PairjEEEES7_jNS_4hashIS7_EENS4_8equal_toIS7_EEEEE7reserveEm, symObjAddr: 0x19F80, symBinAddr: 0x10001AE90, symSize: 0x48 }
  - { offsetInCU: 0x6DDA3, offset: 0x6DDA3, size: 0x8, addend: 0x0, symName: __ZN5boost9unordered6detail8node_tmpINSt3__19allocatorINS1_4nodeINS3_4pairIK4PairjEEPvEEEEE7releaseEv, symObjAddr: 0x19FC8, symBinAddr: 0x10001AED8, symSize: 0x24 }
  - { offsetInCU: 0x6DDD8, offset: 0x6DDD8, size: 0x8, addend: 0x0, symName: __ZN5boost9unordered6detail20grouped_bucket_arrayINS1_6bucketINS1_4nodeINSt3__14pairIK4PairjEEPvEESA_EENS5_9allocatorIS9_EENS1_15prime_fmod_sizeIvEEE11insert_nodeENS1_23grouped_bucket_iteratorISC_EEPSB_, symObjAddr: 0x19FEC, symBinAddr: 0x10001AEFC, symSize: 0x78 }
  - { offsetInCU: 0x6DE1C, offset: 0x6DE1C, size: 0x8, addend: 0x0, symName: __ZN5boost9unordered6detail8node_tmpINSt3__19allocatorINS1_4nodeINS3_4pairIK4PairjEEPvEEEEED1Ev, symObjAddr: 0x1A064, symBinAddr: 0x10001AF74, symSize: 0x2C }
  - { offsetInCU: 0x6DE48, offset: 0x6DE48, size: 0x8, addend: 0x0, symName: __ZNSt3__14pairIN5boost9unordered6detail15iterator_detail8iteratorINS3_4nodeINS0_IK4PairjEEPvEENS3_6bucketISB_SA_EEEEbEC2B7v160006ISE_bLSA_0EEEOT_OT0_, symObjAddr: 0x1A090, symBinAddr: 0x10001AFA0, symSize: 0x40 }
  - { offsetInCU: 0x6DEA6, offset: 0x6DEA6, size: 0x8, addend: 0x0, symName: __ZN5boost9unordered6detail20grouped_bucket_arrayINS1_6bucketINS1_4nodeINSt3__14pairIK4PairjEEPvEESA_EENS5_9allocatorIS9_EENS1_15prime_fmod_sizeIvEEE18get_node_allocatorEv, symObjAddr: 0x1A0D0, symBinAddr: 0x10001AFE0, symSize: 0x24 }
  - { offsetInCU: 0x6DECC, offset: 0x6DECC, size: 0x8, addend: 0x0, symName: __ZN5boost6empty_11empty_valueINSt3__19allocatorINS_9unordered6detail4nodeINS2_4pairIK4PairjEEPvEEEELj0ELb1EE3getEv, symObjAddr: 0x1A0F4, symBinAddr: 0x10001B004, symSize: 0x14 }
  - { offsetInCU: 0x6DF0E, offset: 0x6DF0E, size: 0x8, addend: 0x0, symName: __ZN5boost9unordered6detail16node_constructorINSt3__19allocatorINS1_4nodeINS3_4pairIK4PairjEEPvEEEEEC1ERSC_, symObjAddr: 0x1A1D4, symBinAddr: 0x10001B0E4, symSize: 0x34 }
  - { offsetInCU: 0x6DF47, offset: 0x6DF47, size: 0x8, addend: 0x0, symName: __ZN5boost9unordered6detail16node_constructorINSt3__19allocatorINS1_4nodeINS3_4pairIK4PairjEEPvEEEEE11create_nodeEv, symObjAddr: 0x1A208, symBinAddr: 0x10001B118, symSize: 0x80 }
  - { offsetInCU: 0x6DF6F, offset: 0x6DF6F, size: 0x8, addend: 0x0, symName: __ZNSt3__19allocatorINS_4pairIK4PairjEEEC1B7v160006IN5boost9unordered6detail4nodeIS4_PvEEEERKNS0_IT_EE, symObjAddr: 0x1A288, symBinAddr: 0x10001B198, symSize: 0x34 }
  - { offsetInCU: 0x6DFAC, offset: 0x6DFAC, size: 0x8, addend: 0x0, symName: __ZN5boost9unordered6detail4nodeINSt3__14pairIK4PairjEEPvE9value_ptrEv, symObjAddr: 0x1A300, symBinAddr: 0x10001B210, symSize: 0x28 }
  - { offsetInCU: 0x6DFD2, offset: 0x6DFD2, size: 0x8, addend: 0x0, symName: __ZN5boost9unordered6detail16node_constructorINSt3__19allocatorINS1_4nodeINS3_4pairIK4PairjEEPvEEEEE7releaseEv, symObjAddr: 0x1A358, symBinAddr: 0x10001B268, symSize: 0x70 }
  - { offsetInCU: 0x6E007, offset: 0x6E007, size: 0x8, addend: 0x0, symName: __ZN5boost9unordered6detail16node_constructorINSt3__19allocatorINS1_4nodeINS3_4pairIK4PairjEEPvEEEEED1Ev, symObjAddr: 0x1A3C8, symBinAddr: 0x10001B2D8, symSize: 0x2C }
  - { offsetInCU: 0x6E033, offset: 0x6E033, size: 0x8, addend: 0x0, symName: __ZN5boost9unordered6detail16node_constructorINSt3__19allocatorINS1_4nodeINS3_4pairIK4PairjEEPvEEEEEC2ERSC_, symObjAddr: 0x1A3F4, symBinAddr: 0x10001B304, symSize: 0x24 }
  - { offsetInCU: 0x6E06C, offset: 0x6E06C, size: 0x8, addend: 0x0, symName: __ZN5boost16allocator_traitsINSt3__19allocatorINS_9unordered6detail4nodeINS1_4pairIK4PairjEEPvEEEEE8allocateERSC_m, symObjAddr: 0x1A418, symBinAddr: 0x10001B328, symSize: 0x2C }
  - { offsetInCU: 0x6E09D, offset: 0x6E09D, size: 0x8, addend: 0x0, symName: __ZN5boost9unordered6detail4nodeINSt3__14pairIK4PairjEEPvEC1Ev, symObjAddr: 0x1A458, symBinAddr: 0x10001B368, symSize: 0x2C }
  - { offsetInCU: 0x6E0C7, offset: 0x6E0C7, size: 0x8, addend: 0x0, symName: __ZNSt3__19allocatorIN5boost9unordered6detail4nodeINS_4pairIK4PairjEEPvEEE8allocateB7v160006Em, symObjAddr: 0x1A4B0, symBinAddr: 0x10001B3C0, symSize: 0x5C }
  - { offsetInCU: 0x6E10C, offset: 0x6E10C, size: 0x8, addend: 0x0, symName: __ZNSt3__116allocator_traitsINS_9allocatorIN5boost9unordered6detail4nodeINS_4pairIK4PairjEEPvEEEEE8max_sizeB7v160006ISC_vEEmRKSC_, symObjAddr: 0x1A50C, symBinAddr: 0x10001B41C, symSize: 0x24 }
  - { offsetInCU: 0x6E13A, offset: 0x6E13A, size: 0x8, addend: 0x0, symName: __ZNKSt3__19allocatorIN5boost9unordered6detail4nodeINS_4pairIK4PairjEEPvEEE8max_sizeB7v160006Ev, symObjAddr: 0x1A530, symBinAddr: 0x10001B440, symSize: 0x18 }
  - { offsetInCU: 0x6E160, offset: 0x6E160, size: 0x8, addend: 0x0, symName: __ZN5boost9unordered6detail4nodeINSt3__14pairIK4PairjEEPvEC2Ev, symObjAddr: 0x1A548, symBinAddr: 0x10001B458, symSize: 0x3C }
  - { offsetInCU: 0x6E18A, offset: 0x6E18A, size: 0x8, addend: 0x0, symName: __ZN5boost9unordered6detail11opt_storageINSt3__14pairIK4PairjEEEC1Ev, symObjAddr: 0x1A584, symBinAddr: 0x10001B494, symSize: 0x2C }
  - { offsetInCU: 0x6E1B4, offset: 0x6E1B4, size: 0x8, addend: 0x0, symName: __ZN5boost9unordered6detail11opt_storageINSt3__14pairIK4PairjEEEC2Ev, symObjAddr: 0x1A5B0, symBinAddr: 0x10001B4C0, symSize: 0x14 }
  - { offsetInCU: 0x6E1DE, offset: 0x6E1DE, size: 0x8, addend: 0x0, symName: __ZNSt3__19allocatorINS_4pairIK4PairjEEEC2B7v160006IN5boost9unordered6detail4nodeIS4_PvEEEERKNS0_IT_EE, symObjAddr: 0x1A5C4, symBinAddr: 0x10001B4D4, symSize: 0x30 }
  - { offsetInCU: 0x6E21B, offset: 0x6E21B, size: 0x8, addend: 0x0, symName: __ZNSt3__116__non_trivial_ifILb1ENS_9allocatorINS_4pairIK4PairjEEEEEC2B7v160006Ev, symObjAddr: 0x1A5F4, symBinAddr: 0x10001B504, symSize: 0x14 }
  - { offsetInCU: 0x6E25C, offset: 0x6E25C, size: 0x8, addend: 0x0, symName: __ZNSt3__19allocatorINS_4pairIK4PairjEEE9constructB7v160006IS4_JRKNS_21piecewise_construct_tENS_5tupleIJRS3_EEENSA_IJEEEEEEvPT_DpOT0_, symObjAddr: 0x1A608, symBinAddr: 0x10001B518, symSize: 0x44 }
  - { offsetInCU: 0x6E2D8, offset: 0x6E2D8, size: 0x8, addend: 0x0, symName: __ZNSt3__14pairIK4PairjEC1B7v160006IJRS2_EJEEENS_21piecewise_construct_tENS_5tupleIJDpT_EEENS7_IJDpT0_EEE, symObjAddr: 0x1A64C, symBinAddr: 0x10001B55C, symSize: 0x3C }
  - { offsetInCU: 0x6E33F, offset: 0x6E33F, size: 0x8, addend: 0x0, symName: __ZNSt3__14pairIK4PairjEC1B7v160006IJRS2_EJEJLm0EEJEEENS_21piecewise_construct_tERNS_5tupleIJDpT_EEERNS7_IJDpT0_EEENS_15__tuple_indicesIJXspT1_EEEENSG_IJXspT2_EEEE, symObjAddr: 0x1A688, symBinAddr: 0x10001B598, symSize: 0x3C }
  - { offsetInCU: 0x6E3CC, offset: 0x6E3CC, size: 0x8, addend: 0x0, symName: __ZNSt3__14pairIK4PairjEC2B7v160006IJRS2_EJEJLm0EEJEEENS_21piecewise_construct_tERNS_5tupleIJDpT_EEERNS7_IJDpT0_EEENS_15__tuple_indicesIJXspT1_EEEENSG_IJXspT2_EEEE, symObjAddr: 0x1A6C4, symBinAddr: 0x10001B5D4, symSize: 0x48 }
  - { offsetInCU: 0x6E459, offset: 0x6E459, size: 0x8, addend: 0x0, symName: __ZN4PairC1ERKS_, symObjAddr: 0x1A730, symBinAddr: 0x10001B640, symSize: 0x34 }
  - { offsetInCU: 0x6E48E, offset: 0x6E48E, size: 0x8, addend: 0x0, symName: __ZNSt3__112__tuple_leafILm0ERK4PairLb0EE3getB7v160006Ev, symObjAddr: 0x1A764, symBinAddr: 0x10001B674, symSize: 0x18 }
  - { offsetInCU: 0x6E4B4, offset: 0x6E4B4, size: 0x8, addend: 0x0, symName: __ZN4PairC2ERKS_, symObjAddr: 0x1A77C, symBinAddr: 0x10001B68C, symSize: 0x34 }
  - { offsetInCU: 0x6E4F4, offset: 0x6E4F4, size: 0x8, addend: 0x0, symName: __ZN5boost6tuples5tupleIjjNS0_9null_typeES2_S2_S2_S2_S2_S2_S2_EC1ERKS3_, symObjAddr: 0x1A7B0, symBinAddr: 0x10001B6C0, symSize: 0x34 }
  - { offsetInCU: 0x6E52A, offset: 0x6E52A, size: 0x8, addend: 0x0, symName: __ZN5boost6tuples5tupleIjjNS0_9null_typeES2_S2_S2_S2_S2_S2_S2_EC2ERKS3_, symObjAddr: 0x1A7E4, symBinAddr: 0x10001B6F4, symSize: 0x34 }
  - { offsetInCU: 0x6E560, offset: 0x6E560, size: 0x8, addend: 0x0, symName: __ZN5boost6tuples4consIjNS1_IjNS0_9null_typeEEEEC2ERKS4_, symObjAddr: 0x1A818, symBinAddr: 0x10001B728, symSize: 0x48 }
  - { offsetInCU: 0x6E599, offset: 0x6E599, size: 0x8, addend: 0x0, symName: __ZN5boost6tuples4consIjNS0_9null_typeEEC1ERKS3_, symObjAddr: 0x1A860, symBinAddr: 0x10001B770, symSize: 0x34 }
  - { offsetInCU: 0x6E5D2, offset: 0x6E5D2, size: 0x8, addend: 0x0, symName: __ZN5boost6tuples4consIjNS0_9null_typeEEC2ERKS3_, symObjAddr: 0x1A894, symBinAddr: 0x10001B7A4, symSize: 0x24 }
  - { offsetInCU: 0x6E60B, offset: 0x6E60B, size: 0x8, addend: 0x0, symName: __ZNSt3__15tupleIJRK4PairEEC1B7v160006INS_4_AndELi0EEES3_, symObjAddr: 0x1A8B8, symBinAddr: 0x10001B7C8, symSize: 0x34 }
  - { offsetInCU: 0x6E653, offset: 0x6E653, size: 0x8, addend: 0x0, symName: __ZNSt3__15tupleIJRK4PairEEC2B7v160006INS_4_AndELi0EEES3_, symObjAddr: 0x1A8EC, symBinAddr: 0x10001B7FC, symSize: 0x34 }
  - { offsetInCU: 0x6E69B, offset: 0x6E69B, size: 0x8, addend: 0x0, symName: __ZNSt3__112__tuple_implINS_15__tuple_indicesIJLm0EEEEJRK4PairEEC1B7v160006IJLm0EEJS5_EJEJEJS5_EEENS1_IJXspT_EEEENS_13__tuple_typesIJDpT0_EEENS1_IJXspT1_EEEENS9_IJDpT2_EEEDpOT3_, symObjAddr: 0x1A920, symBinAddr: 0x10001B830, symSize: 0x34 }
  - { offsetInCU: 0x6E72C, offset: 0x6E72C, size: 0x8, addend: 0x0, symName: __ZNSt3__112__tuple_implINS_15__tuple_indicesIJLm0EEEEJRK4PairEEC2B7v160006IJLm0EEJS5_EJEJEJS5_EEENS1_IJXspT_EEEENS_13__tuple_typesIJDpT0_EEENS1_IJXspT1_EEEENS9_IJDpT2_EEEDpOT3_, symObjAddr: 0x1A954, symBinAddr: 0x10001B864, symSize: 0x34 }
  - { offsetInCU: 0x6E7BD, offset: 0x6E7BD, size: 0x8, addend: 0x0, symName: __ZNSt3__112__tuple_leafILm0ERK4PairLb0EEC2B7v160006IS3_vEEOT_, symObjAddr: 0x1A988, symBinAddr: 0x10001B898, symSize: 0x20 }
  - { offsetInCU: 0x6E800, offset: 0x6E800, size: 0x8, addend: 0x0, symName: __ZN5boost9unordered6detail16node_constructorINSt3__19allocatorINS1_4nodeINS3_4pairIK4PairjEEPvEEEEED2Ev, symObjAddr: 0x1A9A8, symBinAddr: 0x10001B8B8, symSize: 0x78 }
  - { offsetInCU: 0x6E82C, offset: 0x6E82C, size: 0x8, addend: 0x0, symName: __ZN5boost16allocator_traitsINSt3__19allocatorINS_9unordered6detail4nodeINS1_4pairIK4PairjEEPvEEEEE10deallocateERSC_PSB_m, symObjAddr: 0x1AA44, symBinAddr: 0x10001B954, symSize: 0x34 }
  - { offsetInCU: 0x6E86B, offset: 0x6E86B, size: 0x8, addend: 0x0, symName: __ZN5boost9unordered6detail4nodeINSt3__14pairIK4PairjEEPvED1Ev, symObjAddr: 0x1AA78, symBinAddr: 0x10001B988, symSize: 0x2C }
  - { offsetInCU: 0x6E897, offset: 0x6E897, size: 0x8, addend: 0x0, symName: __ZN5boost9unordered6detail4nodeINSt3__14pairIK4PairjEEPvED2Ev, symObjAddr: 0x1AAA4, symBinAddr: 0x10001B9B4, symSize: 0x30 }
  - { offsetInCU: 0x6E8C3, offset: 0x6E8C3, size: 0x8, addend: 0x0, symName: __ZN5boost9unordered6detail11opt_storageINSt3__14pairIK4PairjEEED1Ev, symObjAddr: 0x1AAD4, symBinAddr: 0x10001B9E4, symSize: 0x2C }
  - { offsetInCU: 0x6E8ED, offset: 0x6E8ED, size: 0x8, addend: 0x0, symName: __ZN5boost9unordered6detail11opt_storageINSt3__14pairIK4PairjEEED2Ev, symObjAddr: 0x1AB00, symBinAddr: 0x10001BA10, symSize: 0x14 }
  - { offsetInCU: 0x6E917, offset: 0x6E917, size: 0x8, addend: 0x0, symName: __ZNSt3__19allocatorIN5boost9unordered6detail4nodeINS_4pairIK4PairjEEPvEEE10deallocateB7v160006EPSA_m, symObjAddr: 0x1AB48, symBinAddr: 0x10001BA58, symSize: 0x44 }
  - { offsetInCU: 0x6E959, offset: 0x6E959, size: 0x8, addend: 0x0, symName: __ZN5boost9unordered6detail8node_tmpINSt3__19allocatorINS1_4nodeINS3_4pairIK4PairjEEPvEEEEEC2EPSB_RSC_, symObjAddr: 0x1AB8C, symBinAddr: 0x10001BA9C, symSize: 0x2C }
  - { offsetInCU: 0x6E9A1, offset: 0x6E9A1, size: 0x8, addend: 0x0, symName: __ZN5boost9unordered6detail5tableINS1_3mapINSt3__19allocatorINS4_4pairIK4PairjEEEES7_jNS_4hashIS7_EENS4_8equal_toIS7_EEEEE11min_bucketsEmf, symObjAddr: 0x1ABB8, symBinAddr: 0x10001BAC8, symSize: 0x78 }
  - { offsetInCU: 0x6E9E3, offset: 0x6E9E3, size: 0x8, addend: 0x0, symName: __ZN5boost9unordered6detail5tableINS1_3mapINSt3__19allocatorINS4_4pairIK4PairjEEEES7_jNS_4hashIS7_EENS4_8equal_toIS7_EEEEE6rehashEm, symObjAddr: 0x1AC30, symBinAddr: 0x10001BB40, symSize: 0x94 }
  - { offsetInCU: 0x6EA19, offset: 0x6EA19, size: 0x8, addend: 0x0, symName: __Z4ceilB7v160006f, symObjAddr: 0x1ACC4, symBinAddr: 0x10001BBD4, symSize: 0x18 }
  - { offsetInCU: 0x6EA48, offset: 0x6EA48, size: 0x8, addend: 0x0, symName: __ZN5boost9unordered6detail20grouped_bucket_arrayINS1_6bucketINS1_4nodeINSt3__14pairIK4PairjEEPvEESA_EENS5_9allocatorIS9_EENS1_15prime_fmod_sizeIvEEE16bucket_count_forEm, symObjAddr: 0x1ACDC, symBinAddr: 0x10001BBEC, symSize: 0x50 }
  - { offsetInCU: 0x6EA6C, offset: 0x6EA6C, size: 0x8, addend: 0x0, symName: __ZNK5boost9unordered6detail5tableINS1_3mapINSt3__19allocatorINS4_4pairIK4PairjEEEES7_jNS_4hashIS7_EENS4_8equal_toIS7_EEEEE12bucket_countEv, symObjAddr: 0x1AD2C, symBinAddr: 0x10001BC3C, symSize: 0x28 }
  - { offsetInCU: 0x6EA92, offset: 0x6EA92, size: 0x8, addend: 0x0, symName: __ZN5boost9unordered6detail5tableINS1_3mapINSt3__19allocatorINS4_4pairIK4PairjEEEES7_jNS_4hashIS7_EENS4_8equal_toIS7_EEEEE11rehash_implEm, symObjAddr: 0x1AD54, symBinAddr: 0x10001BC64, symSize: 0x2B0 }
  - { offsetInCU: 0x6EBE0, offset: 0x6EBE0, size: 0x8, addend: 0x0, symName: __ZN5boost9unordered6detail15prime_fmod_sizeIvE4sizeEm, symObjAddr: 0x1B004, symBinAddr: 0x10001BF14, symSize: 0x20 }
  - { offsetInCU: 0x6EC03, offset: 0x6EC03, size: 0x8, addend: 0x0, symName: __ZN5boost9unordered6detail15prime_fmod_sizeIvE10size_indexEm, symObjAddr: 0x1B024, symBinAddr: 0x10001BF34, symSize: 0x6C }
  - { offsetInCU: 0x6EC35, offset: 0x6EC35, size: 0x8, addend: 0x0, symName: __ZNK5boost9unordered6detail20grouped_bucket_arrayINS1_6bucketINS1_4nodeINSt3__14pairIK4PairjEEPvEESA_EENS5_9allocatorIS9_EENS1_15prime_fmod_sizeIvEEE12bucket_countEv, symObjAddr: 0x1B090, symBinAddr: 0x10001BFA0, symSize: 0x18 }
  - { offsetInCU: 0x6EC5B, offset: 0x6EC5B, size: 0x8, addend: 0x0, symName: __ZN5boost9unordered6detail20grouped_bucket_arrayINS1_6bucketINS1_4nodeINSt3__14pairIK4PairjEEPvEESA_EENS5_9allocatorIS9_EENS1_15prime_fmod_sizeIvEEEC1EmRKSE_, symObjAddr: 0x1B0A8, symBinAddr: 0x10001BFB8, symSize: 0x3C }
  - { offsetInCU: 0x6ECA3, offset: 0x6ECA3, size: 0x8, addend: 0x0, symName: __ZN5boost9unordered6detail20grouped_bucket_arrayINS1_6bucketINS1_4nodeINSt3__14pairIK4PairjEEPvEESA_EENS5_9allocatorIS9_EENS1_15prime_fmod_sizeIvEEE3rawEv, symObjAddr: 0x1B0E4, symBinAddr: 0x10001BFF4, symSize: 0xBC }
  - { offsetInCU: 0x6ECC9, offset: 0x6ECC9, size: 0x8, addend: 0x0, symName: __ZN5boost9unordered6detail5tableINS1_3mapINSt3__19allocatorINS4_4pairIK4PairjEEEES7_jNS_4hashIS7_EENS4_8equal_toIS7_EEEEE13transfer_nodeEPNS1_4nodeIS9_PvEERNS1_6bucketISJ_SI_EERNS1_20grouped_bucket_arrayISM_SA_NS1_15prime_fmod_sizeIvEEEE, symObjAddr: 0x1B1A0, symBinAddr: 0x10001C0B0, symSize: 0x98 }
  - { offsetInCU: 0x6ED45, offset: 0x6ED45, size: 0x8, addend: 0x0, symName: __ZNK5boost9unordered6detail23grouped_bucket_iteratorINS1_6bucketINS1_4nodeINSt3__14pairIK4PairjEEPvEESA_EEEdeEv, symObjAddr: 0x1B238, symBinAddr: 0x10001C148, symSize: 0x24 }
  - { offsetInCU: 0x6ED6B, offset: 0x6ED6B, size: 0x8, addend: 0x0, symName: __ZN5boost9unordered6detail5tableINS1_3mapINSt3__19allocatorINS4_4pairIK4PairjEEEES7_jNS_4hashIS7_EENS4_8equal_toIS7_EEEEE11delete_nodeEPNS1_4nodeIS9_PvEE, symObjAddr: 0x1B25C, symBinAddr: 0x10001C16C, symSize: 0x6C }
  - { offsetInCU: 0x6EDBE, offset: 0x6EDBE, size: 0x8, addend: 0x0, symName: __ZN5boost9unordered6detail20grouped_bucket_arrayINS1_6bucketINS1_4nodeINSt3__14pairIK4PairjEEPvEESA_EENS5_9allocatorIS9_EENS1_15prime_fmod_sizeIvEEE20unlink_empty_bucketsEv, symObjAddr: 0x1B2C8, symBinAddr: 0x10001C1D8, symSize: 0x200 }
  - { offsetInCU: 0x6EE6A, offset: 0x6EE6A, size: 0x8, addend: 0x0, symName: __ZN5boost9unordered6detail20grouped_bucket_arrayINS1_6bucketINS1_4nodeINSt3__14pairIK4PairjEEPvEESA_EENS5_9allocatorIS9_EENS1_15prime_fmod_sizeIvEEEaSEOSH_, symObjAddr: 0x1B4C8, symBinAddr: 0x10001C3D8, symSize: 0x108 }
  - { offsetInCU: 0x6EE9F, offset: 0x6EE9F, size: 0x8, addend: 0x0, symName: __ZN5boost9unordered6detail5tableINS1_3mapINSt3__19allocatorINS4_4pairIK4PairjEEEES7_jNS_4hashIS7_EENS4_8equal_toIS7_EEEEE20recalculate_max_loadEv, symObjAddr: 0x1B5D0, symBinAddr: 0x10001C4E0, symSize: 0x80 }
  - { offsetInCU: 0x6EED4, offset: 0x6EED4, size: 0x8, addend: 0x0, symName: __ZN5boost9unordered6detail20grouped_bucket_arrayINS1_6bucketINS1_4nodeINSt3__14pairIK4PairjEEPvEESA_EENS5_9allocatorIS9_EENS1_15prime_fmod_sizeIvEEED1Ev, symObjAddr: 0x1B650, symBinAddr: 0x10001C560, symSize: 0x2C }
  - { offsetInCU: 0x6EEFE, offset: 0x6EEFE, size: 0x8, addend: 0x0, symName: __ZN5boost9unordered6detail20grouped_bucket_arrayINS1_6bucketINS1_4nodeINSt3__14pairIK4PairjEEPvEESA_EENS5_9allocatorIS9_EENS1_15prime_fmod_sizeIvEEEC2EmRKSE_, symObjAddr: 0x1B67C, symBinAddr: 0x10001C58C, symSize: 0x264 }
  - { offsetInCU: 0x6F009, offset: 0x6F009, size: 0x8, addend: 0x0, symName: __ZN5boost6empty_11empty_valueINSt3__19allocatorINS_9unordered6detail4nodeINS2_4pairIK4PairjEEPvEEEELj0ELb1EEC2IRKNS3_ISA_EEJEEENS_12empty_init_tEOT_DpOT0_, symObjAddr: 0x1B8E0, symBinAddr: 0x10001C7F0, symSize: 0x34 }
  - { offsetInCU: 0x6F059, offset: 0x6F059, size: 0x8, addend: 0x0, symName: __ZNK5boost9unordered6detail20grouped_bucket_arrayINS1_6bucketINS1_4nodeINSt3__14pairIK4PairjEEPvEESA_EENS5_9allocatorIS9_EENS1_15prime_fmod_sizeIvEEE20get_bucket_allocatorEv, symObjAddr: 0x1B914, symBinAddr: 0x10001C824, symSize: 0x30 }
  - { offsetInCU: 0x6F07F, offset: 0x6F07F, size: 0x8, addend: 0x0, symName: __ZNK5boost9unordered6detail20grouped_bucket_arrayINS1_6bucketINS1_4nodeINSt3__14pairIK4PairjEEPvEESA_EENS5_9allocatorIS9_EENS1_15prime_fmod_sizeIvEEE19get_group_allocatorEv, symObjAddr: 0x1B944, symBinAddr: 0x10001C854, symSize: 0x30 }
  - { offsetInCU: 0x6F0A5, offset: 0x6F0A5, size: 0x8, addend: 0x0, symName: __ZNK5boost9unordered6detail20grouped_bucket_arrayINS1_6bucketINS1_4nodeINSt3__14pairIK4PairjEEPvEESA_EENS5_9allocatorIS9_EENS1_15prime_fmod_sizeIvEEE10groups_lenEv, symObjAddr: 0x1B974, symBinAddr: 0x10001C884, symSize: 0x24 }
  - { offsetInCU: 0x6F0CB, offset: 0x6F0CB, size: 0x8, addend: 0x0, symName: __ZN5boost9unordered6detail6bucketINS1_4nodeINSt3__14pairIK4PairjEEPvEES9_EC1Ev, symObjAddr: 0x1B9F0, symBinAddr: 0x10001C900, symSize: 0x2C }
  - { offsetInCU: 0x6F0F5, offset: 0x6F0F5, size: 0x8, addend: 0x0, symName: __ZN5boost9unordered6detail12bucket_groupINS1_6bucketINS1_4nodeINSt3__14pairIK4PairjEEPvEESA_EEEC1Ev, symObjAddr: 0x1BA30, symBinAddr: 0x10001C940, symSize: 0x2C }
  - { offsetInCU: 0x6F11F, offset: 0x6F11F, size: 0x8, addend: 0x0, symName: __ZNSt3__19allocatorIN5boost9unordered6detail4nodeINS_4pairIK4PairjEEPvEEEC2B7v160006IS8_EERKNS0_IT_EE, symObjAddr: 0x1BAAC, symBinAddr: 0x10001C9BC, symSize: 0x30 }
  - { offsetInCU: 0x6F15C, offset: 0x6F15C, size: 0x8, addend: 0x0, symName: __ZNSt3__116__non_trivial_ifILb1ENS_9allocatorIN5boost9unordered6detail4nodeINS_4pairIK4PairjEEPvEEEEEC2B7v160006Ev, symObjAddr: 0x1BADC, symBinAddr: 0x10001C9EC, symSize: 0x14 }
  - { offsetInCU: 0x6F186, offset: 0x6F186, size: 0x8, addend: 0x0, symName: __ZNK5boost9unordered6detail20grouped_bucket_arrayINS1_6bucketINS1_4nodeINSt3__14pairIK4PairjEEPvEESA_EENS5_9allocatorIS9_EENS1_15prime_fmod_sizeIvEEE18get_node_allocatorEv, symObjAddr: 0x1BAF0, symBinAddr: 0x10001CA00, symSize: 0x24 }
  - { offsetInCU: 0x6F1AC, offset: 0x6F1AC, size: 0x8, addend: 0x0, symName: __ZNSt3__19allocatorIN5boost9unordered6detail6bucketINS3_4nodeINS_4pairIK4PairjEEPvEESA_EEEC1B7v160006ISB_EERKNS0_IT_EE, symObjAddr: 0x1BB14, symBinAddr: 0x10001CA24, symSize: 0x34 }
  - { offsetInCU: 0x6F1E9, offset: 0x6F1E9, size: 0x8, addend: 0x0, symName: __ZNK5boost6empty_11empty_valueINSt3__19allocatorINS_9unordered6detail4nodeINS2_4pairIK4PairjEEPvEEEELj0ELb1EE3getEv, symObjAddr: 0x1BB48, symBinAddr: 0x10001CA58, symSize: 0x14 }
  - { offsetInCU: 0x6F20F, offset: 0x6F20F, size: 0x8, addend: 0x0, symName: __ZNSt3__19allocatorIN5boost9unordered6detail6bucketINS3_4nodeINS_4pairIK4PairjEEPvEESA_EEEC2B7v160006ISB_EERKNS0_IT_EE, symObjAddr: 0x1BB5C, symBinAddr: 0x10001CA6C, symSize: 0x30 }
  - { offsetInCU: 0x6F24C, offset: 0x6F24C, size: 0x8, addend: 0x0, symName: __ZNSt3__116__non_trivial_ifILb1ENS_9allocatorIN5boost9unordered6detail6bucketINS4_4nodeINS_4pairIK4PairjEEPvEESB_EEEEEC2B7v160006Ev, symObjAddr: 0x1BB8C, symBinAddr: 0x10001CA9C, symSize: 0x14 }
  - { offsetInCU: 0x6F276, offset: 0x6F276, size: 0x8, addend: 0x0, symName: __ZNSt3__19allocatorIN5boost9unordered6detail12bucket_groupINS3_6bucketINS3_4nodeINS_4pairIK4PairjEEPvEESB_EEEEEC1B7v160006ISC_EERKNS0_IT_EE, symObjAddr: 0x1BBA0, symBinAddr: 0x10001CAB0, symSize: 0x34 }
  - { offsetInCU: 0x6F2B3, offset: 0x6F2B3, size: 0x8, addend: 0x0, symName: __ZNSt3__19allocatorIN5boost9unordered6detail12bucket_groupINS3_6bucketINS3_4nodeINS_4pairIK4PairjEEPvEESB_EEEEEC2B7v160006ISC_EERKNS0_IT_EE, symObjAddr: 0x1BBD4, symBinAddr: 0x10001CAE4, symSize: 0x30 }
  - { offsetInCU: 0x6F2F0, offset: 0x6F2F0, size: 0x8, addend: 0x0, symName: __ZNSt3__116__non_trivial_ifILb1ENS_9allocatorIN5boost9unordered6detail12bucket_groupINS4_6bucketINS4_4nodeINS_4pairIK4PairjEEPvEESC_EEEEEEEC2B7v160006Ev, symObjAddr: 0x1BC04, symBinAddr: 0x10001CB14, symSize: 0x14 }
  - { offsetInCU: 0x6F31A, offset: 0x6F31A, size: 0x8, addend: 0x0, symName: __ZNSt3__19allocatorIN5boost9unordered6detail6bucketINS3_4nodeINS_4pairIK4PairjEEPvEESA_EEE8allocateB7v160006Em, symObjAddr: 0x1BC18, symBinAddr: 0x10001CB28, symSize: 0x58 }
  - { offsetInCU: 0x6F35F, offset: 0x6F35F, size: 0x8, addend: 0x0, symName: __ZNSt3__116allocator_traitsINS_9allocatorIN5boost9unordered6detail6bucketINS4_4nodeINS_4pairIK4PairjEEPvEESB_EEEEE8max_sizeB7v160006ISE_vEEmRKSE_, symObjAddr: 0x1BC70, symBinAddr: 0x10001CB80, symSize: 0x24 }
  - { offsetInCU: 0x6F38D, offset: 0x6F38D, size: 0x8, addend: 0x0, symName: __ZNKSt3__19allocatorIN5boost9unordered6detail6bucketINS3_4nodeINS_4pairIK4PairjEEPvEESA_EEE8max_sizeB7v160006Ev, symObjAddr: 0x1BC94, symBinAddr: 0x10001CBA4, symSize: 0x14 }
  - { offsetInCU: 0x6F3B3, offset: 0x6F3B3, size: 0x8, addend: 0x0, symName: __ZNSt3__19allocatorIN5boost9unordered6detail12bucket_groupINS3_6bucketINS3_4nodeINS_4pairIK4PairjEEPvEESB_EEEEE8allocateB7v160006Em, symObjAddr: 0x1BCA8, symBinAddr: 0x10001CBB8, symSize: 0x58 }
  - { offsetInCU: 0x6F3F8, offset: 0x6F3F8, size: 0x8, addend: 0x0, symName: __ZNSt3__116allocator_traitsINS_9allocatorIN5boost9unordered6detail12bucket_groupINS4_6bucketINS4_4nodeINS_4pairIK4PairjEEPvEESC_EEEEEEE8max_sizeB7v160006ISG_vEEmRKSG_, symObjAddr: 0x1BD00, symBinAddr: 0x10001CC10, symSize: 0x24 }
  - { offsetInCU: 0x6F426, offset: 0x6F426, size: 0x8, addend: 0x0, symName: __ZNKSt3__19allocatorIN5boost9unordered6detail12bucket_groupINS3_6bucketINS3_4nodeINS_4pairIK4PairjEEPvEESB_EEEEE8max_sizeB7v160006Ev, symObjAddr: 0x1BD24, symBinAddr: 0x10001CC34, symSize: 0x14 }
  - { offsetInCU: 0x6F44C, offset: 0x6F44C, size: 0x8, addend: 0x0, symName: __ZN5boost9unordered6detail6bucketINS1_4nodeINSt3__14pairIK4PairjEEPvEES9_EC2Ev, symObjAddr: 0x1BD38, symBinAddr: 0x10001CC48, symSize: 0x18 }
  - { offsetInCU: 0x6F476, offset: 0x6F476, size: 0x8, addend: 0x0, symName: __ZN5boost9unordered6detail12bucket_groupINS1_6bucketINS1_4nodeINSt3__14pairIK4PairjEEPvEESA_EEEC2Ev, symObjAddr: 0x1BD50, symBinAddr: 0x10001CC60, symSize: 0x24 }
  - { offsetInCU: 0x6F4A0, offset: 0x6F4A0, size: 0x8, addend: 0x0, symName: __ZNSt3__19allocatorIN5boost9unordered6detail6bucketINS3_4nodeINS_4pairIK4PairjEEPvEESA_EEE10deallocateB7v160006EPSC_m, symObjAddr: 0x1BD74, symBinAddr: 0x10001CC84, symSize: 0x40 }
  - { offsetInCU: 0x6F4E2, offset: 0x6F4E2, size: 0x8, addend: 0x0, symName: __ZN5boost9unordered6detail4spanINS1_6bucketINS1_4nodeINSt3__14pairIK4PairjEEPvEESA_EEEC1EPSC_m, symObjAddr: 0x1BDB4, symBinAddr: 0x10001CCC4, symSize: 0x3C }
  - { offsetInCU: 0x6F52A, offset: 0x6F52A, size: 0x8, addend: 0x0, symName: __ZN5boost9unordered6detail4spanINS1_6bucketINS1_4nodeINSt3__14pairIK4PairjEEPvEESA_EEEC2EPSC_m, symObjAddr: 0x1BDF0, symBinAddr: 0x10001CD00, symSize: 0x2C }
  - { offsetInCU: 0x6F572, offset: 0x6F572, size: 0x8, addend: 0x0, symName: __ZNK5boost9unordered6detail23grouped_bucket_iteratorINS1_6bucketINS1_4nodeINSt3__14pairIK4PairjEEPvEESA_EEE11dereferenceEv, symObjAddr: 0x1BE1C, symBinAddr: 0x10001CD2C, symSize: 0x18 }
  - { offsetInCU: 0x6F598, offset: 0x6F598, size: 0x8, addend: 0x0, symName: __ZNSt3__19allocatorINS_4pairIK4PairjEEE7destroyB7v160006EPS4_, symObjAddr: 0x1BE60, symBinAddr: 0x10001CD70, symSize: 0x14 }
  - { offsetInCU: 0x6F5CC, offset: 0x6F5CC, size: 0x8, addend: 0x0, symName: __ZN5boost9unordered6detail20grouped_bucket_arrayINS1_6bucketINS1_4nodeINSt3__14pairIK4PairjEEPvEESA_EENS5_9allocatorIS9_EENS1_15prime_fmod_sizeIvEEE12unlink_groupEPNS1_12bucket_groupISC_EE, symObjAddr: 0x1BE94, symBinAddr: 0x10001CDA4, symSize: 0x4C }
  - { offsetInCU: 0x6F601, offset: 0x6F601, size: 0x8, addend: 0x0, symName: __ZN5boost9unordered6detail20grouped_bucket_arrayINS1_6bucketINS1_4nodeINSt3__14pairIK4PairjEEPvEESA_EENS5_9allocatorIS9_EENS1_15prime_fmod_sizeIvEEE10deallocateEv, symObjAddr: 0x1BEFC, symBinAddr: 0x10001CE0C, symSize: 0x15C }
  - { offsetInCU: 0x6F6D3, offset: 0x6F6D3, size: 0x8, addend: 0x0, symName: __ZN5boost9unordered6detail12bucket_groupINS1_6bucketINS1_4nodeINSt3__14pairIK4PairjEEPvEESA_EEED1Ev, symObjAddr: 0x1C058, symBinAddr: 0x10001CF68, symSize: 0x2C }
  - { offsetInCU: 0x6F6FD, offset: 0x6F6FD, size: 0x8, addend: 0x0, symName: __ZN5boost9unordered6detail12bucket_groupINS1_6bucketINS1_4nodeINSt3__14pairIK4PairjEEPvEESA_EEED2Ev, symObjAddr: 0x1C0B8, symBinAddr: 0x10001CFC8, symSize: 0x14 }
  - { offsetInCU: 0x6F727, offset: 0x6F727, size: 0x8, addend: 0x0, symName: __ZNSt3__19allocatorIN5boost9unordered6detail12bucket_groupINS3_6bucketINS3_4nodeINS_4pairIK4PairjEEPvEESB_EEEEE10deallocateB7v160006EPSE_m, symObjAddr: 0x1C0CC, symBinAddr: 0x10001CFDC, symSize: 0x40 }
  - { offsetInCU: 0x6F769, offset: 0x6F769, size: 0x8, addend: 0x0, symName: __ZNSt3__114numeric_limitsImE3maxB7v160006Ev, symObjAddr: 0x1C16C, symBinAddr: 0x10001D07C, symSize: 0x14 }
  - { offsetInCU: 0x6F77D, offset: 0x6F77D, size: 0x8, addend: 0x0, symName: __ZNSt3__123__libcpp_numeric_limitsImLb1EE3maxB7v160006Ev, symObjAddr: 0x1C180, symBinAddr: 0x10001D090, symSize: 0x8 }
  - { offsetInCU: 0x6F791, offset: 0x6F791, size: 0x8, addend: 0x0, symName: __ZN5boost9unordered6detail20grouped_bucket_arrayINS1_6bucketINS1_4nodeINSt3__14pairIK4PairjEEPvEESA_EENS5_9allocatorIS9_EENS1_15prime_fmod_sizeIvEEED2Ev, symObjAddr: 0x1C188, symBinAddr: 0x10001D098, symSize: 0x2C }
  - { offsetInCU: 0x6F7BB, offset: 0x6F7BB, size: 0x8, addend: 0x0, symName: __ZN5boost9unordered6detail20grouped_bucket_arrayINS1_6bucketINS1_4nodeINSt3__14pairIK4PairjEEPvEESA_EENS5_9allocatorIS9_EENS1_15prime_fmod_sizeIvEEE19append_bucket_groupENS1_23grouped_bucket_iteratorISC_EE, symObjAddr: 0x1C1B4, symBinAddr: 0x10001D0C4, symSize: 0x16C }
  - { offsetInCU: 0x6F886, offset: 0x6F886, size: 0x8, addend: 0x0, symName: __ZN5boost9unordered6detail8node_tmpINSt3__19allocatorINS1_4nodeINS3_4pairIK4PairjEEPvEEEEED2Ev, symObjAddr: 0x1C320, symBinAddr: 0x10001D230, symSize: 0x90 }
  - { offsetInCU: 0x6F8C8, offset: 0x6F8C8, size: 0x8, addend: 0x0, symName: __ZNSt3__110shared_ptrIKN4spot3twaEEC2B7v160006INS1_9twa_graphEvEERKNS0_IT_EE, symObjAddr: 0x1C3B0, symBinAddr: 0x10001D2C0, symSize: 0x70 }
  - { offsetInCU: 0x6F90B, offset: 0x6F90B, size: 0x8, addend: 0x0, symName: __ZN5boost9unordered13unordered_mapI4PairjNS_4hashIS2_EENSt3__18equal_toIS2_EENS5_9allocatorINS5_4pairIKS2_jEEEEEC2Ev, symObjAddr: 0x1C420, symBinAddr: 0x10001D330, symSize: 0x2C }
  - { offsetInCU: 0x6F937, offset: 0x6F937, size: 0x8, addend: 0x0, symName: __ZN5boost9unordered6detail5tableINS1_3mapINSt3__19allocatorINS4_4pairIK4PairjEEEES7_jNS_4hashIS7_EENS4_8equal_toIS7_EEEEEC1Ev, symObjAddr: 0x1C44C, symBinAddr: 0x10001D35C, symSize: 0x2C }
  - { offsetInCU: 0x6F961, offset: 0x6F961, size: 0x8, addend: 0x0, symName: __ZN5boost9unordered6detail5tableINS1_3mapINSt3__19allocatorINS4_4pairIK4PairjEEEES7_jNS_4hashIS7_EENS4_8equal_toIS7_EEEEEC2Ev, symObjAddr: 0x1C478, symBinAddr: 0x10001D388, symSize: 0x78 }
  - { offsetInCU: 0x6F98B, offset: 0x6F98B, size: 0x8, addend: 0x0, symName: __ZN5boost9unordered6detail9functionsINS_4hashI4PairEENSt3__18equal_toIS4_EEEC2ERKS5_RKS8_, symObjAddr: 0x1C4F0, symBinAddr: 0x10001D400, symSize: 0x148 }
  - { offsetInCU: 0x6F9D3, offset: 0x6F9D3, size: 0x8, addend: 0x0, symName: __ZN5boost9unordered6detail20grouped_bucket_arrayINS1_6bucketINS1_4nodeINSt3__14pairIK4PairjEEPvEESA_EENS5_9allocatorIS9_EENS1_15prime_fmod_sizeIvEEEC1Ev, symObjAddr: 0x1C638, symBinAddr: 0x10001D548, symSize: 0x2C }
  - { offsetInCU: 0x6F9FD, offset: 0x6F9FD, size: 0x8, addend: 0x0, symName: __ZN5boost9unordered6detail9functionsINS_4hashI4PairEENSt3__18equal_toIS4_EEED2Ev, symObjAddr: 0x1C664, symBinAddr: 0x10001D574, symSize: 0xC8 }
  - { offsetInCU: 0x6FA27, offset: 0x6FA27, size: 0x8, addend: 0x0, symName: __ZN5boost9unordered6detail11opt_storageINS1_10compressedINS_4hashI4PairEENSt3__18equal_toIS5_EEEEEC1Ev, symObjAddr: 0x1C72C, symBinAddr: 0x10001D63C, symSize: 0x2C }
  - { offsetInCU: 0x6FA51, offset: 0x6FA51, size: 0x8, addend: 0x0, symName: __ZN5boost9unordered6detail11opt_storageINS1_10compressedINS_4hashI4PairEENSt3__18equal_toIS5_EEEEED1Ev, symObjAddr: 0x1C758, symBinAddr: 0x10001D668, symSize: 0x2C }
  - { offsetInCU: 0x6FA7B, offset: 0x6FA7B, size: 0x8, addend: 0x0, symName: __ZN5boost9unordered6detail9functionsINS_4hashI4PairEENSt3__18equal_toIS4_EEE19construct_functionsEhRKS5_RKS8_, symObjAddr: 0x1C784, symBinAddr: 0x10001D694, symSize: 0x84 }
  - { offsetInCU: 0x6FACE, offset: 0x6FACE, size: 0x8, addend: 0x0, symName: __ZN5boost9unordered6detail11opt_storageINS1_10compressedINS_4hashI4PairEENSt3__18equal_toIS5_EEEEEC2Ev, symObjAddr: 0x1C808, symBinAddr: 0x10001D718, symSize: 0x14 }
  - { offsetInCU: 0x6FAF8, offset: 0x6FAF8, size: 0x8, addend: 0x0, symName: __ZN5boost9unordered6detail11opt_storageINS1_10compressedINS_4hashI4PairEENSt3__18equal_toIS5_EEEEED2Ev, symObjAddr: 0x1C81C, symBinAddr: 0x10001D72C, symSize: 0x14 }
  - { offsetInCU: 0x6FB22, offset: 0x6FB22, size: 0x8, addend: 0x0, symName: __ZN5boost9unordered6detail10compressedINS_4hashI4PairEENSt3__18equal_toIS4_EEEC1IS5_S8_EERKT_RKT0_, symObjAddr: 0x1C830, symBinAddr: 0x10001D740, symSize: 0x3C }
  - { offsetInCU: 0x6FB7A, offset: 0x6FB7A, size: 0x8, addend: 0x0, symName: __ZN5boost9unordered6detail10compressedINS_4hashI4PairEENSt3__18equal_toIS4_EEEC2IS5_S8_EERKT_RKT0_, symObjAddr: 0x1C86C, symBinAddr: 0x10001D77C, symSize: 0x44 }
  - { offsetInCU: 0x6FBD2, offset: 0x6FBD2, size: 0x8, addend: 0x0, symName: __ZN5boost9unordered6detail15compressed_baseINS_4hashI4PairEELi1EEC2ERKS5_, symObjAddr: 0x1C8B0, symBinAddr: 0x10001D7C0, symSize: 0x34 }
  - { offsetInCU: 0x6FC0A, offset: 0x6FC0A, size: 0x8, addend: 0x0, symName: __ZN5boost9unordered6detail15compressed_baseINSt3__18equal_toI4PairEELi2EEC2ERKS6_, symObjAddr: 0x1C8E4, symBinAddr: 0x10001D7F4, symSize: 0x34 }
  - { offsetInCU: 0x6FC42, offset: 0x6FC42, size: 0x8, addend: 0x0, symName: __ZN5boost6empty_11empty_valueINS_4hashI4PairEELj0ELb1EEC2IRKS4_JEEENS_12empty_init_tEOT_DpOT0_, symObjAddr: 0x1C918, symBinAddr: 0x10001D828, symSize: 0x18 }
  - { offsetInCU: 0x6FC92, offset: 0x6FC92, size: 0x8, addend: 0x0, symName: __ZN5boost6empty_11empty_valueINSt3__18equal_toI4PairEELj0ELb1EEC2IRKS5_JEEENS_12empty_init_tEOT_DpOT0_, symObjAddr: 0x1C930, symBinAddr: 0x10001D840, symSize: 0x18 }
  - { offsetInCU: 0x6FCE2, offset: 0x6FCE2, size: 0x8, addend: 0x0, symName: __ZN5boost9unordered6detail20grouped_bucket_arrayINS1_6bucketINS1_4nodeINSt3__14pairIK4PairjEEPvEESA_EENS5_9allocatorIS9_EENS1_15prime_fmod_sizeIvEEEC2Ev, symObjAddr: 0x1C948, symBinAddr: 0x10001D858, symSize: 0x50 }
  - { offsetInCU: 0x6FD0C, offset: 0x6FD0C, size: 0x8, addend: 0x0, symName: __ZNSt3__19allocatorIN5boost9unordered6detail4nodeINS_4pairIK4PairjEEPvEEEC1B7v160006Ev, symObjAddr: 0x1C998, symBinAddr: 0x10001D8A8, symSize: 0x2C }
  - { offsetInCU: 0x6FD3C, offset: 0x6FD3C, size: 0x8, addend: 0x0, symName: __ZN5boost6empty_11empty_valueINSt3__19allocatorINS_9unordered6detail4nodeINS2_4pairIK4PairjEEPvEEEELj0ELb1EEC2ISD_JEEENS_12empty_init_tEOT_DpOT0_, symObjAddr: 0x1C9C4, symBinAddr: 0x10001D8D4, symSize: 0x18 }
  - { offsetInCU: 0x6FD8C, offset: 0x6FD8C, size: 0x8, addend: 0x0, symName: __ZNSt3__19allocatorIN5boost9unordered6detail4nodeINS_4pairIK4PairjEEPvEEEC2B7v160006Ev, symObjAddr: 0x1C9DC, symBinAddr: 0x10001D8EC, symSize: 0x2C }
  - { offsetInCU: 0x6FDB6, offset: 0x6FDB6, size: 0x8, addend: 0x0, symName: __ZN5boost9unordered6detail9functionsINS_4hashI4PairEENSt3__18equal_toIS4_EEE17destroy_functionsEh, symObjAddr: 0x1CA08, symBinAddr: 0x10001D918, symSize: 0x74 }
  - { offsetInCU: 0x6FDEB, offset: 0x6FDEB, size: 0x8, addend: 0x0, symName: __ZN5boost9unordered13unordered_mapI4PairjNS_4hashIS2_EENSt3__18equal_toIS2_EENS5_9allocatorINS5_4pairIKS2_jEEEEED2Ev, symObjAddr: 0x1CA8C, symBinAddr: 0x10001D99C, symSize: 0x2C }
  - { offsetInCU: 0x6FE17, offset: 0x6FE17, size: 0x8, addend: 0x0, symName: __ZN5boost9unordered6detail5tableINS1_3mapINSt3__19allocatorINS4_4pairIK4PairjEEEES7_jNS_4hashIS7_EENS4_8equal_toIS7_EEEEED1Ev, symObjAddr: 0x1CAB8, symBinAddr: 0x10001D9C8, symSize: 0x2C }
  - { offsetInCU: 0x6FE41, offset: 0x6FE41, size: 0x8, addend: 0x0, symName: __ZN5boost9unordered6detail5tableINS1_3mapINSt3__19allocatorINS4_4pairIK4PairjEEEES7_jNS_4hashIS7_EENS4_8equal_toIS7_EEEEED2Ev, symObjAddr: 0x1CAE4, symBinAddr: 0x10001D9F4, symSize: 0x48 }
  - { offsetInCU: 0x6FE6B, offset: 0x6FE6B, size: 0x8, addend: 0x0, symName: __ZN5boost9unordered6detail5tableINS1_3mapINSt3__19allocatorINS4_4pairIK4PairjEEEES7_jNS_4hashIS7_EENS4_8equal_toIS7_EEEEE14delete_bucketsEv, symObjAddr: 0x1CB2C, symBinAddr: 0x10001DA3C, symSize: 0xB4 }
  - { offsetInCU: 0x6FEDC, offset: 0x6FEDC, size: 0x8, addend: 0x0, symName: __ZN5boost9unordered6detail20grouped_bucket_arrayINS1_6bucketINS1_4nodeINSt3__14pairIK4PairjEEPvEESA_EENS5_9allocatorIS9_EENS1_15prime_fmod_sizeIvEEE12extract_nodeENS1_23grouped_bucket_iteratorISC_EEPSB_, symObjAddr: 0x1CBE0, symBinAddr: 0x10001DAF0, symSize: 0xC0 }
  - { offsetInCU: 0x6FF2F, offset: 0x6FF2F, size: 0x8, addend: 0x0, symName: __ZN5boost9unordered6detail20grouped_bucket_arrayINS1_6bucketINS1_4nodeINSt3__14pairIK4PairjEEPvEESA_EENS5_9allocatorIS9_EENS1_15prime_fmod_sizeIvEEE5clearEv, symObjAddr: 0x1CCA0, symBinAddr: 0x10001DBB0, symSize: 0x34 }
  - { offsetInCU: 0x6FF55, offset: 0x6FF55, size: 0x8, addend: 0x0, symName: __ZN5boost9unordered6detail20grouped_bucket_arrayINS1_6bucketINS1_4nodeINSt3__14pairIK4PairjEEPvEESA_EENS5_9allocatorIS9_EENS1_15prime_fmod_sizeIvEEE13unlink_bucketENS1_23grouped_bucket_iteratorISC_EE, symObjAddr: 0x1CCD4, symBinAddr: 0x10001DBE4, symSize: 0x88 }
  - { offsetInCU: 0x6FFA8, offset: 0x6FFA8, size: 0x8, addend: 0x0, symName: __ZN5boost9unordered6detail5tableINS1_3mapINSt3__19allocatorINS4_4pairIK4PairjEEEES7_jNS_4hashIS7_EENS4_8equal_toIS7_EEEEE18try_emplace_uniqueIS7_EENS6_INS1_15iterator_detail8iteratorINS1_4nodeIS9_PvEENS1_6bucketISM_SL_EEEEbEEOT_, symObjAddr: 0x1CD5C, symBinAddr: 0x10001DC6C, symSize: 0x264 }
  - { offsetInCU: 0x7005B, offset: 0x7005B, size: 0x8, addend: 0x0, symName: __ZNSt3__19allocatorINS_4pairIK4PairjEEE9constructB7v160006IS4_JRKNS_21piecewise_construct_tENS_5tupleIJOS2_EEENSA_IJEEEEEEvPT_DpOT0_, symObjAddr: 0x1D12C, symBinAddr: 0x10001E03C, symSize: 0x44 }
  - { offsetInCU: 0x700D7, offset: 0x700D7, size: 0x8, addend: 0x0, symName: __ZNSt3__14pairIK4PairjEC1B7v160006IJOS1_EJEEENS_21piecewise_construct_tENS_5tupleIJDpT_EEENS7_IJDpT0_EEE, symObjAddr: 0x1D170, symBinAddr: 0x10001E080, symSize: 0x3C }
  - { offsetInCU: 0x7013E, offset: 0x7013E, size: 0x8, addend: 0x0, symName: __ZNSt3__14pairIK4PairjEC1B7v160006IJOS1_EJEJLm0EEJEEENS_21piecewise_construct_tERNS_5tupleIJDpT_EEERNS7_IJDpT0_EEENS_15__tuple_indicesIJXspT1_EEEENSG_IJXspT2_EEEE, symObjAddr: 0x1D1AC, symBinAddr: 0x10001E0BC, symSize: 0x3C }
  - { offsetInCU: 0x701CB, offset: 0x701CB, size: 0x8, addend: 0x0, symName: __ZNSt3__14pairIK4PairjEC2B7v160006IJOS1_EJEJLm0EEJEEENS_21piecewise_construct_tERNS_5tupleIJDpT_EEERNS7_IJDpT0_EEENS_15__tuple_indicesIJXspT1_EEEENSG_IJXspT2_EEEE, symObjAddr: 0x1D1E8, symBinAddr: 0x10001E0F8, symSize: 0x48 }
  - { offsetInCU: 0x70258, offset: 0x70258, size: 0x8, addend: 0x0, symName: __ZN4PairC1EOS_, symObjAddr: 0x1D254, symBinAddr: 0x10001E164, symSize: 0x34 }
  - { offsetInCU: 0x7028D, offset: 0x7028D, size: 0x8, addend: 0x0, symName: __ZNSt3__112__tuple_leafILm0EO4PairLb0EE3getB7v160006Ev, symObjAddr: 0x1D288, symBinAddr: 0x10001E198, symSize: 0x18 }
  - { offsetInCU: 0x702B3, offset: 0x702B3, size: 0x8, addend: 0x0, symName: __ZN4PairC2EOS_, symObjAddr: 0x1D2A0, symBinAddr: 0x10001E1B0, symSize: 0x34 }
  - { offsetInCU: 0x702EE, offset: 0x702EE, size: 0x8, addend: 0x0, symName: __ZN5boost6tuples5tupleIjjNS0_9null_typeES2_S2_S2_S2_S2_S2_S2_EC1EOS3_, symObjAddr: 0x1D2D4, symBinAddr: 0x10001E1E4, symSize: 0x34 }
  - { offsetInCU: 0x70324, offset: 0x70324, size: 0x8, addend: 0x0, symName: __ZN5boost6tuples5tupleIjjNS0_9null_typeES2_S2_S2_S2_S2_S2_S2_EC2EOS3_, symObjAddr: 0x1D308, symBinAddr: 0x10001E218, symSize: 0x34 }
  - { offsetInCU: 0x7035A, offset: 0x7035A, size: 0x8, addend: 0x0, symName: __ZNSt3__15tupleIJO4PairEEC1B7v160006IJS1_ELi0EEEDpOT_, symObjAddr: 0x1D33C, symBinAddr: 0x10001E24C, symSize: 0x34 }
  - { offsetInCU: 0x703A4, offset: 0x703A4, size: 0x8, addend: 0x0, symName: __ZNSt3__15tupleIJO4PairEEC2B7v160006IJS1_ELi0EEEDpOT_, symObjAddr: 0x1D370, symBinAddr: 0x10001E280, symSize: 0x34 }
  - { offsetInCU: 0x703EE, offset: 0x703EE, size: 0x8, addend: 0x0, symName: __ZNSt3__112__tuple_implINS_15__tuple_indicesIJLm0EEEEJO4PairEEC1B7v160006IJLm0EEJS4_EJEJEJS3_EEENS1_IJXspT_EEEENS_13__tuple_typesIJDpT0_EEENS1_IJXspT1_EEEENS8_IJDpT2_EEEDpOT3_, symObjAddr: 0x1D3A4, symBinAddr: 0x10001E2B4, symSize: 0x34 }
  - { offsetInCU: 0x7047F, offset: 0x7047F, size: 0x8, addend: 0x0, symName: __ZNSt3__112__tuple_implINS_15__tuple_indicesIJLm0EEEEJO4PairEEC2B7v160006IJLm0EEJS4_EJEJEJS3_EEENS1_IJXspT_EEEENS_13__tuple_typesIJDpT0_EEENS1_IJXspT1_EEEENS8_IJDpT2_EEEDpOT3_, symObjAddr: 0x1D3D8, symBinAddr: 0x10001E2E8, symSize: 0x34 }
  - { offsetInCU: 0x70510, offset: 0x70510, size: 0x8, addend: 0x0, symName: __ZNSt3__112__tuple_leafILm0EO4PairLb0EEC2B7v160006IS1_vEEOT_, symObjAddr: 0x1D40C, symBinAddr: 0x10001E31C, symSize: 0x20 }
  - { offsetInCU: 0x70553, offset: 0x70553, size: 0x8, addend: 0x0, symName: '__ZNSt3__18functionIFjvEEC2IZ15kcobuchi_expandNS_10shared_ptrIN4spot9twa_graphEEEjbE3$_0vEET_', symObjAddr: 0x1D42C, symBinAddr: 0x10001E33C, symSize: 0x34 }
  - { offsetInCU: 0x70599, offset: 0x70599, size: 0x8, addend: 0x0, symName: '__ZNSt3__110__function12__value_funcIFjvEEC1B7v160006IZ15kcobuchi_expandNS_10shared_ptrIN4spot9twa_graphEEEjbE3$_0vEEOT_', symObjAddr: 0x1D460, symBinAddr: 0x10001E370, symSize: 0x50 }
  - { offsetInCU: 0x705DC, offset: 0x705DC, size: 0x8, addend: 0x0, symName: '__ZNSt3__19allocatorIZ15kcobuchi_expandNS_10shared_ptrIN4spot9twa_graphEEEjbE3$_0EC1B7v160006Ev', symObjAddr: 0x1D4B0, symBinAddr: 0x10001E3C0, symSize: 0x2C }
  - { offsetInCU: 0x70606, offset: 0x70606, size: 0x8, addend: 0x0, symName: '__ZNSt3__110__function12__value_funcIFjvEEC1B7v160006IZ15kcobuchi_expandNS_10shared_ptrIN4spot9twa_graphEEEjbE3$_0NS_9allocatorIS9_EEEEOT_RKT0_', symObjAddr: 0x1D4DC, symBinAddr: 0x10001E3EC, symSize: 0x3C }
  - { offsetInCU: 0x70660, offset: 0x70660, size: 0x8, addend: 0x0, symName: '__ZNSt3__19allocatorIZ15kcobuchi_expandNS_10shared_ptrIN4spot9twa_graphEEEjbE3$_0EC2B7v160006Ev', symObjAddr: 0x1D518, symBinAddr: 0x10001E428, symSize: 0x2C }
  - { offsetInCU: 0x7068A, offset: 0x7068A, size: 0x8, addend: 0x0, symName: '__ZNSt3__116__non_trivial_ifILb1ENS_9allocatorIZ15kcobuchi_expandNS_10shared_ptrIN4spot9twa_graphEEEjbE3$_0EEEC2B7v160006Ev', symObjAddr: 0x1D544, symBinAddr: 0x10001E454, symSize: 0x14 }
  - { offsetInCU: 0x706B4, offset: 0x706B4, size: 0x8, addend: 0x0, symName: '__ZNSt3__110__function12__value_funcIFjvEEC2B7v160006IZ15kcobuchi_expandNS_10shared_ptrIN4spot9twa_graphEEEjbE3$_0NS_9allocatorIS9_EEEEOT_RKT0_', symObjAddr: 0x1D558, symBinAddr: 0x10001E468, symSize: 0xF4 }
  - { offsetInCU: 0x7076B, offset: 0x7076B, size: 0x8, addend: 0x0, symName: '__ZNSt3__19allocatorINS_10__function6__funcIZ15kcobuchi_expandNS_10shared_ptrIN4spot9twa_graphEEEjbE3$_0NS0_IS7_EEFjvEEEEC1B7v160006IS7_EERKNS0_IT_EE', symObjAddr: 0x1D664, symBinAddr: 0x10001E574, symSize: 0x34 }
  - { offsetInCU: 0x707A8, offset: 0x707A8, size: 0x8, addend: 0x0, symName: '__ZNSt3__19allocatorINS_10__function6__funcIZ15kcobuchi_expandNS_10shared_ptrIN4spot9twa_graphEEEjbE3$_0NS0_IS7_EEFjvEEEE8allocateB7v160006Em', symObjAddr: 0x1D698, symBinAddr: 0x10001E5A8, symSize: 0x5C }
  - { offsetInCU: 0x707ED, offset: 0x707ED, size: 0x8, addend: 0x0, symName: '__ZNSt3__122__allocator_destructorINS_9allocatorINS_10__function6__funcIZ15kcobuchi_expandNS_10shared_ptrIN4spot9twa_graphEEEjbE3$_0NS1_IS8_EEFjvEEEEEEC1B7v160006ERSC_m', symObjAddr: 0x1D6F4, symBinAddr: 0x10001E604, symSize: 0x3C }
  - { offsetInCU: 0x708C9, offset: 0x708C9, size: 0x8, addend: 0x0, symName: '__ZNSt3__110unique_ptrINS_10__function6__baseIFjvEEENS_22__allocator_destructorINS_9allocatorINS1_6__funcIZ15kcobuchi_expandNS_10shared_ptrIN4spot9twa_graphEEEjbE3$_0NS6_ISC_EES3_EEEEEEEC1B7v160006ILb1EvEEPSE_NS_16__dependent_typeINS_27__unique_ptr_deleter_sfinaeISG_EEXT_EE20__good_rval_ref_typeE', symObjAddr: 0x1D730, symBinAddr: 0x10001E640, symSize: 0x3C }
  - { offsetInCU: 0x7091A, offset: 0x7091A, size: 0x8, addend: 0x0, symName: '__ZNKSt3__110unique_ptrINS_10__function6__baseIFjvEEENS_22__allocator_destructorINS_9allocatorINS1_6__funcIZ15kcobuchi_expandNS_10shared_ptrIN4spot9twa_graphEEEjbE3$_0NS6_ISC_EES3_EEEEEEE3getB7v160006Ev', symObjAddr: 0x1D76C, symBinAddr: 0x10001E67C, symSize: 0x28 }
  - { offsetInCU: 0x70940, offset: 0x70940, size: 0x8, addend: 0x0, symName: '__ZNSt3__110__function6__funcIZ15kcobuchi_expandNS_10shared_ptrIN4spot9twa_graphEEEjbE3$_0NS_9allocatorIS6_EEFjvEEC1B7v160006EOS6_OS8_', symObjAddr: 0x1D794, symBinAddr: 0x10001E6A4, symSize: 0x3C }
  - { offsetInCU: 0x70988, offset: 0x70988, size: 0x8, addend: 0x0, symName: '__ZNSt3__110unique_ptrINS_10__function6__baseIFjvEEENS_22__allocator_destructorINS_9allocatorINS1_6__funcIZ15kcobuchi_expandNS_10shared_ptrIN4spot9twa_graphEEEjbE3$_0NS6_ISC_EES3_EEEEEEE7releaseB7v160006Ev', symObjAddr: 0x1D7D0, symBinAddr: 0x10001E6E0, symSize: 0x44 }
  - { offsetInCU: 0x709BD, offset: 0x709BD, size: 0x8, addend: 0x0, symName: '__ZNSt3__110unique_ptrINS_10__function6__baseIFjvEEENS_22__allocator_destructorINS_9allocatorINS1_6__funcIZ15kcobuchi_expandNS_10shared_ptrIN4spot9twa_graphEEEjbE3$_0NS6_ISC_EES3_EEEEEEED1B7v160006Ev', symObjAddr: 0x1D814, symBinAddr: 0x10001E724, symSize: 0x2C }
  - { offsetInCU: 0x709E7, offset: 0x709E7, size: 0x8, addend: 0x0, symName: '__ZNSt3__19allocatorINS_10__function6__funcIZ15kcobuchi_expandNS_10shared_ptrIN4spot9twa_graphEEEjbE3$_0NS0_IS7_EEFjvEEEEC2B7v160006IS7_EERKNS0_IT_EE', symObjAddr: 0x1D840, symBinAddr: 0x10001E750, symSize: 0x30 }
  - { offsetInCU: 0x70A24, offset: 0x70A24, size: 0x8, addend: 0x0, symName: '__ZNSt3__116__non_trivial_ifILb1ENS_9allocatorINS_10__function6__funcIZ15kcobuchi_expandNS_10shared_ptrIN4spot9twa_graphEEEjbE3$_0NS1_IS8_EEFjvEEEEEEC2B7v160006Ev', symObjAddr: 0x1D870, symBinAddr: 0x10001E780, symSize: 0x14 }
  - { offsetInCU: 0x70A59, offset: 0x70A59, size: 0x8, addend: 0x0, symName: '__ZNSt3__116allocator_traitsINS_9allocatorINS_10__function6__funcIZ15kcobuchi_expandNS_10shared_ptrIN4spot9twa_graphEEEjbE3$_0NS1_IS8_EEFjvEEEEEE8max_sizeB7v160006ISC_vEEmRKSC_', symObjAddr: 0x1D884, symBinAddr: 0x10001E794, symSize: 0x24 }
  - { offsetInCU: 0x70A87, offset: 0x70A87, size: 0x8, addend: 0x0, symName: '__ZNKSt3__19allocatorINS_10__function6__funcIZ15kcobuchi_expandNS_10shared_ptrIN4spot9twa_graphEEEjbE3$_0NS0_IS7_EEFjvEEEE8max_sizeB7v160006Ev', symObjAddr: 0x1D8A8, symBinAddr: 0x10001E7B8, symSize: 0x20 }
  - { offsetInCU: 0x70AAD, offset: 0x70AAD, size: 0x8, addend: 0x0, symName: '__ZNSt3__122__allocator_destructorINS_9allocatorINS_10__function6__funcIZ15kcobuchi_expandNS_10shared_ptrIN4spot9twa_graphEEEjbE3$_0NS1_IS8_EEFjvEEEEEEC2B7v160006ERSC_m', symObjAddr: 0x1D8C8, symBinAddr: 0x10001E7D8, symSize: 0x2C }
  - { offsetInCU: 0x70AF3, offset: 0x70AF3, size: 0x8, addend: 0x0, symName: '__ZNSt3__110unique_ptrINS_10__function6__baseIFjvEEENS_22__allocator_destructorINS_9allocatorINS1_6__funcIZ15kcobuchi_expandNS_10shared_ptrIN4spot9twa_graphEEEjbE3$_0NS6_ISC_EES3_EEEEEEEC2B7v160006ILb1EvEEPSE_NS_16__dependent_typeINS_27__unique_ptr_deleter_sfinaeISG_EEXT_EE20__good_rval_ref_typeE', symObjAddr: 0x1D8F4, symBinAddr: 0x10001E804, symSize: 0x48 }
  - { offsetInCU: 0x70B44, offset: 0x70B44, size: 0x8, addend: 0x0, symName: '__ZNSt3__117__compressed_pairIPNS_10__function6__funcIZ15kcobuchi_expandNS_10shared_ptrIN4spot9twa_graphEEEjbE3$_0NS_9allocatorIS7_EEFjvEEENS_22__allocator_destructorINS8_ISB_EEEEEC1B7v160006IRSC_SF_EEOT_OT0_', symObjAddr: 0x1D93C, symBinAddr: 0x10001E84C, symSize: 0x3C }
  - { offsetInCU: 0x70B9C, offset: 0x70B9C, size: 0x8, addend: 0x0, symName: '__ZNSt3__117__compressed_pairIPNS_10__function6__funcIZ15kcobuchi_expandNS_10shared_ptrIN4spot9twa_graphEEEjbE3$_0NS_9allocatorIS7_EEFjvEEENS_22__allocator_destructorINS8_ISB_EEEEEC2B7v160006IRSC_SF_EEOT_OT0_', symObjAddr: 0x1D978, symBinAddr: 0x10001E888, symSize: 0x48 }
  - { offsetInCU: 0x70BF4, offset: 0x70BF4, size: 0x8, addend: 0x0, symName: '__ZNSt3__122__compressed_pair_elemIPNS_10__function6__funcIZ15kcobuchi_expandNS_10shared_ptrIN4spot9twa_graphEEEjbE3$_0NS_9allocatorIS7_EEFjvEEELi0ELb0EEC2B7v160006IRSC_vEEOT_', symObjAddr: 0x1D9C0, symBinAddr: 0x10001E8D0, symSize: 0x24 }
  - { offsetInCU: 0x70C36, offset: 0x70C36, size: 0x8, addend: 0x0, symName: '__ZNSt3__122__compressed_pair_elemINS_22__allocator_destructorINS_9allocatorINS_10__function6__funcIZ15kcobuchi_expandNS_10shared_ptrIN4spot9twa_graphEEEjbE3$_0NS2_IS9_EEFjvEEEEEEELi1ELb0EEC2B7v160006ISE_vEEOT_', symObjAddr: 0x1D9E4, symBinAddr: 0x10001E8F4, symSize: 0x24 }
  - { offsetInCU: 0x70C78, offset: 0x70C78, size: 0x8, addend: 0x0, symName: '__ZNKSt3__117__compressed_pairIPNS_10__function6__funcIZ15kcobuchi_expandNS_10shared_ptrIN4spot9twa_graphEEEjbE3$_0NS_9allocatorIS7_EEFjvEEENS_22__allocator_destructorINS8_ISB_EEEEE5firstB7v160006Ev', symObjAddr: 0x1DA08, symBinAddr: 0x10001E918, symSize: 0x24 }
  - { offsetInCU: 0x70C9E, offset: 0x70C9E, size: 0x8, addend: 0x0, symName: '__ZNKSt3__122__compressed_pair_elemIPNS_10__function6__funcIZ15kcobuchi_expandNS_10shared_ptrIN4spot9twa_graphEEEjbE3$_0NS_9allocatorIS7_EEFjvEEELi0ELb0EE5__getB7v160006Ev', symObjAddr: 0x1DA2C, symBinAddr: 0x10001E93C, symSize: 0x14 }
  - { offsetInCU: 0x70CC4, offset: 0x70CC4, size: 0x8, addend: 0x0, symName: '__ZNSt3__110__function6__funcIZ15kcobuchi_expandNS_10shared_ptrIN4spot9twa_graphEEEjbE3$_0NS_9allocatorIS6_EEFjvEEC2B7v160006EOS6_OS8_', symObjAddr: 0x1DA40, symBinAddr: 0x10001E950, symSize: 0x88 }
  - { offsetInCU: 0x70D0C, offset: 0x70D0C, size: 0x8, addend: 0x0, symName: __ZNSt3__110__function6__baseIFjvEEC2B7v160006Ev, symObjAddr: 0x1DAC8, symBinAddr: 0x10001E9D8, symSize: 0x24 }
  - { offsetInCU: 0x70D36, offset: 0x70D36, size: 0x8, addend: 0x0, symName: '__ZNSt3__110__function12__alloc_funcIZ15kcobuchi_expandNS_10shared_ptrIN4spot9twa_graphEEEjbE3$_0NS_9allocatorIS6_EEFjvEEC1B7v160006EOS6_OS8_', symObjAddr: 0x1DAEC, symBinAddr: 0x10001E9FC, symSize: 0x3C }
  - { offsetInCU: 0x70D7C, offset: 0x70D7C, size: 0x8, addend: 0x0, symName: __ZNSt3__110__function6__baseIFjvEED2Ev, symObjAddr: 0x1DB28, symBinAddr: 0x10001EA38, symSize: 0x14 }
  - { offsetInCU: 0x70DA6, offset: 0x70DA6, size: 0x8, addend: 0x0, symName: '__ZNSt3__110__function6__funcIZ15kcobuchi_expandNS_10shared_ptrIN4spot9twa_graphEEEjbE3$_0NS_9allocatorIS6_EEFjvEED1Ev', symObjAddr: 0x1DB3C, symBinAddr: 0x10001EA4C, symSize: 0x2C }
  - { offsetInCU: 0x70DD3, offset: 0x70DD3, size: 0x8, addend: 0x0, symName: '__ZNSt3__110__function6__funcIZ15kcobuchi_expandNS_10shared_ptrIN4spot9twa_graphEEEjbE3$_0NS_9allocatorIS6_EEFjvEED0Ev', symObjAddr: 0x1DB68, symBinAddr: 0x10001EA78, symSize: 0x30 }
  - { offsetInCU: 0x70E00, offset: 0x70E00, size: 0x8, addend: 0x0, symName: '__ZNKSt3__110__function6__funcIZ15kcobuchi_expandNS_10shared_ptrIN4spot9twa_graphEEEjbE3$_0NS_9allocatorIS6_EEFjvEE7__cloneEv', symObjAddr: 0x1DB98, symBinAddr: 0x10001EAA8, symSize: 0xFC }
  - { offsetInCU: 0x70E52, offset: 0x70E52, size: 0x8, addend: 0x0, symName: '__ZNKSt3__110__function6__funcIZ15kcobuchi_expandNS_10shared_ptrIN4spot9twa_graphEEEjbE3$_0NS_9allocatorIS6_EEFjvEE7__cloneEPNS0_6__baseIS9_EE', symObjAddr: 0x1DC94, symBinAddr: 0x10001EBA4, symSize: 0x58 }
  - { offsetInCU: 0x70E89, offset: 0x70E89, size: 0x8, addend: 0x0, symName: '__ZNSt3__110__function6__funcIZ15kcobuchi_expandNS_10shared_ptrIN4spot9twa_graphEEEjbE3$_0NS_9allocatorIS6_EEFjvEE7destroyEv', symObjAddr: 0x1DCEC, symBinAddr: 0x10001EBFC, symSize: 0x28 }
  - { offsetInCU: 0x70EB1, offset: 0x70EB1, size: 0x8, addend: 0x0, symName: '__ZNSt3__110__function6__funcIZ15kcobuchi_expandNS_10shared_ptrIN4spot9twa_graphEEEjbE3$_0NS_9allocatorIS6_EEFjvEE18destroy_deallocateEv', symObjAddr: 0x1DD14, symBinAddr: 0x10001EC24, symSize: 0x58 }
  - { offsetInCU: 0x70EF4, offset: 0x70EF4, size: 0x8, addend: 0x0, symName: '__ZNSt3__110__function6__funcIZ15kcobuchi_expandNS_10shared_ptrIN4spot9twa_graphEEEjbE3$_0NS_9allocatorIS6_EEFjvEEclEv', symObjAddr: 0x1DD6C, symBinAddr: 0x10001EC7C, symSize: 0x28 }
  - { offsetInCU: 0x70F1C, offset: 0x70F1C, size: 0x8, addend: 0x0, symName: '__ZNKSt3__110__function6__funcIZ15kcobuchi_expandNS_10shared_ptrIN4spot9twa_graphEEEjbE3$_0NS_9allocatorIS6_EEFjvEE6targetERKSt9type_info', symObjAddr: 0x1DD94, symBinAddr: 0x10001ECA4, symSize: 0x60 }
  - { offsetInCU: 0x70F53, offset: 0x70F53, size: 0x8, addend: 0x0, symName: '__ZNKSt3__110__function6__funcIZ15kcobuchi_expandNS_10shared_ptrIN4spot9twa_graphEEEjbE3$_0NS_9allocatorIS6_EEFjvEE11target_typeEv', symObjAddr: 0x1DDF4, symBinAddr: 0x10001ED04, symSize: 0x18 }
  - { offsetInCU: 0x70F7B, offset: 0x70F7B, size: 0x8, addend: 0x0, symName: __ZNSt3__110__function6__baseIFjvEED1Ev, symObjAddr: 0x1DE0C, symBinAddr: 0x10001ED1C, symSize: 0x14 }
  - { offsetInCU: 0x70FA5, offset: 0x70FA5, size: 0x8, addend: 0x0, symName: __ZNSt3__110__function6__baseIFjvEED0Ev, symObjAddr: 0x1DE20, symBinAddr: 0x10001ED30, symSize: 0xC }
  - { offsetInCU: 0x70FCF, offset: 0x70FCF, size: 0x8, addend: 0x0, symName: '__ZNSt3__110__function12__alloc_funcIZ15kcobuchi_expandNS_10shared_ptrIN4spot9twa_graphEEEjbE3$_0NS_9allocatorIS6_EEFjvEEC2B7v160006EOS6_OS8_', symObjAddr: 0x1DE2C, symBinAddr: 0x10001ED3C, symSize: 0x5C }
  - { offsetInCU: 0x71015, offset: 0x71015, size: 0x8, addend: 0x0, symName: '__ZNSt3__117__compressed_pairIZ15kcobuchi_expandNS_10shared_ptrIN4spot9twa_graphEEEjbE3$_0NS_9allocatorIS5_EEEC1B7v160006IJOS5_EJOS7_EEENS_21piecewise_construct_tENS_5tupleIJDpT_EEENSD_IJDpT0_EEE', symObjAddr: 0x1DEE0, symBinAddr: 0x10001EDF0, symSize: 0x3C }
  - { offsetInCU: 0x7107F, offset: 0x7107F, size: 0x8, addend: 0x0, symName: '__ZNSt3__15tupleIJOZ15kcobuchi_expandNS_10shared_ptrIN4spot9twa_graphEEEjbE3$_0EEC1B7v160006IJS5_ELi0EEEDpOT_', symObjAddr: 0x1DF1C, symBinAddr: 0x10001EE2C, symSize: 0x34 }
  - { offsetInCU: 0x710C9, offset: 0x710C9, size: 0x8, addend: 0x0, symName: '__ZNSt3__15tupleIJOZ15kcobuchi_expandNS_10shared_ptrIN4spot9twa_graphEEEjbE3$_0EEC2B7v160006IJS5_ELi0EEEDpOT_', symObjAddr: 0x1DF50, symBinAddr: 0x10001EE60, symSize: 0x34 }
  - { offsetInCU: 0x71113, offset: 0x71113, size: 0x8, addend: 0x0, symName: '__ZNSt3__112__tuple_implINS_15__tuple_indicesIJLm0EEEEJOZ15kcobuchi_expandNS_10shared_ptrIN4spot9twa_graphEEEjbE3$_0EEC1B7v160006IJLm0EEJS8_EJEJEJS7_EEENS1_IJXspT_EEEENS_13__tuple_typesIJDpT0_EEENS1_IJXspT1_EEEENSC_IJDpT2_EEEDpOT3_', symObjAddr: 0x1DF84, symBinAddr: 0x10001EE94, symSize: 0x34 }
  - { offsetInCU: 0x711A4, offset: 0x711A4, size: 0x8, addend: 0x0, symName: '__ZNSt3__112__tuple_implINS_15__tuple_indicesIJLm0EEEEJOZ15kcobuchi_expandNS_10shared_ptrIN4spot9twa_graphEEEjbE3$_0EEC2B7v160006IJLm0EEJS8_EJEJEJS7_EEENS1_IJXspT_EEEENS_13__tuple_typesIJDpT0_EEENS1_IJXspT1_EEEENSC_IJDpT2_EEEDpOT3_', symObjAddr: 0x1DFB8, symBinAddr: 0x10001EEC8, symSize: 0x34 }
  - { offsetInCU: 0x71235, offset: 0x71235, size: 0x8, addend: 0x0, symName: '__ZNSt3__112__tuple_leafILm0EOZ15kcobuchi_expandNS_10shared_ptrIN4spot9twa_graphEEEjbE3$_0Lb0EEC2B7v160006IS5_vEEOT_', symObjAddr: 0x1DFEC, symBinAddr: 0x10001EEFC, symSize: 0x20 }
  - { offsetInCU: 0x71278, offset: 0x71278, size: 0x8, addend: 0x0, symName: '__ZNSt3__15tupleIJONS_9allocatorIZ15kcobuchi_expandNS_10shared_ptrIN4spot9twa_graphEEEjbE3$_0EEEEC1B7v160006IJS7_ELi0EEEDpOT_', symObjAddr: 0x1E00C, symBinAddr: 0x10001EF1C, symSize: 0x34 }
  - { offsetInCU: 0x712C2, offset: 0x712C2, size: 0x8, addend: 0x0, symName: '__ZNSt3__15tupleIJONS_9allocatorIZ15kcobuchi_expandNS_10shared_ptrIN4spot9twa_graphEEEjbE3$_0EEEEC2B7v160006IJS7_ELi0EEEDpOT_', symObjAddr: 0x1E040, symBinAddr: 0x10001EF50, symSize: 0x34 }
  - { offsetInCU: 0x7130C, offset: 0x7130C, size: 0x8, addend: 0x0, symName: '__ZNSt3__112__tuple_implINS_15__tuple_indicesIJLm0EEEEJONS_9allocatorIZ15kcobuchi_expandNS_10shared_ptrIN4spot9twa_graphEEEjbE3$_0EEEEC1B7v160006IJLm0EEJSA_EJEJEJS9_EEENS1_IJXspT_EEEENS_13__tuple_typesIJDpT0_EEENS1_IJXspT1_EEEENSE_IJDpT2_EEEDpOT3_', symObjAddr: 0x1E074, symBinAddr: 0x10001EF84, symSize: 0x34 }
  - { offsetInCU: 0x7139D, offset: 0x7139D, size: 0x8, addend: 0x0, symName: '__ZNSt3__112__tuple_implINS_15__tuple_indicesIJLm0EEEEJONS_9allocatorIZ15kcobuchi_expandNS_10shared_ptrIN4spot9twa_graphEEEjbE3$_0EEEEC2B7v160006IJLm0EEJSA_EJEJEJS9_EEENS1_IJXspT_EEEENS_13__tuple_typesIJDpT0_EEENS1_IJXspT1_EEEENSE_IJDpT2_EEEDpOT3_', symObjAddr: 0x1E0A8, symBinAddr: 0x10001EFB8, symSize: 0x34 }
  - { offsetInCU: 0x7142E, offset: 0x7142E, size: 0x8, addend: 0x0, symName: '__ZNSt3__112__tuple_leafILm0EONS_9allocatorIZ15kcobuchi_expandNS_10shared_ptrIN4spot9twa_graphEEEjbE3$_0EELb0EEC2B7v160006IS7_vEEOT_', symObjAddr: 0x1E0DC, symBinAddr: 0x10001EFEC, symSize: 0x20 }
  - { offsetInCU: 0x71471, offset: 0x71471, size: 0x8, addend: 0x0, symName: '__ZNSt3__117__compressed_pairIZ15kcobuchi_expandNS_10shared_ptrIN4spot9twa_graphEEEjbE3$_0NS_9allocatorIS5_EEEC2B7v160006IJOS5_EJOS7_EEENS_21piecewise_construct_tENS_5tupleIJDpT_EEENSD_IJDpT0_EEE', symObjAddr: 0x1E0FC, symBinAddr: 0x10001F00C, symSize: 0x54 }
  - { offsetInCU: 0x714DB, offset: 0x714DB, size: 0x8, addend: 0x0, symName: '__ZNSt3__122__compressed_pair_elemIZ15kcobuchi_expandNS_10shared_ptrIN4spot9twa_graphEEEjbE3$_0Li0ELb0EEC2B7v160006IJOS5_EJLm0EEEENS_21piecewise_construct_tENS_5tupleIJDpT_EEENS_15__tuple_indicesIJXspT0_EEEE', symObjAddr: 0x1E150, symBinAddr: 0x10001F060, symSize: 0x48 }
  - { offsetInCU: 0x7153E, offset: 0x7153E, size: 0x8, addend: 0x0, symName: '__ZNSt3__122__compressed_pair_elemINS_9allocatorIZ15kcobuchi_expandNS_10shared_ptrIN4spot9twa_graphEEEjbE3$_0EELi1ELb1EEC2B7v160006IJOS7_EJLm0EEEENS_21piecewise_construct_tENS_5tupleIJDpT_EEENS_15__tuple_indicesIJXspT0_EEEE', symObjAddr: 0x1E198, symBinAddr: 0x10001F0A8, symSize: 0x38 }
  - { offsetInCU: 0x715A1, offset: 0x715A1, size: 0x8, addend: 0x0, symName: '__ZNSt3__112__tuple_leafILm0EOZ15kcobuchi_expandNS_10shared_ptrIN4spot9twa_graphEEEjbE3$_0Lb0EE3getB7v160006Ev', symObjAddr: 0x1E1F4, symBinAddr: 0x10001F104, symSize: 0x18 }
  - { offsetInCU: 0x715C7, offset: 0x715C7, size: 0x8, addend: 0x0, symName: '__ZNSt3__112__tuple_leafILm0EONS_9allocatorIZ15kcobuchi_expandNS_10shared_ptrIN4spot9twa_graphEEEjbE3$_0EELb0EE3getB7v160006Ev', symObjAddr: 0x1E230, symBinAddr: 0x10001F140, symSize: 0x18 }
  - { offsetInCU: 0x715ED, offset: 0x715ED, size: 0x8, addend: 0x0, symName: '__ZNSt3__110__function6__funcIZ15kcobuchi_expandNS_10shared_ptrIN4spot9twa_graphEEEjbE3$_0NS_9allocatorIS6_EEFjvEED2Ev', symObjAddr: 0x1E248, symBinAddr: 0x10001F158, symSize: 0x2C }
  - { offsetInCU: 0x7161A, offset: 0x7161A, size: 0x8, addend: 0x0, symName: '__ZNKSt3__110__function12__alloc_funcIZ15kcobuchi_expandNS_10shared_ptrIN4spot9twa_graphEEEjbE3$_0NS_9allocatorIS6_EEFjvEE15__get_allocatorB7v160006Ev', symObjAddr: 0x1E274, symBinAddr: 0x10001F184, symSize: 0x24 }
  - { offsetInCU: 0x7166C, offset: 0x7166C, size: 0x8, addend: 0x0, symName: '__ZNSt3__110unique_ptrINS_10__function6__funcIZ15kcobuchi_expandNS_10shared_ptrIN4spot9twa_graphEEEjbE3$_0NS_9allocatorIS7_EEFjvEEENS_22__allocator_destructorINS8_ISB_EEEEEC1B7v160006ILb1EvEEPSB_NS_16__dependent_typeINS_27__unique_ptr_deleter_sfinaeISE_EEXT_EE20__good_rval_ref_typeE', symObjAddr: 0x1E298, symBinAddr: 0x10001F1A8, symSize: 0x3C }
  - { offsetInCU: 0x716BD, offset: 0x716BD, size: 0x8, addend: 0x0, symName: '__ZNKSt3__110unique_ptrINS_10__function6__funcIZ15kcobuchi_expandNS_10shared_ptrIN4spot9twa_graphEEEjbE3$_0NS_9allocatorIS7_EEFjvEEENS_22__allocator_destructorINS8_ISB_EEEEE3getB7v160006Ev', symObjAddr: 0x1E2D4, symBinAddr: 0x10001F1E4, symSize: 0x28 }
  - { offsetInCU: 0x716E3, offset: 0x716E3, size: 0x8, addend: 0x0, symName: '__ZNKSt3__110__function12__alloc_funcIZ15kcobuchi_expandNS_10shared_ptrIN4spot9twa_graphEEEjbE3$_0NS_9allocatorIS6_EEFjvEE8__targetB7v160006Ev', symObjAddr: 0x1E2FC, symBinAddr: 0x10001F20C, symSize: 0x24 }
  - { offsetInCU: 0x7170F, offset: 0x7170F, size: 0x8, addend: 0x0, symName: '__ZNSt3__19allocatorIZ15kcobuchi_expandNS_10shared_ptrIN4spot9twa_graphEEEjbE3$_0EC1B7v160006INS_10__function6__funcIS5_S6_FjvEEEEERKNS0_IT_EE', symObjAddr: 0x1E320, symBinAddr: 0x10001F230, symSize: 0x34 }
  - { offsetInCU: 0x7174C, offset: 0x7174C, size: 0x8, addend: 0x0, symName: '__ZNSt3__110__function6__funcIZ15kcobuchi_expandNS_10shared_ptrIN4spot9twa_graphEEEjbE3$_0NS_9allocatorIS6_EEFjvEEC1B7v160006ERKS6_OS8_', symObjAddr: 0x1E354, symBinAddr: 0x10001F264, symSize: 0x3C }
  - { offsetInCU: 0x71794, offset: 0x71794, size: 0x8, addend: 0x0, symName: '__ZNSt3__110unique_ptrINS_10__function6__funcIZ15kcobuchi_expandNS_10shared_ptrIN4spot9twa_graphEEEjbE3$_0NS_9allocatorIS7_EEFjvEEENS_22__allocator_destructorINS8_ISB_EEEEE7releaseB7v160006Ev', symObjAddr: 0x1E390, symBinAddr: 0x10001F2A0, symSize: 0x44 }
  - { offsetInCU: 0x717C9, offset: 0x717C9, size: 0x8, addend: 0x0, symName: '__ZNSt3__110unique_ptrINS_10__function6__funcIZ15kcobuchi_expandNS_10shared_ptrIN4spot9twa_graphEEEjbE3$_0NS_9allocatorIS7_EEFjvEEENS_22__allocator_destructorINS8_ISB_EEEEED1B7v160006Ev', symObjAddr: 0x1E3D4, symBinAddr: 0x10001F2E4, symSize: 0x2C }
  - { offsetInCU: 0x717F3, offset: 0x717F3, size: 0x8, addend: 0x0, symName: '__ZNKSt3__117__compressed_pairIZ15kcobuchi_expandNS_10shared_ptrIN4spot9twa_graphEEEjbE3$_0NS_9allocatorIS5_EEE6secondB7v160006Ev', symObjAddr: 0x1E400, symBinAddr: 0x10001F310, symSize: 0x24 }
  - { offsetInCU: 0x71819, offset: 0x71819, size: 0x8, addend: 0x0, symName: '__ZNKSt3__122__compressed_pair_elemINS_9allocatorIZ15kcobuchi_expandNS_10shared_ptrIN4spot9twa_graphEEEjbE3$_0EELi1ELb1EE5__getB7v160006Ev', symObjAddr: 0x1E424, symBinAddr: 0x10001F334, symSize: 0x14 }
  - { offsetInCU: 0x7183F, offset: 0x7183F, size: 0x8, addend: 0x0, symName: '__ZNSt3__110unique_ptrINS_10__function6__funcIZ15kcobuchi_expandNS_10shared_ptrIN4spot9twa_graphEEEjbE3$_0NS_9allocatorIS7_EEFjvEEENS_22__allocator_destructorINS8_ISB_EEEEEC2B7v160006ILb1EvEEPSB_NS_16__dependent_typeINS_27__unique_ptr_deleter_sfinaeISE_EEXT_EE20__good_rval_ref_typeE', symObjAddr: 0x1E438, symBinAddr: 0x10001F348, symSize: 0x48 }
  - { offsetInCU: 0x71890, offset: 0x71890, size: 0x8, addend: 0x0, symName: '__ZNKSt3__117__compressed_pairIZ15kcobuchi_expandNS_10shared_ptrIN4spot9twa_graphEEEjbE3$_0NS_9allocatorIS5_EEE5firstB7v160006Ev', symObjAddr: 0x1E480, symBinAddr: 0x10001F390, symSize: 0x24 }
  - { offsetInCU: 0x718B6, offset: 0x718B6, size: 0x8, addend: 0x0, symName: '__ZNKSt3__122__compressed_pair_elemIZ15kcobuchi_expandNS_10shared_ptrIN4spot9twa_graphEEEjbE3$_0Li0ELb0EE5__getB7v160006Ev', symObjAddr: 0x1E4A4, symBinAddr: 0x10001F3B4, symSize: 0x14 }
  - { offsetInCU: 0x718DC, offset: 0x718DC, size: 0x8, addend: 0x0, symName: '__ZNSt3__19allocatorIZ15kcobuchi_expandNS_10shared_ptrIN4spot9twa_graphEEEjbE3$_0EC2B7v160006INS_10__function6__funcIS5_S6_FjvEEEEERKNS0_IT_EE', symObjAddr: 0x1E4B8, symBinAddr: 0x10001F3C8, symSize: 0x30 }
  - { offsetInCU: 0x71919, offset: 0x71919, size: 0x8, addend: 0x0, symName: '__ZNSt3__110__function6__funcIZ15kcobuchi_expandNS_10shared_ptrIN4spot9twa_graphEEEjbE3$_0NS_9allocatorIS6_EEFjvEEC2B7v160006ERKS6_OS8_', symObjAddr: 0x1E4E8, symBinAddr: 0x10001F3F8, symSize: 0x88 }
  - { offsetInCU: 0x71961, offset: 0x71961, size: 0x8, addend: 0x0, symName: '__ZNSt3__110__function12__alloc_funcIZ15kcobuchi_expandNS_10shared_ptrIN4spot9twa_graphEEEjbE3$_0NS_9allocatorIS6_EEFjvEEC1B7v160006ERKS6_OS8_', symObjAddr: 0x1E570, symBinAddr: 0x10001F480, symSize: 0x3C }
  - { offsetInCU: 0x719A7, offset: 0x719A7, size: 0x8, addend: 0x0, symName: '__ZNSt3__110__function12__alloc_funcIZ15kcobuchi_expandNS_10shared_ptrIN4spot9twa_graphEEEjbE3$_0NS_9allocatorIS6_EEFjvEEC2B7v160006ERKS6_OS8_', symObjAddr: 0x1E5AC, symBinAddr: 0x10001F4BC, symSize: 0x5C }
  - { offsetInCU: 0x719ED, offset: 0x719ED, size: 0x8, addend: 0x0, symName: '__ZNSt3__117__compressed_pairIZ15kcobuchi_expandNS_10shared_ptrIN4spot9twa_graphEEEjbE3$_0NS_9allocatorIS5_EEEC1B7v160006IJRKS5_EJOS7_EEENS_21piecewise_construct_tENS_5tupleIJDpT_EEENSE_IJDpT0_EEE', symObjAddr: 0x1E634, symBinAddr: 0x10001F544, symSize: 0x3C }
  - { offsetInCU: 0x71A57, offset: 0x71A57, size: 0x8, addend: 0x0, symName: '__ZNSt3__15tupleIJRKZ15kcobuchi_expandNS_10shared_ptrIN4spot9twa_graphEEEjbE3$_0EEC1B7v160006INS_4_AndELi0EEES7_', symObjAddr: 0x1E670, symBinAddr: 0x10001F580, symSize: 0x34 }
  - { offsetInCU: 0x71A9F, offset: 0x71A9F, size: 0x8, addend: 0x0, symName: '__ZNSt3__15tupleIJRKZ15kcobuchi_expandNS_10shared_ptrIN4spot9twa_graphEEEjbE3$_0EEC2B7v160006INS_4_AndELi0EEES7_', symObjAddr: 0x1E6A4, symBinAddr: 0x10001F5B4, symSize: 0x34 }
  - { offsetInCU: 0x71AE7, offset: 0x71AE7, size: 0x8, addend: 0x0, symName: '__ZNSt3__112__tuple_implINS_15__tuple_indicesIJLm0EEEEJRKZ15kcobuchi_expandNS_10shared_ptrIN4spot9twa_graphEEEjbE3$_0EEC1B7v160006IJLm0EEJS9_EJEJEJS9_EEENS1_IJXspT_EEEENS_13__tuple_typesIJDpT0_EEENS1_IJXspT1_EEEENSD_IJDpT2_EEEDpOT3_', symObjAddr: 0x1E6D8, symBinAddr: 0x10001F5E8, symSize: 0x34 }
  - { offsetInCU: 0x71B78, offset: 0x71B78, size: 0x8, addend: 0x0, symName: '__ZNSt3__112__tuple_implINS_15__tuple_indicesIJLm0EEEEJRKZ15kcobuchi_expandNS_10shared_ptrIN4spot9twa_graphEEEjbE3$_0EEC2B7v160006IJLm0EEJS9_EJEJEJS9_EEENS1_IJXspT_EEEENS_13__tuple_typesIJDpT0_EEENS1_IJXspT1_EEEENSD_IJDpT2_EEEDpOT3_', symObjAddr: 0x1E70C, symBinAddr: 0x10001F61C, symSize: 0x34 }
  - { offsetInCU: 0x71C09, offset: 0x71C09, size: 0x8, addend: 0x0, symName: '__ZNSt3__112__tuple_leafILm0ERKZ15kcobuchi_expandNS_10shared_ptrIN4spot9twa_graphEEEjbE3$_0Lb0EEC2B7v160006IS7_vEEOT_', symObjAddr: 0x1E740, symBinAddr: 0x10001F650, symSize: 0x20 }
  - { offsetInCU: 0x71C4C, offset: 0x71C4C, size: 0x8, addend: 0x0, symName: '__ZNSt3__117__compressed_pairIZ15kcobuchi_expandNS_10shared_ptrIN4spot9twa_graphEEEjbE3$_0NS_9allocatorIS5_EEEC2B7v160006IJRKS5_EJOS7_EEENS_21piecewise_construct_tENS_5tupleIJDpT_EEENSE_IJDpT0_EEE', symObjAddr: 0x1E760, symBinAddr: 0x10001F670, symSize: 0x54 }
  - { offsetInCU: 0x71CB6, offset: 0x71CB6, size: 0x8, addend: 0x0, symName: '__ZNSt3__122__compressed_pair_elemIZ15kcobuchi_expandNS_10shared_ptrIN4spot9twa_graphEEEjbE3$_0Li0ELb0EEC2B7v160006IJRKS5_EJLm0EEEENS_21piecewise_construct_tENS_5tupleIJDpT_EEENS_15__tuple_indicesIJXspT0_EEEE', symObjAddr: 0x1E7B4, symBinAddr: 0x10001F6C4, symSize: 0x48 }
  - { offsetInCU: 0x71D19, offset: 0x71D19, size: 0x8, addend: 0x0, symName: '__ZNSt3__112__tuple_leafILm0ERKZ15kcobuchi_expandNS_10shared_ptrIN4spot9twa_graphEEEjbE3$_0Lb0EE3getB7v160006Ev', symObjAddr: 0x1E820, symBinAddr: 0x10001F730, symSize: 0x18 }
  - { offsetInCU: 0x71D3F, offset: 0x71D3F, size: 0x8, addend: 0x0, symName: '__ZNSt3__117__compressed_pairIPNS_10__function6__funcIZ15kcobuchi_expandNS_10shared_ptrIN4spot9twa_graphEEEjbE3$_0NS_9allocatorIS7_EEFjvEEENS_22__allocator_destructorINS8_ISB_EEEEE5firstB7v160006Ev', symObjAddr: 0x1E838, symBinAddr: 0x10001F748, symSize: 0x24 }
  - { offsetInCU: 0x71D65, offset: 0x71D65, size: 0x8, addend: 0x0, symName: '__ZNSt3__122__compressed_pair_elemIPNS_10__function6__funcIZ15kcobuchi_expandNS_10shared_ptrIN4spot9twa_graphEEEjbE3$_0NS_9allocatorIS7_EEFjvEEELi0ELb0EE5__getB7v160006Ev', symObjAddr: 0x1E85C, symBinAddr: 0x10001F76C, symSize: 0x14 }
  - { offsetInCU: 0x71D8B, offset: 0x71D8B, size: 0x8, addend: 0x0, symName: '__ZNSt3__110unique_ptrINS_10__function6__funcIZ15kcobuchi_expandNS_10shared_ptrIN4spot9twa_graphEEEjbE3$_0NS_9allocatorIS7_EEFjvEEENS_22__allocator_destructorINS8_ISB_EEEEED2B7v160006Ev', symObjAddr: 0x1E870, symBinAddr: 0x10001F780, symSize: 0x30 }
  - { offsetInCU: 0x71DB5, offset: 0x71DB5, size: 0x8, addend: 0x0, symName: '__ZNSt3__110unique_ptrINS_10__function6__funcIZ15kcobuchi_expandNS_10shared_ptrIN4spot9twa_graphEEEjbE3$_0NS_9allocatorIS7_EEFjvEEENS_22__allocator_destructorINS8_ISB_EEEEE5resetB7v160006EPSB_', symObjAddr: 0x1E8A0, symBinAddr: 0x10001F7B0, symSize: 0x78 }
  - { offsetInCU: 0x71DF9, offset: 0x71DF9, size: 0x8, addend: 0x0, symName: '__ZNSt3__117__compressed_pairIPNS_10__function6__funcIZ15kcobuchi_expandNS_10shared_ptrIN4spot9twa_graphEEEjbE3$_0NS_9allocatorIS7_EEFjvEEENS_22__allocator_destructorINS8_ISB_EEEEE6secondB7v160006Ev', symObjAddr: 0x1E918, symBinAddr: 0x10001F828, symSize: 0x28 }
  - { offsetInCU: 0x71E1F, offset: 0x71E1F, size: 0x8, addend: 0x0, symName: '__ZNSt3__122__allocator_destructorINS_9allocatorINS_10__function6__funcIZ15kcobuchi_expandNS_10shared_ptrIN4spot9twa_graphEEEjbE3$_0NS1_IS8_EEFjvEEEEEEclB7v160006EPSB_', symObjAddr: 0x1E940, symBinAddr: 0x10001F850, symSize: 0x34 }
  - { offsetInCU: 0x71E53, offset: 0x71E53, size: 0x8, addend: 0x0, symName: '__ZNSt3__122__compressed_pair_elemINS_22__allocator_destructorINS_9allocatorINS_10__function6__funcIZ15kcobuchi_expandNS_10shared_ptrIN4spot9twa_graphEEEjbE3$_0NS2_IS9_EEFjvEEEEEEELi1ELb0EE5__getB7v160006Ev', symObjAddr: 0x1E974, symBinAddr: 0x10001F884, symSize: 0x14 }
  - { offsetInCU: 0x71E79, offset: 0x71E79, size: 0x8, addend: 0x0, symName: '__ZNSt3__116allocator_traitsINS_9allocatorINS_10__function6__funcIZ15kcobuchi_expandNS_10shared_ptrIN4spot9twa_graphEEEjbE3$_0NS1_IS8_EEFjvEEEEEE10deallocateB7v160006ERSC_PSB_m', symObjAddr: 0x1E988, symBinAddr: 0x10001F898, symSize: 0x34 }
  - { offsetInCU: 0x71EBB, offset: 0x71EBB, size: 0x8, addend: 0x0, symName: '__ZNSt3__19allocatorINS_10__function6__funcIZ15kcobuchi_expandNS_10shared_ptrIN4spot9twa_graphEEEjbE3$_0NS0_IS7_EEFjvEEEE10deallocateB7v160006EPSA_m', symObjAddr: 0x1E9BC, symBinAddr: 0x10001F8CC, symSize: 0x44 }
  - { offsetInCU: 0x71EFD, offset: 0x71EFD, size: 0x8, addend: 0x0, symName: '__ZNSt3__110__function6__funcIZ15kcobuchi_expandNS_10shared_ptrIN4spot9twa_graphEEEjbE3$_0NS_9allocatorIS6_EEFjvEEC1B7v160006ERKS6_RKS8_', symObjAddr: 0x1EA00, symBinAddr: 0x10001F910, symSize: 0x3C }
  - { offsetInCU: 0x71F45, offset: 0x71F45, size: 0x8, addend: 0x0, symName: '__ZNSt3__110__function6__funcIZ15kcobuchi_expandNS_10shared_ptrIN4spot9twa_graphEEEjbE3$_0NS_9allocatorIS6_EEFjvEEC2B7v160006ERKS6_RKS8_', symObjAddr: 0x1EA3C, symBinAddr: 0x10001F94C, symSize: 0x88 }
  - { offsetInCU: 0x71F8D, offset: 0x71F8D, size: 0x8, addend: 0x0, symName: '__ZNSt3__110__function12__alloc_funcIZ15kcobuchi_expandNS_10shared_ptrIN4spot9twa_graphEEEjbE3$_0NS_9allocatorIS6_EEFjvEEC1B7v160006ERKS6_RKS8_', symObjAddr: 0x1EAC4, symBinAddr: 0x10001F9D4, symSize: 0x3C }
  - { offsetInCU: 0x71FD3, offset: 0x71FD3, size: 0x8, addend: 0x0, symName: '__ZNSt3__110__function12__alloc_funcIZ15kcobuchi_expandNS_10shared_ptrIN4spot9twa_graphEEEjbE3$_0NS_9allocatorIS6_EEFjvEEC2B7v160006ERKS6_RKS8_', symObjAddr: 0x1EB00, symBinAddr: 0x10001FA10, symSize: 0x5C }
  - { offsetInCU: 0x72019, offset: 0x72019, size: 0x8, addend: 0x0, symName: '__ZNSt3__117__compressed_pairIZ15kcobuchi_expandNS_10shared_ptrIN4spot9twa_graphEEEjbE3$_0NS_9allocatorIS5_EEEC1B7v160006IJRKS5_EJRKS7_EEENS_21piecewise_construct_tENS_5tupleIJDpT_EEENSF_IJDpT0_EEE', symObjAddr: 0x1EB88, symBinAddr: 0x10001FA98, symSize: 0x3C }
  - { offsetInCU: 0x72083, offset: 0x72083, size: 0x8, addend: 0x0, symName: '__ZNSt3__15tupleIJRKNS_9allocatorIZ15kcobuchi_expandNS_10shared_ptrIN4spot9twa_graphEEEjbE3$_0EEEEC1B7v160006INS_4_AndELi0EEES9_', symObjAddr: 0x1EBC4, symBinAddr: 0x10001FAD4, symSize: 0x34 }
  - { offsetInCU: 0x720CB, offset: 0x720CB, size: 0x8, addend: 0x0, symName: '__ZNSt3__15tupleIJRKNS_9allocatorIZ15kcobuchi_expandNS_10shared_ptrIN4spot9twa_graphEEEjbE3$_0EEEEC2B7v160006INS_4_AndELi0EEES9_', symObjAddr: 0x1EBF8, symBinAddr: 0x10001FB08, symSize: 0x34 }
  - { offsetInCU: 0x72113, offset: 0x72113, size: 0x8, addend: 0x0, symName: '__ZNSt3__112__tuple_implINS_15__tuple_indicesIJLm0EEEEJRKNS_9allocatorIZ15kcobuchi_expandNS_10shared_ptrIN4spot9twa_graphEEEjbE3$_0EEEEC1B7v160006IJLm0EEJSB_EJEJEJSB_EEENS1_IJXspT_EEEENS_13__tuple_typesIJDpT0_EEENS1_IJXspT1_EEEENSF_IJDpT2_EEEDpOT3_', symObjAddr: 0x1EC2C, symBinAddr: 0x10001FB3C, symSize: 0x34 }
  - { offsetInCU: 0x721A4, offset: 0x721A4, size: 0x8, addend: 0x0, symName: '__ZNSt3__112__tuple_implINS_15__tuple_indicesIJLm0EEEEJRKNS_9allocatorIZ15kcobuchi_expandNS_10shared_ptrIN4spot9twa_graphEEEjbE3$_0EEEEC2B7v160006IJLm0EEJSB_EJEJEJSB_EEENS1_IJXspT_EEEENS_13__tuple_typesIJDpT0_EEENS1_IJXspT1_EEEENSF_IJDpT2_EEEDpOT3_', symObjAddr: 0x1EC60, symBinAddr: 0x10001FB70, symSize: 0x34 }
  - { offsetInCU: 0x72235, offset: 0x72235, size: 0x8, addend: 0x0, symName: '__ZNSt3__112__tuple_leafILm0ERKNS_9allocatorIZ15kcobuchi_expandNS_10shared_ptrIN4spot9twa_graphEEEjbE3$_0EELb0EEC2B7v160006IS9_vEEOT_', symObjAddr: 0x1EC94, symBinAddr: 0x10001FBA4, symSize: 0x20 }
  - { offsetInCU: 0x72278, offset: 0x72278, size: 0x8, addend: 0x0, symName: '__ZNSt3__117__compressed_pairIZ15kcobuchi_expandNS_10shared_ptrIN4spot9twa_graphEEEjbE3$_0NS_9allocatorIS5_EEEC2B7v160006IJRKS5_EJRKS7_EEENS_21piecewise_construct_tENS_5tupleIJDpT_EEENSF_IJDpT0_EEE', symObjAddr: 0x1ECB4, symBinAddr: 0x10001FBC4, symSize: 0x54 }
  - { offsetInCU: 0x722E2, offset: 0x722E2, size: 0x8, addend: 0x0, symName: '__ZNSt3__122__compressed_pair_elemINS_9allocatorIZ15kcobuchi_expandNS_10shared_ptrIN4spot9twa_graphEEEjbE3$_0EELi1ELb1EEC2B7v160006IJRKS7_EJLm0EEEENS_21piecewise_construct_tENS_5tupleIJDpT_EEENS_15__tuple_indicesIJXspT0_EEEE', symObjAddr: 0x1ED08, symBinAddr: 0x10001FC18, symSize: 0x38 }
  - { offsetInCU: 0x72345, offset: 0x72345, size: 0x8, addend: 0x0, symName: '__ZNSt3__112__tuple_leafILm0ERKNS_9allocatorIZ15kcobuchi_expandNS_10shared_ptrIN4spot9twa_graphEEEjbE3$_0EELb0EE3getB7v160006Ev', symObjAddr: 0x1ED64, symBinAddr: 0x10001FC74, symSize: 0x18 }
  - { offsetInCU: 0x7236B, offset: 0x7236B, size: 0x8, addend: 0x0, symName: '__ZNSt3__110__function12__alloc_funcIZ15kcobuchi_expandNS_10shared_ptrIN4spot9twa_graphEEEjbE3$_0NS_9allocatorIS6_EEFjvEE7destroyB7v160006Ev', symObjAddr: 0x1ED7C, symBinAddr: 0x10001FC8C, symSize: 0x10 }
  - { offsetInCU: 0x72391, offset: 0x72391, size: 0x8, addend: 0x0, symName: '__ZNSt3__110__function12__alloc_funcIZ15kcobuchi_expandNS_10shared_ptrIN4spot9twa_graphEEEjbE3$_0NS_9allocatorIS6_EEFjvEEclB7v160006Ev', symObjAddr: 0x1ED8C, symBinAddr: 0x10001FC9C, symSize: 0x28 }
  - { offsetInCU: 0x723B7, offset: 0x723B7, size: 0x8, addend: 0x0, symName: '__ZNSt3__128__invoke_void_return_wrapperIjLb0EE6__callIJRZ15kcobuchi_expandNS_10shared_ptrIN4spot9twa_graphEEEjbE3$_0EEEjDpOT_', symObjAddr: 0x1EDB4, symBinAddr: 0x10001FCC4, symSize: 0x24 }
  - { offsetInCU: 0x723E6, offset: 0x723E6, size: 0x8, addend: 0x0, symName: '__ZNSt3__117__compressed_pairIZ15kcobuchi_expandNS_10shared_ptrIN4spot9twa_graphEEEjbE3$_0NS_9allocatorIS5_EEE5firstB7v160006Ev', symObjAddr: 0x1EDD8, symBinAddr: 0x10001FCE8, symSize: 0x24 }
  - { offsetInCU: 0x72411, offset: 0x72411, size: 0x8, addend: 0x0, symName: '__ZZ15kcobuchi_expandNSt3__110shared_ptrIN4spot9twa_graphEEEjbENK3$_0clEv', symObjAddr: 0x1EE20, symBinAddr: 0x10001FD30, symSize: 0x10C }
  - { offsetInCU: 0x7243B, offset: 0x7243B, size: 0x8, addend: 0x0, symName: '__ZNSt3__122__compressed_pair_elemIZ15kcobuchi_expandNS_10shared_ptrIN4spot9twa_graphEEEjbE3$_0Li0ELb0EE5__getB7v160006Ev', symObjAddr: 0x1EF2C, symBinAddr: 0x10001FE3C, symSize: 0x14 }
  - { offsetInCU: 0x72497, offset: 0x72497, size: 0x8, addend: 0x0, symName: __ZNKSt9type_infoeqB7v160006ERKS_, symObjAddr: 0x1EF40, symBinAddr: 0x10001FE50, symSize: 0xDC }
  - { offsetInCU: 0x72535, offset: 0x72535, size: 0x8, addend: 0x0, symName: __ZNSt27__type_info_implementations30__non_unique_arm_rtti_bit_impl21__is_type_name_uniqueB7v160006Em, symObjAddr: 0x1F01C, symBinAddr: 0x10001FF2C, symSize: 0x20 }
  - { offsetInCU: 0x72559, offset: 0x72559, size: 0x8, addend: 0x0, symName: '__ZNSt3__110unique_ptrINS_10__function6__baseIFjvEEENS_22__allocator_destructorINS_9allocatorINS1_6__funcIZ15kcobuchi_expandNS_10shared_ptrIN4spot9twa_graphEEEjbE3$_0NS6_ISC_EES3_EEEEEEED2B7v160006Ev', symObjAddr: 0x1F03C, symBinAddr: 0x10001FF4C, symSize: 0x30 }
  - { offsetInCU: 0x72583, offset: 0x72583, size: 0x8, addend: 0x0, symName: '__ZNSt3__110unique_ptrINS_10__function6__baseIFjvEEENS_22__allocator_destructorINS_9allocatorINS1_6__funcIZ15kcobuchi_expandNS_10shared_ptrIN4spot9twa_graphEEEjbE3$_0NS6_ISC_EES3_EEEEEEE5resetB7v160006EPSE_', symObjAddr: 0x1F06C, symBinAddr: 0x10001FF7C, symSize: 0x78 }
  - { offsetInCU: 0x725C7, offset: 0x725C7, size: 0x8, addend: 0x0, symName: __ZNSt3__18functionIFjvEED2Ev, symObjAddr: 0x1F0E4, symBinAddr: 0x10001FFF4, symSize: 0x2C }
  - { offsetInCU: 0x725F3, offset: 0x725F3, size: 0x8, addend: 0x0, symName: __ZNSt3__110__function12__value_funcIFjvEED1B7v160006Ev, symObjAddr: 0x1F110, symBinAddr: 0x100020020, symSize: 0x2C }
  - { offsetInCU: 0x7261D, offset: 0x7261D, size: 0x8, addend: 0x0, symName: __ZNSt3__110__function12__value_funcIFjvEED2B7v160006Ev, symObjAddr: 0x1F13C, symBinAddr: 0x10002004C, symSize: 0x90 }
  - { offsetInCU: 0x72647, offset: 0x72647, size: 0x8, addend: 0x0, symName: __ZNSt3__16vectorIjNS_9allocatorIjEEEC2B7v160006Ev, symObjAddr: 0x1F1CC, symBinAddr: 0x1000200DC, symSize: 0x54 }
  - { offsetInCU: 0x72671, offset: 0x72671, size: 0x8, addend: 0x0, symName: __ZNSt3__117__compressed_pairIPjNS_9allocatorIjEEEC1B7v160006IDnNS_18__default_init_tagEEEOT_OT0_, symObjAddr: 0x1F220, symBinAddr: 0x100020130, symSize: 0x3C }
  - { offsetInCU: 0x726C9, offset: 0x726C9, size: 0x8, addend: 0x0, symName: __ZNSt3__117__compressed_pairIPjNS_9allocatorIjEEEC2B7v160006IDnNS_18__default_init_tagEEEOT_OT0_, symObjAddr: 0x1F25C, symBinAddr: 0x10002016C, symSize: 0x40 }
  - { offsetInCU: 0x72721, offset: 0x72721, size: 0x8, addend: 0x0, symName: __ZNSt3__122__compressed_pair_elemINS_9allocatorIjEELi1ELb1EEC2B7v160006ENS_18__default_init_tagE, symObjAddr: 0x1F29C, symBinAddr: 0x1000201AC, symSize: 0x2C }
  - { offsetInCU: 0x72755, offset: 0x72755, size: 0x8, addend: 0x0, symName: __ZNSt3__19allocatorIjEC2B7v160006Ev, symObjAddr: 0x1F2C8, symBinAddr: 0x1000201D8, symSize: 0x2C }
  - { offsetInCU: 0x7277F, offset: 0x7277F, size: 0x8, addend: 0x0, symName: __ZNSt3__116__non_trivial_ifILb1ENS_9allocatorIjEEEC2B7v160006Ev, symObjAddr: 0x1F2F4, symBinAddr: 0x100020204, symSize: 0x14 }
  - { offsetInCU: 0x727A9, offset: 0x727A9, size: 0x8, addend: 0x0, symName: __ZNSt3__16vectorIjNS_9allocatorIjEEE22__construct_one_at_endB7v160006IJRKjEEEvDpOT_, symObjAddr: 0x1F308, symBinAddr: 0x100020218, symSize: 0x90 }
  - { offsetInCU: 0x727F8, offset: 0x727F8, size: 0x8, addend: 0x0, symName: __ZNSt3__16vectorIjNS_9allocatorIjEEE21__push_back_slow_pathIRKjEEvOT_, symObjAddr: 0x1F398, symBinAddr: 0x1000202A8, symSize: 0xD8 }
  - { offsetInCU: 0x72856, offset: 0x72856, size: 0x8, addend: 0x0, symName: __ZNSt3__116allocator_traitsINS_9allocatorIjEEE9constructB7v160006IjJRKjEvEEvRS2_PT_DpOT0_, symObjAddr: 0x1F470, symBinAddr: 0x100020380, symSize: 0x34 }
  - { offsetInCU: 0x728AD, offset: 0x728AD, size: 0x8, addend: 0x0, symName: __ZNSt3__19allocatorIjE9constructB7v160006IjJRKjEEEvPT_DpOT0_, symObjAddr: 0x1F4A4, symBinAddr: 0x1000203B4, symSize: 0x28 }
  - { offsetInCU: 0x72903, offset: 0x72903, size: 0x8, addend: 0x0, symName: __ZNKSt3__16vectorIjNS_9allocatorIjEEE11__recommendB7v160006Em, symObjAddr: 0x1F4CC, symBinAddr: 0x1000203DC, symSize: 0xB4 }
  - { offsetInCU: 0x72958, offset: 0x72958, size: 0x8, addend: 0x0, symName: __ZNSt3__114__split_bufferIjRNS_9allocatorIjEEEC1EmmS3_, symObjAddr: 0x1F580, symBinAddr: 0x100020490, symSize: 0x44 }
  - { offsetInCU: 0x729AE, offset: 0x729AE, size: 0x8, addend: 0x0, symName: __ZNSt3__114__split_bufferIjRNS_9allocatorIjEEED1Ev, symObjAddr: 0x1F6DC, symBinAddr: 0x1000205EC, symSize: 0x2C }
  - { offsetInCU: 0x729DA, offset: 0x729DA, size: 0x8, addend: 0x0, symName: __ZNSt3__114__split_bufferIjRNS_9allocatorIjEEEC2EmmS3_, symObjAddr: 0x1F708, symBinAddr: 0x100020618, symSize: 0xD4 }
  - { offsetInCU: 0x72A4E, offset: 0x72A4E, size: 0x8, addend: 0x0, symName: __ZNSt3__117__compressed_pairIPjRNS_9allocatorIjEEEC1B7v160006IDnS4_EEOT_OT0_, symObjAddr: 0x1F7DC, symBinAddr: 0x1000206EC, symSize: 0x3C }
  - { offsetInCU: 0x72AA6, offset: 0x72AA6, size: 0x8, addend: 0x0, symName: __ZNSt3__114__split_bufferIjRNS_9allocatorIjEEE7__allocB7v160006Ev, symObjAddr: 0x1F818, symBinAddr: 0x100020728, symSize: 0x28 }
  - { offsetInCU: 0x72ACC, offset: 0x72ACC, size: 0x8, addend: 0x0, symName: __ZNSt3__114__split_bufferIjRNS_9allocatorIjEEE9__end_capB7v160006Ev, symObjAddr: 0x1F840, symBinAddr: 0x100020750, symSize: 0x28 }
  - { offsetInCU: 0x72AF2, offset: 0x72AF2, size: 0x8, addend: 0x0, symName: __ZNSt3__117__compressed_pairIPjRNS_9allocatorIjEEEC2B7v160006IDnS4_EEOT_OT0_, symObjAddr: 0x1F868, symBinAddr: 0x100020778, symSize: 0x48 }
  - { offsetInCU: 0x72B4A, offset: 0x72B4A, size: 0x8, addend: 0x0, symName: __ZNSt3__122__compressed_pair_elemIRNS_9allocatorIjEELi1ELb0EEC2B7v160006IS3_vEEOT_, symObjAddr: 0x1F8B0, symBinAddr: 0x1000207C0, symSize: 0x20 }
  - { offsetInCU: 0x72B8C, offset: 0x72B8C, size: 0x8, addend: 0x0, symName: __ZNSt3__117__compressed_pairIPjRNS_9allocatorIjEEE6secondB7v160006Ev, symObjAddr: 0x1F8D0, symBinAddr: 0x1000207E0, symSize: 0x28 }
  - { offsetInCU: 0x72BB2, offset: 0x72BB2, size: 0x8, addend: 0x0, symName: __ZNSt3__122__compressed_pair_elemIRNS_9allocatorIjEELi1ELb0EE5__getB7v160006Ev, symObjAddr: 0x1F8F8, symBinAddr: 0x100020808, symSize: 0x18 }
  - { offsetInCU: 0x72BD8, offset: 0x72BD8, size: 0x8, addend: 0x0, symName: __ZNSt3__117__compressed_pairIPjRNS_9allocatorIjEEE5firstB7v160006Ev, symObjAddr: 0x1F910, symBinAddr: 0x100020820, symSize: 0x24 }
  - { offsetInCU: 0x72C1A, offset: 0x72C1A, size: 0x8, addend: 0x0, symName: __ZNKSt3__111__move_loopINS_17_ClassicAlgPolicyEEclB7v160006INS_16reverse_iteratorIPjEES6_S6_EENS_4pairIT_T1_EES8_T0_S9_, symObjAddr: 0x1FCE8, symBinAddr: 0x100020BF8, symSize: 0xA0 }
  - { offsetInCU: 0x72C85, offset: 0x72C85, size: 0x8, addend: 0x0, symName: __ZNSt3__18_IterOpsINS_17_ClassicAlgPolicyEE11__iter_moveB7v160006IRNS_16reverse_iteratorIPjEEEENS_9enable_ifIXsr12is_referenceIDTdeclsr3stdE7declvalIRT_EEEEE5valueEDTclsr3stdE4movedeclsr3stdE7declvalISA_EEEEE4typeEOS9_, symObjAddr: 0x1FED4, symBinAddr: 0x100020DE4, symSize: 0x28 }
  - { offsetInCU: 0x72CB1, offset: 0x72CB1, size: 0x8, addend: 0x0, symName: __ZNSt3__18_IterOpsINS_17_ClassicAlgPolicyEE25__validate_iter_referenceB7v160006IRNS_16reverse_iteratorIPjEEEEvv, symObjAddr: 0x1FEFC, symBinAddr: 0x100020E0C, symSize: 0x4 }
  - { offsetInCU: 0x72CCF, offset: 0x72CCF, size: 0x8, addend: 0x0, symName: __ZNSt3__118__unwrap_iter_implINS_16reverse_iteratorIPjEELb0EE8__unwrapB7v160006ES3_, symObjAddr: 0x1FF00, symBinAddr: 0x100020E10, symSize: 0x24 }
  - { offsetInCU: 0x72CF8, offset: 0x72CF8, size: 0x8, addend: 0x0, symName: __ZNSt3__14pairINS_16reverse_iteratorIPjEES3_EC1B7v160006IS3_S3_LPv0EEEOT_OT0_, symObjAddr: 0x1FF24, symBinAddr: 0x100020E34, symSize: 0x3C }
  - { offsetInCU: 0x72D56, offset: 0x72D56, size: 0x8, addend: 0x0, symName: __ZNSt3__14pairINS_16reverse_iteratorIPjEES3_EC2B7v160006IS3_S3_LPv0EEEOT_OT0_, symObjAddr: 0x1FF60, symBinAddr: 0x100020E70, symSize: 0x34 }
  - { offsetInCU: 0x72DB4, offset: 0x72DB4, size: 0x8, addend: 0x0, symName: __ZNSt3__118__unwrap_iter_implINS_16reverse_iteratorIPjEELb0EE8__rewrapB7v160006ES3_S3_, symObjAddr: 0x1FF94, symBinAddr: 0x100020EA4, symSize: 0x2C }
  - { offsetInCU: 0x72DE1, offset: 0x72DE1, size: 0x8, addend: 0x0, symName: __ZNSt3__114__split_bufferIjRNS_9allocatorIjEEED2Ev, symObjAddr: 0x1FFC0, symBinAddr: 0x100020ED0, symSize: 0x8C }
  - { offsetInCU: 0x72E0D, offset: 0x72E0D, size: 0x8, addend: 0x0, symName: __ZNSt3__114__split_bufferIjRNS_9allocatorIjEEE5clearB7v160006Ev, symObjAddr: 0x2004C, symBinAddr: 0x100020F5C, symSize: 0x28 }
  - { offsetInCU: 0x72E33, offset: 0x72E33, size: 0x8, addend: 0x0, symName: __ZNKSt3__114__split_bufferIjRNS_9allocatorIjEEE8capacityB7v160006Ev, symObjAddr: 0x20074, symBinAddr: 0x100020F84, symSize: 0x40 }
  - { offsetInCU: 0x72E59, offset: 0x72E59, size: 0x8, addend: 0x0, symName: __ZNSt3__114__split_bufferIjRNS_9allocatorIjEEE17__destruct_at_endB7v160006EPj, symObjAddr: 0x200B4, symBinAddr: 0x100020FC4, symSize: 0x2C }
  - { offsetInCU: 0x72E8D, offset: 0x72E8D, size: 0x8, addend: 0x0, symName: __ZNSt3__114__split_bufferIjRNS_9allocatorIjEEE17__destruct_at_endB7v160006EPjNS_17integral_constantIbLb0EEE, symObjAddr: 0x200E0, symBinAddr: 0x100020FF0, symSize: 0x80 }
  - { offsetInCU: 0x72ECD, offset: 0x72ECD, size: 0x8, addend: 0x0, symName: __ZNKSt3__114__split_bufferIjRNS_9allocatorIjEEE9__end_capB7v160006Ev, symObjAddr: 0x20160, symBinAddr: 0x100021070, symSize: 0x28 }
  - { offsetInCU: 0x72EF3, offset: 0x72EF3, size: 0x8, addend: 0x0, symName: __ZNKSt3__117__compressed_pairIPjRNS_9allocatorIjEEE5firstB7v160006Ev, symObjAddr: 0x20188, symBinAddr: 0x100021098, symSize: 0x24 }
  - { offsetInCU: 0x72F19, offset: 0x72F19, size: 0x8, addend: 0x0, symName: __ZNKSt3__110__function12__value_funcIFvjjjEEclB7v160006EOjS4_S4_, symObjAddr: 0x201AC, symBinAddr: 0x1000210BC, symSize: 0x68 }
  - { offsetInCU: 0x72F71, offset: 0x72F71, size: 0x8, addend: 0x0, symName: __ZNSt3__117bad_function_callC1Ev, symObjAddr: 0x2024C, symBinAddr: 0x10002115C, symSize: 0x2C }
  - { offsetInCU: 0x72F9D, offset: 0x72F9D, size: 0x8, addend: 0x0, symName: __ZNSt3__117bad_function_callD1Ev, symObjAddr: 0x20278, symBinAddr: 0x100021188, symSize: 0x2C }
  - { offsetInCU: 0x72FC7, offset: 0x72FC7, size: 0x8, addend: 0x0, symName: __ZNSt3__117bad_function_callC2Ev, symObjAddr: 0x202A4, symBinAddr: 0x1000211B4, symSize: 0x44 }
  - { offsetInCU: 0x72FF3, offset: 0x72FF3, size: 0x8, addend: 0x0, symName: __ZNSt9exceptionC2B7v160006Ev, symObjAddr: 0x202E8, symBinAddr: 0x1000211F8, symSize: 0x24 }
  - { offsetInCU: 0x7301D, offset: 0x7301D, size: 0x8, addend: 0x0, symName: __ZNSt3__117bad_function_callD0Ev, symObjAddr: 0x2030C, symBinAddr: 0x10002121C, symSize: 0x30 }
  - { offsetInCU: 0x73047, offset: 0x73047, size: 0x8, addend: 0x0, symName: __ZNSt3__117bad_function_callD2Ev, symObjAddr: 0x2033C, symBinAddr: 0x10002124C, symSize: 0x2C }
  - { offsetInCU: 0x73071, offset: 0x73071, size: 0x8, addend: 0x0, symName: '__ZNSt3__18functionIFvjjjEEC2IZ15kcobuchi_expandNS_10shared_ptrIN4spot9twa_graphEEEjbE3$_1vEET_', symObjAddr: 0x20368, symBinAddr: 0x100021278, symSize: 0x34 }
  - { offsetInCU: 0x730B7, offset: 0x730B7, size: 0x8, addend: 0x0, symName: '__ZNSt3__110__function12__value_funcIFvjjjEEC1B7v160006IZ15kcobuchi_expandNS_10shared_ptrIN4spot9twa_graphEEEjbE3$_1vEEOT_', symObjAddr: 0x2039C, symBinAddr: 0x1000212AC, symSize: 0x50 }
  - { offsetInCU: 0x730FA, offset: 0x730FA, size: 0x8, addend: 0x0, symName: '__ZNSt3__19allocatorIZ15kcobuchi_expandNS_10shared_ptrIN4spot9twa_graphEEEjbE3$_1EC1B7v160006Ev', symObjAddr: 0x203EC, symBinAddr: 0x1000212FC, symSize: 0x2C }
  - { offsetInCU: 0x73124, offset: 0x73124, size: 0x8, addend: 0x0, symName: '__ZNSt3__110__function12__value_funcIFvjjjEEC1B7v160006IZ15kcobuchi_expandNS_10shared_ptrIN4spot9twa_graphEEEjbE3$_1NS_9allocatorIS9_EEEEOT_RKT0_', symObjAddr: 0x20418, symBinAddr: 0x100021328, symSize: 0x3C }
  - { offsetInCU: 0x7317E, offset: 0x7317E, size: 0x8, addend: 0x0, symName: '__ZNSt3__19allocatorIZ15kcobuchi_expandNS_10shared_ptrIN4spot9twa_graphEEEjbE3$_1EC2B7v160006Ev', symObjAddr: 0x20454, symBinAddr: 0x100021364, symSize: 0x2C }
  - { offsetInCU: 0x731A8, offset: 0x731A8, size: 0x8, addend: 0x0, symName: '__ZNSt3__116__non_trivial_ifILb1ENS_9allocatorIZ15kcobuchi_expandNS_10shared_ptrIN4spot9twa_graphEEEjbE3$_1EEEC2B7v160006Ev', symObjAddr: 0x20480, symBinAddr: 0x100021390, symSize: 0x14 }
  - { offsetInCU: 0x731D2, offset: 0x731D2, size: 0x8, addend: 0x0, symName: '__ZNSt3__110__function12__value_funcIFvjjjEEC2B7v160006IZ15kcobuchi_expandNS_10shared_ptrIN4spot9twa_graphEEEjbE3$_1NS_9allocatorIS9_EEEEOT_RKT0_', symObjAddr: 0x20494, symBinAddr: 0x1000213A4, symSize: 0xF4 }
  - { offsetInCU: 0x73289, offset: 0x73289, size: 0x8, addend: 0x0, symName: '__ZNSt3__19allocatorINS_10__function6__funcIZ15kcobuchi_expandNS_10shared_ptrIN4spot9twa_graphEEEjbE3$_1NS0_IS7_EEFvjjjEEEEC1B7v160006IS7_EERKNS0_IT_EE', symObjAddr: 0x205A0, symBinAddr: 0x1000214B0, symSize: 0x34 }
  - { offsetInCU: 0x732C6, offset: 0x732C6, size: 0x8, addend: 0x0, symName: '__ZNSt3__19allocatorINS_10__function6__funcIZ15kcobuchi_expandNS_10shared_ptrIN4spot9twa_graphEEEjbE3$_1NS0_IS7_EEFvjjjEEEE8allocateB7v160006Em', symObjAddr: 0x205D4, symBinAddr: 0x1000214E4, symSize: 0x5C }
  - { offsetInCU: 0x7330B, offset: 0x7330B, size: 0x8, addend: 0x0, symName: '__ZNSt3__122__allocator_destructorINS_9allocatorINS_10__function6__funcIZ15kcobuchi_expandNS_10shared_ptrIN4spot9twa_graphEEEjbE3$_1NS1_IS8_EEFvjjjEEEEEEC1B7v160006ERSC_m', symObjAddr: 0x20630, symBinAddr: 0x100021540, symSize: 0x3C }
  - { offsetInCU: 0x733E7, offset: 0x733E7, size: 0x8, addend: 0x0, symName: '__ZNSt3__110unique_ptrINS_10__function6__baseIFvjjjEEENS_22__allocator_destructorINS_9allocatorINS1_6__funcIZ15kcobuchi_expandNS_10shared_ptrIN4spot9twa_graphEEEjbE3$_1NS6_ISC_EES3_EEEEEEEC1B7v160006ILb1EvEEPSE_NS_16__dependent_typeINS_27__unique_ptr_deleter_sfinaeISG_EEXT_EE20__good_rval_ref_typeE', symObjAddr: 0x2066C, symBinAddr: 0x10002157C, symSize: 0x3C }
  - { offsetInCU: 0x73438, offset: 0x73438, size: 0x8, addend: 0x0, symName: '__ZNKSt3__110unique_ptrINS_10__function6__baseIFvjjjEEENS_22__allocator_destructorINS_9allocatorINS1_6__funcIZ15kcobuchi_expandNS_10shared_ptrIN4spot9twa_graphEEEjbE3$_1NS6_ISC_EES3_EEEEEEE3getB7v160006Ev', symObjAddr: 0x206A8, symBinAddr: 0x1000215B8, symSize: 0x28 }
  - { offsetInCU: 0x7345E, offset: 0x7345E, size: 0x8, addend: 0x0, symName: '__ZNSt3__110__function6__funcIZ15kcobuchi_expandNS_10shared_ptrIN4spot9twa_graphEEEjbE3$_1NS_9allocatorIS6_EEFvjjjEEC1B7v160006EOS6_OS8_', symObjAddr: 0x206D0, symBinAddr: 0x1000215E0, symSize: 0x3C }
  - { offsetInCU: 0x734A6, offset: 0x734A6, size: 0x8, addend: 0x0, symName: '__ZNSt3__110unique_ptrINS_10__function6__baseIFvjjjEEENS_22__allocator_destructorINS_9allocatorINS1_6__funcIZ15kcobuchi_expandNS_10shared_ptrIN4spot9twa_graphEEEjbE3$_1NS6_ISC_EES3_EEEEEEE7releaseB7v160006Ev', symObjAddr: 0x2070C, symBinAddr: 0x10002161C, symSize: 0x44 }
  - { offsetInCU: 0x734DB, offset: 0x734DB, size: 0x8, addend: 0x0, symName: '__ZNSt3__110unique_ptrINS_10__function6__baseIFvjjjEEENS_22__allocator_destructorINS_9allocatorINS1_6__funcIZ15kcobuchi_expandNS_10shared_ptrIN4spot9twa_graphEEEjbE3$_1NS6_ISC_EES3_EEEEEEED1B7v160006Ev', symObjAddr: 0x20750, symBinAddr: 0x100021660, symSize: 0x2C }
  - { offsetInCU: 0x73505, offset: 0x73505, size: 0x8, addend: 0x0, symName: '__ZNSt3__19allocatorINS_10__function6__funcIZ15kcobuchi_expandNS_10shared_ptrIN4spot9twa_graphEEEjbE3$_1NS0_IS7_EEFvjjjEEEEC2B7v160006IS7_EERKNS0_IT_EE', symObjAddr: 0x2077C, symBinAddr: 0x10002168C, symSize: 0x30 }
  - { offsetInCU: 0x73542, offset: 0x73542, size: 0x8, addend: 0x0, symName: '__ZNSt3__116__non_trivial_ifILb1ENS_9allocatorINS_10__function6__funcIZ15kcobuchi_expandNS_10shared_ptrIN4spot9twa_graphEEEjbE3$_1NS1_IS8_EEFvjjjEEEEEEC2B7v160006Ev', symObjAddr: 0x207AC, symBinAddr: 0x1000216BC, symSize: 0x14 }
  - { offsetInCU: 0x73577, offset: 0x73577, size: 0x8, addend: 0x0, symName: '__ZNSt3__116allocator_traitsINS_9allocatorINS_10__function6__funcIZ15kcobuchi_expandNS_10shared_ptrIN4spot9twa_graphEEEjbE3$_1NS1_IS8_EEFvjjjEEEEEE8max_sizeB7v160006ISC_vEEmRKSC_', symObjAddr: 0x207C0, symBinAddr: 0x1000216D0, symSize: 0x24 }
  - { offsetInCU: 0x735A5, offset: 0x735A5, size: 0x8, addend: 0x0, symName: '__ZNKSt3__19allocatorINS_10__function6__funcIZ15kcobuchi_expandNS_10shared_ptrIN4spot9twa_graphEEEjbE3$_1NS0_IS7_EEFvjjjEEEE8max_sizeB7v160006Ev', symObjAddr: 0x207E4, symBinAddr: 0x1000216F4, symSize: 0x20 }
  - { offsetInCU: 0x735CB, offset: 0x735CB, size: 0x8, addend: 0x0, symName: '__ZNSt3__122__allocator_destructorINS_9allocatorINS_10__function6__funcIZ15kcobuchi_expandNS_10shared_ptrIN4spot9twa_graphEEEjbE3$_1NS1_IS8_EEFvjjjEEEEEEC2B7v160006ERSC_m', symObjAddr: 0x20804, symBinAddr: 0x100021714, symSize: 0x2C }
  - { offsetInCU: 0x73611, offset: 0x73611, size: 0x8, addend: 0x0, symName: '__ZNSt3__110unique_ptrINS_10__function6__baseIFvjjjEEENS_22__allocator_destructorINS_9allocatorINS1_6__funcIZ15kcobuchi_expandNS_10shared_ptrIN4spot9twa_graphEEEjbE3$_1NS6_ISC_EES3_EEEEEEEC2B7v160006ILb1EvEEPSE_NS_16__dependent_typeINS_27__unique_ptr_deleter_sfinaeISG_EEXT_EE20__good_rval_ref_typeE', symObjAddr: 0x20830, symBinAddr: 0x100021740, symSize: 0x48 }
  - { offsetInCU: 0x73662, offset: 0x73662, size: 0x8, addend: 0x0, symName: '__ZNSt3__117__compressed_pairIPNS_10__function6__funcIZ15kcobuchi_expandNS_10shared_ptrIN4spot9twa_graphEEEjbE3$_1NS_9allocatorIS7_EEFvjjjEEENS_22__allocator_destructorINS8_ISB_EEEEEC1B7v160006IRSC_SF_EEOT_OT0_', symObjAddr: 0x20878, symBinAddr: 0x100021788, symSize: 0x3C }
  - { offsetInCU: 0x736BA, offset: 0x736BA, size: 0x8, addend: 0x0, symName: '__ZNSt3__117__compressed_pairIPNS_10__function6__funcIZ15kcobuchi_expandNS_10shared_ptrIN4spot9twa_graphEEEjbE3$_1NS_9allocatorIS7_EEFvjjjEEENS_22__allocator_destructorINS8_ISB_EEEEEC2B7v160006IRSC_SF_EEOT_OT0_', symObjAddr: 0x208B4, symBinAddr: 0x1000217C4, symSize: 0x48 }
  - { offsetInCU: 0x73712, offset: 0x73712, size: 0x8, addend: 0x0, symName: '__ZNSt3__122__compressed_pair_elemIPNS_10__function6__funcIZ15kcobuchi_expandNS_10shared_ptrIN4spot9twa_graphEEEjbE3$_1NS_9allocatorIS7_EEFvjjjEEELi0ELb0EEC2B7v160006IRSC_vEEOT_', symObjAddr: 0x208FC, symBinAddr: 0x10002180C, symSize: 0x24 }
  - { offsetInCU: 0x73754, offset: 0x73754, size: 0x8, addend: 0x0, symName: '__ZNSt3__122__compressed_pair_elemINS_22__allocator_destructorINS_9allocatorINS_10__function6__funcIZ15kcobuchi_expandNS_10shared_ptrIN4spot9twa_graphEEEjbE3$_1NS2_IS9_EEFvjjjEEEEEEELi1ELb0EEC2B7v160006ISE_vEEOT_', symObjAddr: 0x20920, symBinAddr: 0x100021830, symSize: 0x24 }
  - { offsetInCU: 0x73796, offset: 0x73796, size: 0x8, addend: 0x0, symName: '__ZNKSt3__117__compressed_pairIPNS_10__function6__funcIZ15kcobuchi_expandNS_10shared_ptrIN4spot9twa_graphEEEjbE3$_1NS_9allocatorIS7_EEFvjjjEEENS_22__allocator_destructorINS8_ISB_EEEEE5firstB7v160006Ev', symObjAddr: 0x20944, symBinAddr: 0x100021854, symSize: 0x24 }
  - { offsetInCU: 0x737BC, offset: 0x737BC, size: 0x8, addend: 0x0, symName: '__ZNKSt3__122__compressed_pair_elemIPNS_10__function6__funcIZ15kcobuchi_expandNS_10shared_ptrIN4spot9twa_graphEEEjbE3$_1NS_9allocatorIS7_EEFvjjjEEELi0ELb0EE5__getB7v160006Ev', symObjAddr: 0x20968, symBinAddr: 0x100021878, symSize: 0x14 }
  - { offsetInCU: 0x737E2, offset: 0x737E2, size: 0x8, addend: 0x0, symName: '__ZNSt3__110__function6__funcIZ15kcobuchi_expandNS_10shared_ptrIN4spot9twa_graphEEEjbE3$_1NS_9allocatorIS6_EEFvjjjEEC2B7v160006EOS6_OS8_', symObjAddr: 0x2097C, symBinAddr: 0x10002188C, symSize: 0x88 }
  - { offsetInCU: 0x7382A, offset: 0x7382A, size: 0x8, addend: 0x0, symName: __ZNSt3__110__function6__baseIFvjjjEEC2B7v160006Ev, symObjAddr: 0x20A04, symBinAddr: 0x100021914, symSize: 0x24 }
  - { offsetInCU: 0x73854, offset: 0x73854, size: 0x8, addend: 0x0, symName: '__ZNSt3__110__function12__alloc_funcIZ15kcobuchi_expandNS_10shared_ptrIN4spot9twa_graphEEEjbE3$_1NS_9allocatorIS6_EEFvjjjEEC1B7v160006EOS6_OS8_', symObjAddr: 0x20A28, symBinAddr: 0x100021938, symSize: 0x3C }
  - { offsetInCU: 0x7389A, offset: 0x7389A, size: 0x8, addend: 0x0, symName: __ZNSt3__110__function6__baseIFvjjjEED2Ev, symObjAddr: 0x20A64, symBinAddr: 0x100021974, symSize: 0x14 }
  - { offsetInCU: 0x738C4, offset: 0x738C4, size: 0x8, addend: 0x0, symName: '__ZNSt3__110__function6__funcIZ15kcobuchi_expandNS_10shared_ptrIN4spot9twa_graphEEEjbE3$_1NS_9allocatorIS6_EEFvjjjEED1Ev', symObjAddr: 0x20A78, symBinAddr: 0x100021988, symSize: 0x2C }
  - { offsetInCU: 0x738F1, offset: 0x738F1, size: 0x8, addend: 0x0, symName: '__ZNSt3__110__function6__funcIZ15kcobuchi_expandNS_10shared_ptrIN4spot9twa_graphEEEjbE3$_1NS_9allocatorIS6_EEFvjjjEED0Ev', symObjAddr: 0x20AA4, symBinAddr: 0x1000219B4, symSize: 0x30 }
  - { offsetInCU: 0x7391E, offset: 0x7391E, size: 0x8, addend: 0x0, symName: '__ZNKSt3__110__function6__funcIZ15kcobuchi_expandNS_10shared_ptrIN4spot9twa_graphEEEjbE3$_1NS_9allocatorIS6_EEFvjjjEE7__cloneEv', symObjAddr: 0x20AD4, symBinAddr: 0x1000219E4, symSize: 0xFC }
  - { offsetInCU: 0x73970, offset: 0x73970, size: 0x8, addend: 0x0, symName: '__ZNKSt3__110__function6__funcIZ15kcobuchi_expandNS_10shared_ptrIN4spot9twa_graphEEEjbE3$_1NS_9allocatorIS6_EEFvjjjEE7__cloneEPNS0_6__baseIS9_EE', symObjAddr: 0x20BD0, symBinAddr: 0x100021AE0, symSize: 0x58 }
  - { offsetInCU: 0x739A7, offset: 0x739A7, size: 0x8, addend: 0x0, symName: '__ZNSt3__110__function6__funcIZ15kcobuchi_expandNS_10shared_ptrIN4spot9twa_graphEEEjbE3$_1NS_9allocatorIS6_EEFvjjjEE7destroyEv', symObjAddr: 0x20C28, symBinAddr: 0x100021B38, symSize: 0x28 }
  - { offsetInCU: 0x739CF, offset: 0x739CF, size: 0x8, addend: 0x0, symName: '__ZNSt3__110__function6__funcIZ15kcobuchi_expandNS_10shared_ptrIN4spot9twa_graphEEEjbE3$_1NS_9allocatorIS6_EEFvjjjEE18destroy_deallocateEv', symObjAddr: 0x20C50, symBinAddr: 0x100021B60, symSize: 0x58 }
  - { offsetInCU: 0x73A12, offset: 0x73A12, size: 0x8, addend: 0x0, symName: '__ZNSt3__110__function6__funcIZ15kcobuchi_expandNS_10shared_ptrIN4spot9twa_graphEEEjbE3$_1NS_9allocatorIS6_EEFvjjjEEclEOjSB_SB_', symObjAddr: 0x20CA8, symBinAddr: 0x100021BB8, symSize: 0x40 }
  - { offsetInCU: 0x73A67, offset: 0x73A67, size: 0x8, addend: 0x0, symName: '__ZNKSt3__110__function6__funcIZ15kcobuchi_expandNS_10shared_ptrIN4spot9twa_graphEEEjbE3$_1NS_9allocatorIS6_EEFvjjjEE6targetERKSt9type_info', symObjAddr: 0x20CE8, symBinAddr: 0x100021BF8, symSize: 0x60 }
  - { offsetInCU: 0x73A9E, offset: 0x73A9E, size: 0x8, addend: 0x0, symName: '__ZNKSt3__110__function6__funcIZ15kcobuchi_expandNS_10shared_ptrIN4spot9twa_graphEEEjbE3$_1NS_9allocatorIS6_EEFvjjjEE11target_typeEv', symObjAddr: 0x20D48, symBinAddr: 0x100021C58, symSize: 0x18 }
  - { offsetInCU: 0x73AC6, offset: 0x73AC6, size: 0x8, addend: 0x0, symName: __ZNSt3__110__function6__baseIFvjjjEED1Ev, symObjAddr: 0x20D60, symBinAddr: 0x100021C70, symSize: 0x14 }
  - { offsetInCU: 0x73AF0, offset: 0x73AF0, size: 0x8, addend: 0x0, symName: __ZNSt3__110__function6__baseIFvjjjEED0Ev, symObjAddr: 0x20D74, symBinAddr: 0x100021C84, symSize: 0xC }
  - { offsetInCU: 0x73B1A, offset: 0x73B1A, size: 0x8, addend: 0x0, symName: '__ZNSt3__110__function12__alloc_funcIZ15kcobuchi_expandNS_10shared_ptrIN4spot9twa_graphEEEjbE3$_1NS_9allocatorIS6_EEFvjjjEEC2B7v160006EOS6_OS8_', symObjAddr: 0x20D80, symBinAddr: 0x100021C90, symSize: 0x5C }
  - { offsetInCU: 0x73B60, offset: 0x73B60, size: 0x8, addend: 0x0, symName: '__ZNSt3__117__compressed_pairIZ15kcobuchi_expandNS_10shared_ptrIN4spot9twa_graphEEEjbE3$_1NS_9allocatorIS5_EEEC1B7v160006IJOS5_EJOS7_EEENS_21piecewise_construct_tENS_5tupleIJDpT_EEENSD_IJDpT0_EEE', symObjAddr: 0x20E34, symBinAddr: 0x100021D44, symSize: 0x3C }
  - { offsetInCU: 0x73BCA, offset: 0x73BCA, size: 0x8, addend: 0x0, symName: '__ZNSt3__15tupleIJOZ15kcobuchi_expandNS_10shared_ptrIN4spot9twa_graphEEEjbE3$_1EEC1B7v160006IJS5_ELi0EEEDpOT_', symObjAddr: 0x20E70, symBinAddr: 0x100021D80, symSize: 0x34 }
  - { offsetInCU: 0x73C14, offset: 0x73C14, size: 0x8, addend: 0x0, symName: '__ZNSt3__15tupleIJOZ15kcobuchi_expandNS_10shared_ptrIN4spot9twa_graphEEEjbE3$_1EEC2B7v160006IJS5_ELi0EEEDpOT_', symObjAddr: 0x20EA4, symBinAddr: 0x100021DB4, symSize: 0x34 }
  - { offsetInCU: 0x73C5E, offset: 0x73C5E, size: 0x8, addend: 0x0, symName: '__ZNSt3__112__tuple_implINS_15__tuple_indicesIJLm0EEEEJOZ15kcobuchi_expandNS_10shared_ptrIN4spot9twa_graphEEEjbE3$_1EEC1B7v160006IJLm0EEJS8_EJEJEJS7_EEENS1_IJXspT_EEEENS_13__tuple_typesIJDpT0_EEENS1_IJXspT1_EEEENSC_IJDpT2_EEEDpOT3_', symObjAddr: 0x20ED8, symBinAddr: 0x100021DE8, symSize: 0x34 }
  - { offsetInCU: 0x73CEF, offset: 0x73CEF, size: 0x8, addend: 0x0, symName: '__ZNSt3__112__tuple_implINS_15__tuple_indicesIJLm0EEEEJOZ15kcobuchi_expandNS_10shared_ptrIN4spot9twa_graphEEEjbE3$_1EEC2B7v160006IJLm0EEJS8_EJEJEJS7_EEENS1_IJXspT_EEEENS_13__tuple_typesIJDpT0_EEENS1_IJXspT1_EEEENSC_IJDpT2_EEEDpOT3_', symObjAddr: 0x20F0C, symBinAddr: 0x100021E1C, symSize: 0x34 }
  - { offsetInCU: 0x73D80, offset: 0x73D80, size: 0x8, addend: 0x0, symName: '__ZNSt3__112__tuple_leafILm0EOZ15kcobuchi_expandNS_10shared_ptrIN4spot9twa_graphEEEjbE3$_1Lb0EEC2B7v160006IS5_vEEOT_', symObjAddr: 0x20F40, symBinAddr: 0x100021E50, symSize: 0x20 }
  - { offsetInCU: 0x73DC3, offset: 0x73DC3, size: 0x8, addend: 0x0, symName: '__ZNSt3__15tupleIJONS_9allocatorIZ15kcobuchi_expandNS_10shared_ptrIN4spot9twa_graphEEEjbE3$_1EEEEC1B7v160006IJS7_ELi0EEEDpOT_', symObjAddr: 0x20F60, symBinAddr: 0x100021E70, symSize: 0x34 }
  - { offsetInCU: 0x73E0D, offset: 0x73E0D, size: 0x8, addend: 0x0, symName: '__ZNSt3__15tupleIJONS_9allocatorIZ15kcobuchi_expandNS_10shared_ptrIN4spot9twa_graphEEEjbE3$_1EEEEC2B7v160006IJS7_ELi0EEEDpOT_', symObjAddr: 0x20F94, symBinAddr: 0x100021EA4, symSize: 0x34 }
  - { offsetInCU: 0x73E57, offset: 0x73E57, size: 0x8, addend: 0x0, symName: '__ZNSt3__112__tuple_implINS_15__tuple_indicesIJLm0EEEEJONS_9allocatorIZ15kcobuchi_expandNS_10shared_ptrIN4spot9twa_graphEEEjbE3$_1EEEEC1B7v160006IJLm0EEJSA_EJEJEJS9_EEENS1_IJXspT_EEEENS_13__tuple_typesIJDpT0_EEENS1_IJXspT1_EEEENSE_IJDpT2_EEEDpOT3_', symObjAddr: 0x20FC8, symBinAddr: 0x100021ED8, symSize: 0x34 }
  - { offsetInCU: 0x73EE8, offset: 0x73EE8, size: 0x8, addend: 0x0, symName: '__ZNSt3__112__tuple_implINS_15__tuple_indicesIJLm0EEEEJONS_9allocatorIZ15kcobuchi_expandNS_10shared_ptrIN4spot9twa_graphEEEjbE3$_1EEEEC2B7v160006IJLm0EEJSA_EJEJEJS9_EEENS1_IJXspT_EEEENS_13__tuple_typesIJDpT0_EEENS1_IJXspT1_EEEENSE_IJDpT2_EEEDpOT3_', symObjAddr: 0x20FFC, symBinAddr: 0x100021F0C, symSize: 0x34 }
  - { offsetInCU: 0x73F79, offset: 0x73F79, size: 0x8, addend: 0x0, symName: '__ZNSt3__112__tuple_leafILm0EONS_9allocatorIZ15kcobuchi_expandNS_10shared_ptrIN4spot9twa_graphEEEjbE3$_1EELb0EEC2B7v160006IS7_vEEOT_', symObjAddr: 0x21030, symBinAddr: 0x100021F40, symSize: 0x20 }
  - { offsetInCU: 0x73FBC, offset: 0x73FBC, size: 0x8, addend: 0x0, symName: '__ZNSt3__117__compressed_pairIZ15kcobuchi_expandNS_10shared_ptrIN4spot9twa_graphEEEjbE3$_1NS_9allocatorIS5_EEEC2B7v160006IJOS5_EJOS7_EEENS_21piecewise_construct_tENS_5tupleIJDpT_EEENSD_IJDpT0_EEE', symObjAddr: 0x21050, symBinAddr: 0x100021F60, symSize: 0x54 }
  - { offsetInCU: 0x74026, offset: 0x74026, size: 0x8, addend: 0x0, symName: '__ZNSt3__122__compressed_pair_elemIZ15kcobuchi_expandNS_10shared_ptrIN4spot9twa_graphEEEjbE3$_1Li0ELb0EEC2B7v160006IJOS5_EJLm0EEEENS_21piecewise_construct_tENS_5tupleIJDpT_EEENS_15__tuple_indicesIJXspT0_EEEE', symObjAddr: 0x210A4, symBinAddr: 0x100021FB4, symSize: 0x48 }
  - { offsetInCU: 0x74089, offset: 0x74089, size: 0x8, addend: 0x0, symName: '__ZNSt3__122__compressed_pair_elemINS_9allocatorIZ15kcobuchi_expandNS_10shared_ptrIN4spot9twa_graphEEEjbE3$_1EELi1ELb1EEC2B7v160006IJOS7_EJLm0EEEENS_21piecewise_construct_tENS_5tupleIJDpT_EEENS_15__tuple_indicesIJXspT0_EEEE', symObjAddr: 0x210EC, symBinAddr: 0x100021FFC, symSize: 0x38 }
  - { offsetInCU: 0x740EC, offset: 0x740EC, size: 0x8, addend: 0x0, symName: '__ZNSt3__112__tuple_leafILm0EOZ15kcobuchi_expandNS_10shared_ptrIN4spot9twa_graphEEEjbE3$_1Lb0EE3getB7v160006Ev', symObjAddr: 0x21148, symBinAddr: 0x100022058, symSize: 0x18 }
  - { offsetInCU: 0x74112, offset: 0x74112, size: 0x8, addend: 0x0, symName: '__ZNSt3__112__tuple_leafILm0EONS_9allocatorIZ15kcobuchi_expandNS_10shared_ptrIN4spot9twa_graphEEEjbE3$_1EELb0EE3getB7v160006Ev', symObjAddr: 0x21184, symBinAddr: 0x100022094, symSize: 0x18 }
  - { offsetInCU: 0x74138, offset: 0x74138, size: 0x8, addend: 0x0, symName: '__ZNSt3__110__function6__funcIZ15kcobuchi_expandNS_10shared_ptrIN4spot9twa_graphEEEjbE3$_1NS_9allocatorIS6_EEFvjjjEED2Ev', symObjAddr: 0x2119C, symBinAddr: 0x1000220AC, symSize: 0x2C }
  - { offsetInCU: 0x74165, offset: 0x74165, size: 0x8, addend: 0x0, symName: '__ZNKSt3__110__function12__alloc_funcIZ15kcobuchi_expandNS_10shared_ptrIN4spot9twa_graphEEEjbE3$_1NS_9allocatorIS6_EEFvjjjEE15__get_allocatorB7v160006Ev', symObjAddr: 0x211C8, symBinAddr: 0x1000220D8, symSize: 0x24 }
  - { offsetInCU: 0x741B7, offset: 0x741B7, size: 0x8, addend: 0x0, symName: '__ZNSt3__110unique_ptrINS_10__function6__funcIZ15kcobuchi_expandNS_10shared_ptrIN4spot9twa_graphEEEjbE3$_1NS_9allocatorIS7_EEFvjjjEEENS_22__allocator_destructorINS8_ISB_EEEEEC1B7v160006ILb1EvEEPSB_NS_16__dependent_typeINS_27__unique_ptr_deleter_sfinaeISE_EEXT_EE20__good_rval_ref_typeE', symObjAddr: 0x211EC, symBinAddr: 0x1000220FC, symSize: 0x3C }
  - { offsetInCU: 0x74208, offset: 0x74208, size: 0x8, addend: 0x0, symName: '__ZNKSt3__110unique_ptrINS_10__function6__funcIZ15kcobuchi_expandNS_10shared_ptrIN4spot9twa_graphEEEjbE3$_1NS_9allocatorIS7_EEFvjjjEEENS_22__allocator_destructorINS8_ISB_EEEEE3getB7v160006Ev', symObjAddr: 0x21228, symBinAddr: 0x100022138, symSize: 0x28 }
  - { offsetInCU: 0x7422E, offset: 0x7422E, size: 0x8, addend: 0x0, symName: '__ZNKSt3__110__function12__alloc_funcIZ15kcobuchi_expandNS_10shared_ptrIN4spot9twa_graphEEEjbE3$_1NS_9allocatorIS6_EEFvjjjEE8__targetB7v160006Ev', symObjAddr: 0x21250, symBinAddr: 0x100022160, symSize: 0x24 }
  - { offsetInCU: 0x7425A, offset: 0x7425A, size: 0x8, addend: 0x0, symName: '__ZNSt3__19allocatorIZ15kcobuchi_expandNS_10shared_ptrIN4spot9twa_graphEEEjbE3$_1EC1B7v160006INS_10__function6__funcIS5_S6_FvjjjEEEEERKNS0_IT_EE', symObjAddr: 0x21274, symBinAddr: 0x100022184, symSize: 0x34 }
  - { offsetInCU: 0x74297, offset: 0x74297, size: 0x8, addend: 0x0, symName: '__ZNSt3__110__function6__funcIZ15kcobuchi_expandNS_10shared_ptrIN4spot9twa_graphEEEjbE3$_1NS_9allocatorIS6_EEFvjjjEEC1B7v160006ERKS6_OS8_', symObjAddr: 0x212A8, symBinAddr: 0x1000221B8, symSize: 0x3C }
  - { offsetInCU: 0x742DF, offset: 0x742DF, size: 0x8, addend: 0x0, symName: '__ZNSt3__110unique_ptrINS_10__function6__funcIZ15kcobuchi_expandNS_10shared_ptrIN4spot9twa_graphEEEjbE3$_1NS_9allocatorIS7_EEFvjjjEEENS_22__allocator_destructorINS8_ISB_EEEEE7releaseB7v160006Ev', symObjAddr: 0x212E4, symBinAddr: 0x1000221F4, symSize: 0x44 }
  - { offsetInCU: 0x74314, offset: 0x74314, size: 0x8, addend: 0x0, symName: '__ZNSt3__110unique_ptrINS_10__function6__funcIZ15kcobuchi_expandNS_10shared_ptrIN4spot9twa_graphEEEjbE3$_1NS_9allocatorIS7_EEFvjjjEEENS_22__allocator_destructorINS8_ISB_EEEEED1B7v160006Ev', symObjAddr: 0x21328, symBinAddr: 0x100022238, symSize: 0x2C }
  - { offsetInCU: 0x7433E, offset: 0x7433E, size: 0x8, addend: 0x0, symName: '__ZNKSt3__117__compressed_pairIZ15kcobuchi_expandNS_10shared_ptrIN4spot9twa_graphEEEjbE3$_1NS_9allocatorIS5_EEE6secondB7v160006Ev', symObjAddr: 0x21354, symBinAddr: 0x100022264, symSize: 0x24 }
  - { offsetInCU: 0x74364, offset: 0x74364, size: 0x8, addend: 0x0, symName: '__ZNKSt3__122__compressed_pair_elemINS_9allocatorIZ15kcobuchi_expandNS_10shared_ptrIN4spot9twa_graphEEEjbE3$_1EELi1ELb1EE5__getB7v160006Ev', symObjAddr: 0x21378, symBinAddr: 0x100022288, symSize: 0x14 }
  - { offsetInCU: 0x7438A, offset: 0x7438A, size: 0x8, addend: 0x0, symName: '__ZNSt3__110unique_ptrINS_10__function6__funcIZ15kcobuchi_expandNS_10shared_ptrIN4spot9twa_graphEEEjbE3$_1NS_9allocatorIS7_EEFvjjjEEENS_22__allocator_destructorINS8_ISB_EEEEEC2B7v160006ILb1EvEEPSB_NS_16__dependent_typeINS_27__unique_ptr_deleter_sfinaeISE_EEXT_EE20__good_rval_ref_typeE', symObjAddr: 0x2138C, symBinAddr: 0x10002229C, symSize: 0x48 }
  - { offsetInCU: 0x743DB, offset: 0x743DB, size: 0x8, addend: 0x0, symName: '__ZNKSt3__117__compressed_pairIZ15kcobuchi_expandNS_10shared_ptrIN4spot9twa_graphEEEjbE3$_1NS_9allocatorIS5_EEE5firstB7v160006Ev', symObjAddr: 0x213D4, symBinAddr: 0x1000222E4, symSize: 0x24 }
  - { offsetInCU: 0x74401, offset: 0x74401, size: 0x8, addend: 0x0, symName: '__ZNKSt3__122__compressed_pair_elemIZ15kcobuchi_expandNS_10shared_ptrIN4spot9twa_graphEEEjbE3$_1Li0ELb0EE5__getB7v160006Ev', symObjAddr: 0x213F8, symBinAddr: 0x100022308, symSize: 0x14 }
  - { offsetInCU: 0x74427, offset: 0x74427, size: 0x8, addend: 0x0, symName: '__ZNSt3__19allocatorIZ15kcobuchi_expandNS_10shared_ptrIN4spot9twa_graphEEEjbE3$_1EC2B7v160006INS_10__function6__funcIS5_S6_FvjjjEEEEERKNS0_IT_EE', symObjAddr: 0x2140C, symBinAddr: 0x10002231C, symSize: 0x30 }
  - { offsetInCU: 0x74464, offset: 0x74464, size: 0x8, addend: 0x0, symName: '__ZNSt3__110__function6__funcIZ15kcobuchi_expandNS_10shared_ptrIN4spot9twa_graphEEEjbE3$_1NS_9allocatorIS6_EEFvjjjEEC2B7v160006ERKS6_OS8_', symObjAddr: 0x2143C, symBinAddr: 0x10002234C, symSize: 0x88 }
  - { offsetInCU: 0x744AC, offset: 0x744AC, size: 0x8, addend: 0x0, symName: '__ZNSt3__110__function12__alloc_funcIZ15kcobuchi_expandNS_10shared_ptrIN4spot9twa_graphEEEjbE3$_1NS_9allocatorIS6_EEFvjjjEEC1B7v160006ERKS6_OS8_', symObjAddr: 0x214C4, symBinAddr: 0x1000223D4, symSize: 0x3C }
  - { offsetInCU: 0x744F2, offset: 0x744F2, size: 0x8, addend: 0x0, symName: '__ZNSt3__110__function12__alloc_funcIZ15kcobuchi_expandNS_10shared_ptrIN4spot9twa_graphEEEjbE3$_1NS_9allocatorIS6_EEFvjjjEEC2B7v160006ERKS6_OS8_', symObjAddr: 0x21500, symBinAddr: 0x100022410, symSize: 0x5C }
  - { offsetInCU: 0x74538, offset: 0x74538, size: 0x8, addend: 0x0, symName: '__ZNSt3__117__compressed_pairIZ15kcobuchi_expandNS_10shared_ptrIN4spot9twa_graphEEEjbE3$_1NS_9allocatorIS5_EEEC1B7v160006IJRKS5_EJOS7_EEENS_21piecewise_construct_tENS_5tupleIJDpT_EEENSE_IJDpT0_EEE', symObjAddr: 0x21588, symBinAddr: 0x100022498, symSize: 0x3C }
  - { offsetInCU: 0x745A2, offset: 0x745A2, size: 0x8, addend: 0x0, symName: '__ZNSt3__15tupleIJRKZ15kcobuchi_expandNS_10shared_ptrIN4spot9twa_graphEEEjbE3$_1EEC1B7v160006INS_4_AndELi0EEES7_', symObjAddr: 0x215C4, symBinAddr: 0x1000224D4, symSize: 0x34 }
  - { offsetInCU: 0x745EA, offset: 0x745EA, size: 0x8, addend: 0x0, symName: '__ZNSt3__15tupleIJRKZ15kcobuchi_expandNS_10shared_ptrIN4spot9twa_graphEEEjbE3$_1EEC2B7v160006INS_4_AndELi0EEES7_', symObjAddr: 0x215F8, symBinAddr: 0x100022508, symSize: 0x34 }
  - { offsetInCU: 0x74632, offset: 0x74632, size: 0x8, addend: 0x0, symName: '__ZNSt3__112__tuple_implINS_15__tuple_indicesIJLm0EEEEJRKZ15kcobuchi_expandNS_10shared_ptrIN4spot9twa_graphEEEjbE3$_1EEC1B7v160006IJLm0EEJS9_EJEJEJS9_EEENS1_IJXspT_EEEENS_13__tuple_typesIJDpT0_EEENS1_IJXspT1_EEEENSD_IJDpT2_EEEDpOT3_', symObjAddr: 0x2162C, symBinAddr: 0x10002253C, symSize: 0x34 }
  - { offsetInCU: 0x746C3, offset: 0x746C3, size: 0x8, addend: 0x0, symName: '__ZNSt3__112__tuple_implINS_15__tuple_indicesIJLm0EEEEJRKZ15kcobuchi_expandNS_10shared_ptrIN4spot9twa_graphEEEjbE3$_1EEC2B7v160006IJLm0EEJS9_EJEJEJS9_EEENS1_IJXspT_EEEENS_13__tuple_typesIJDpT0_EEENS1_IJXspT1_EEEENSD_IJDpT2_EEEDpOT3_', symObjAddr: 0x21660, symBinAddr: 0x100022570, symSize: 0x34 }
  - { offsetInCU: 0x74754, offset: 0x74754, size: 0x8, addend: 0x0, symName: '__ZNSt3__112__tuple_leafILm0ERKZ15kcobuchi_expandNS_10shared_ptrIN4spot9twa_graphEEEjbE3$_1Lb0EEC2B7v160006IS7_vEEOT_', symObjAddr: 0x21694, symBinAddr: 0x1000225A4, symSize: 0x20 }
  - { offsetInCU: 0x74797, offset: 0x74797, size: 0x8, addend: 0x0, symName: '__ZNSt3__117__compressed_pairIZ15kcobuchi_expandNS_10shared_ptrIN4spot9twa_graphEEEjbE3$_1NS_9allocatorIS5_EEEC2B7v160006IJRKS5_EJOS7_EEENS_21piecewise_construct_tENS_5tupleIJDpT_EEENSE_IJDpT0_EEE', symObjAddr: 0x216B4, symBinAddr: 0x1000225C4, symSize: 0x54 }
  - { offsetInCU: 0x74801, offset: 0x74801, size: 0x8, addend: 0x0, symName: '__ZNSt3__122__compressed_pair_elemIZ15kcobuchi_expandNS_10shared_ptrIN4spot9twa_graphEEEjbE3$_1Li0ELb0EEC2B7v160006IJRKS5_EJLm0EEEENS_21piecewise_construct_tENS_5tupleIJDpT_EEENS_15__tuple_indicesIJXspT0_EEEE', symObjAddr: 0x21708, symBinAddr: 0x100022618, symSize: 0x48 }
  - { offsetInCU: 0x74864, offset: 0x74864, size: 0x8, addend: 0x0, symName: '__ZNSt3__112__tuple_leafILm0ERKZ15kcobuchi_expandNS_10shared_ptrIN4spot9twa_graphEEEjbE3$_1Lb0EE3getB7v160006Ev', symObjAddr: 0x21774, symBinAddr: 0x100022684, symSize: 0x18 }
  - { offsetInCU: 0x7488A, offset: 0x7488A, size: 0x8, addend: 0x0, symName: '__ZNSt3__117__compressed_pairIPNS_10__function6__funcIZ15kcobuchi_expandNS_10shared_ptrIN4spot9twa_graphEEEjbE3$_1NS_9allocatorIS7_EEFvjjjEEENS_22__allocator_destructorINS8_ISB_EEEEE5firstB7v160006Ev', symObjAddr: 0x2178C, symBinAddr: 0x10002269C, symSize: 0x24 }
  - { offsetInCU: 0x748B0, offset: 0x748B0, size: 0x8, addend: 0x0, symName: '__ZNSt3__122__compressed_pair_elemIPNS_10__function6__funcIZ15kcobuchi_expandNS_10shared_ptrIN4spot9twa_graphEEEjbE3$_1NS_9allocatorIS7_EEFvjjjEEELi0ELb0EE5__getB7v160006Ev', symObjAddr: 0x217B0, symBinAddr: 0x1000226C0, symSize: 0x14 }
  - { offsetInCU: 0x748D6, offset: 0x748D6, size: 0x8, addend: 0x0, symName: '__ZNSt3__110unique_ptrINS_10__function6__funcIZ15kcobuchi_expandNS_10shared_ptrIN4spot9twa_graphEEEjbE3$_1NS_9allocatorIS7_EEFvjjjEEENS_22__allocator_destructorINS8_ISB_EEEEED2B7v160006Ev', symObjAddr: 0x217C4, symBinAddr: 0x1000226D4, symSize: 0x30 }
  - { offsetInCU: 0x74900, offset: 0x74900, size: 0x8, addend: 0x0, symName: '__ZNSt3__110unique_ptrINS_10__function6__funcIZ15kcobuchi_expandNS_10shared_ptrIN4spot9twa_graphEEEjbE3$_1NS_9allocatorIS7_EEFvjjjEEENS_22__allocator_destructorINS8_ISB_EEEEE5resetB7v160006EPSB_', symObjAddr: 0x217F4, symBinAddr: 0x100022704, symSize: 0x78 }
  - { offsetInCU: 0x74944, offset: 0x74944, size: 0x8, addend: 0x0, symName: '__ZNSt3__117__compressed_pairIPNS_10__function6__funcIZ15kcobuchi_expandNS_10shared_ptrIN4spot9twa_graphEEEjbE3$_1NS_9allocatorIS7_EEFvjjjEEENS_22__allocator_destructorINS8_ISB_EEEEE6secondB7v160006Ev', symObjAddr: 0x2186C, symBinAddr: 0x10002277C, symSize: 0x28 }
  - { offsetInCU: 0x7496A, offset: 0x7496A, size: 0x8, addend: 0x0, symName: '__ZNSt3__122__allocator_destructorINS_9allocatorINS_10__function6__funcIZ15kcobuchi_expandNS_10shared_ptrIN4spot9twa_graphEEEjbE3$_1NS1_IS8_EEFvjjjEEEEEEclB7v160006EPSB_', symObjAddr: 0x21894, symBinAddr: 0x1000227A4, symSize: 0x34 }
  - { offsetInCU: 0x7499E, offset: 0x7499E, size: 0x8, addend: 0x0, symName: '__ZNSt3__122__compressed_pair_elemINS_22__allocator_destructorINS_9allocatorINS_10__function6__funcIZ15kcobuchi_expandNS_10shared_ptrIN4spot9twa_graphEEEjbE3$_1NS2_IS9_EEFvjjjEEEEEEELi1ELb0EE5__getB7v160006Ev', symObjAddr: 0x218C8, symBinAddr: 0x1000227D8, symSize: 0x14 }
  - { offsetInCU: 0x749C4, offset: 0x749C4, size: 0x8, addend: 0x0, symName: '__ZNSt3__116allocator_traitsINS_9allocatorINS_10__function6__funcIZ15kcobuchi_expandNS_10shared_ptrIN4spot9twa_graphEEEjbE3$_1NS1_IS8_EEFvjjjEEEEEE10deallocateB7v160006ERSC_PSB_m', symObjAddr: 0x218DC, symBinAddr: 0x1000227EC, symSize: 0x34 }
  - { offsetInCU: 0x74A06, offset: 0x74A06, size: 0x8, addend: 0x0, symName: '__ZNSt3__19allocatorINS_10__function6__funcIZ15kcobuchi_expandNS_10shared_ptrIN4spot9twa_graphEEEjbE3$_1NS0_IS7_EEFvjjjEEEE10deallocateB7v160006EPSA_m', symObjAddr: 0x21910, symBinAddr: 0x100022820, symSize: 0x44 }
  - { offsetInCU: 0x74A48, offset: 0x74A48, size: 0x8, addend: 0x0, symName: '__ZNSt3__110__function6__funcIZ15kcobuchi_expandNS_10shared_ptrIN4spot9twa_graphEEEjbE3$_1NS_9allocatorIS6_EEFvjjjEEC1B7v160006ERKS6_RKS8_', symObjAddr: 0x21954, symBinAddr: 0x100022864, symSize: 0x3C }
  - { offsetInCU: 0x74A90, offset: 0x74A90, size: 0x8, addend: 0x0, symName: '__ZNSt3__110__function6__funcIZ15kcobuchi_expandNS_10shared_ptrIN4spot9twa_graphEEEjbE3$_1NS_9allocatorIS6_EEFvjjjEEC2B7v160006ERKS6_RKS8_', symObjAddr: 0x21990, symBinAddr: 0x1000228A0, symSize: 0x88 }
  - { offsetInCU: 0x74AD8, offset: 0x74AD8, size: 0x8, addend: 0x0, symName: '__ZNSt3__110__function12__alloc_funcIZ15kcobuchi_expandNS_10shared_ptrIN4spot9twa_graphEEEjbE3$_1NS_9allocatorIS6_EEFvjjjEEC1B7v160006ERKS6_RKS8_', symObjAddr: 0x21A18, symBinAddr: 0x100022928, symSize: 0x3C }
  - { offsetInCU: 0x74B1E, offset: 0x74B1E, size: 0x8, addend: 0x0, symName: '__ZNSt3__110__function12__alloc_funcIZ15kcobuchi_expandNS_10shared_ptrIN4spot9twa_graphEEEjbE3$_1NS_9allocatorIS6_EEFvjjjEEC2B7v160006ERKS6_RKS8_', symObjAddr: 0x21A54, symBinAddr: 0x100022964, symSize: 0x5C }
  - { offsetInCU: 0x74B64, offset: 0x74B64, size: 0x8, addend: 0x0, symName: '__ZNSt3__117__compressed_pairIZ15kcobuchi_expandNS_10shared_ptrIN4spot9twa_graphEEEjbE3$_1NS_9allocatorIS5_EEEC1B7v160006IJRKS5_EJRKS7_EEENS_21piecewise_construct_tENS_5tupleIJDpT_EEENSF_IJDpT0_EEE', symObjAddr: 0x21ADC, symBinAddr: 0x1000229EC, symSize: 0x3C }
  - { offsetInCU: 0x74BCE, offset: 0x74BCE, size: 0x8, addend: 0x0, symName: '__ZNSt3__15tupleIJRKNS_9allocatorIZ15kcobuchi_expandNS_10shared_ptrIN4spot9twa_graphEEEjbE3$_1EEEEC1B7v160006INS_4_AndELi0EEES9_', symObjAddr: 0x21B18, symBinAddr: 0x100022A28, symSize: 0x34 }
  - { offsetInCU: 0x74C16, offset: 0x74C16, size: 0x8, addend: 0x0, symName: '__ZNSt3__15tupleIJRKNS_9allocatorIZ15kcobuchi_expandNS_10shared_ptrIN4spot9twa_graphEEEjbE3$_1EEEEC2B7v160006INS_4_AndELi0EEES9_', symObjAddr: 0x21B4C, symBinAddr: 0x100022A5C, symSize: 0x34 }
  - { offsetInCU: 0x74C5E, offset: 0x74C5E, size: 0x8, addend: 0x0, symName: '__ZNSt3__112__tuple_implINS_15__tuple_indicesIJLm0EEEEJRKNS_9allocatorIZ15kcobuchi_expandNS_10shared_ptrIN4spot9twa_graphEEEjbE3$_1EEEEC1B7v160006IJLm0EEJSB_EJEJEJSB_EEENS1_IJXspT_EEEENS_13__tuple_typesIJDpT0_EEENS1_IJXspT1_EEEENSF_IJDpT2_EEEDpOT3_', symObjAddr: 0x21B80, symBinAddr: 0x100022A90, symSize: 0x34 }
  - { offsetInCU: 0x74CEF, offset: 0x74CEF, size: 0x8, addend: 0x0, symName: '__ZNSt3__112__tuple_implINS_15__tuple_indicesIJLm0EEEEJRKNS_9allocatorIZ15kcobuchi_expandNS_10shared_ptrIN4spot9twa_graphEEEjbE3$_1EEEEC2B7v160006IJLm0EEJSB_EJEJEJSB_EEENS1_IJXspT_EEEENS_13__tuple_typesIJDpT0_EEENS1_IJXspT1_EEEENSF_IJDpT2_EEEDpOT3_', symObjAddr: 0x21BB4, symBinAddr: 0x100022AC4, symSize: 0x34 }
  - { offsetInCU: 0x74D80, offset: 0x74D80, size: 0x8, addend: 0x0, symName: '__ZNSt3__112__tuple_leafILm0ERKNS_9allocatorIZ15kcobuchi_expandNS_10shared_ptrIN4spot9twa_graphEEEjbE3$_1EELb0EEC2B7v160006IS9_vEEOT_', symObjAddr: 0x21BE8, symBinAddr: 0x100022AF8, symSize: 0x20 }
